0001   0000                                                        ;  processor 6502
0002   0000                                                        
0003   0000                                                        ;  build-command Blend Asteroids.asm AstoidsBLEND.asm
0004   0000                                                        ;  build-command tasm -b -65 AsteroidsBLEND.asm Asteroids.bin
0005   0000                                                        
0006   0000                                                        ;  ROM order: 035145.02 + 035144.02 + 035143.02
0007   0000                                                        ;  2K each starting at 6800
0008   0000                                                        
0009   0000                                                        ;  ---------------------------------------------------------------------------
0010   0000                                                        ;  File Name   : C:\asteroid\CombinedRoms.bin
0011   0000                                                        ;  Format      : Binary File
0012   0000                                                        ;  Base Address: 0000h Range: 6800h - 8000h Loaded length: 1800h
0013   0000                                                        
0014   0000                                                        ;  Processor:        M6502
0015   0000                                                        ;  Target assembler: SVENSON ELECTRONICS 6502/65C02 ASSEMBLER - V.1.0 - MAY, 1988
0016   0000                                                        ;  ---------------------------------------------------------------------------
0017   0000                                                        ;  NOTE: This code is property of Atari Inc. All requests from said company to remove
0018   0000                                                        ;  This code from public display will be honored
0019   0000                                                        ;  Disassembly By Lonnie Howell     displacer1@excite.com
0020   0000                                                        ;  Updated 10/8/04
0021   0000                                                        
0022   0000                                                        ;  Memory map:
0023   0000                                                        ;  $18              Current Player (0 = Player 1, 1 = Player 2)
0024   0000                                                        ;  $1C              Number Of Players In Current Game
0025   0000                                                        ;  $1D - $30        High Score Table (Scores) 2 Byte Format In Decimal
0026   0000                                                        ;                   Byte 1 Tens, Byte 2 Thousands (In Decimal)
0027   0000                                                        ;  $34 - $51        High Score Table (Initials) 3 Byte Format
0028   0000                                                        ;  $52              Player 1 Score Tens (In Decimal)
0029   0000                                                        ;  $53              Player 1 Score Thousands (In Decimal)
0030   0000                                                        ;  $54              Player 2 Score Tens (In Decimal)
0031   0000                                                        ;  $55              Player 2 Score Thousands (In Decimal)
0032   0000                                                        ;  $56              Number Of Starting Ships Per Game
0033   0000                                                        ;  $57              Current Number Of Ships, Player 1
0034   0000                                                        ;  $58              Current Number Of Ships, Player 2
0035   0000                                                        ;  $59              Hyperspace Flag: 1 = Successful Hyperspace Jump
0036   0000                                                        ;                                    #$80 = Unsuccessful Hyperspace Jump (DEATH)
0037   0000                                                        ;                                    0 = Hyperspace Not Currently Active
0038   0000                                                        ;  $5C              Fast Timer
0039   0000                                                        ;  $5D              Slow Timer
0040   0000                                                        ;  $61              Ship Direction
0041   0000                                                        ;  $62              Direction Shot Is Fired From Saucer (?)
0042   0000                                                        ;  $68              TIMER: Length Of Time To Play Bonus Ship Sound
0043   0000                                                        ;  $6A              Fire Sound Flag For Player
0044   0000                                                        ;  $6B              Fire Sound Flag For Saucer
0045   0000                                                        ;  $6C              Current Volume & Frequency Settings For THUMP Sound
0046   0000                                                        ;  $6D              TIMER: Time THUMP Sound Remains On
0047   0000                                                        ;  $6E              TIMER: Time THUMP Sound Remains Off (Speeds Up As Game Progresses)
0048   0000                                                        ;  $6F              Bitmap Of Changes To Be Made In $3200
0049   0000                                                        ;  $70              Current Number Of Credits
0050   0000                                                        ;  $71              Bitmap Of DIP Switches 4-8
0051   0000                                                        ;  $72              Slam Switch Flag
0052   0000                                                        ;  $73              Total Coins (After Multiplyers) To Be Converted To Credits
0053   0000                                                        
0054   0000                                                        ;  $0100 - $01FF    Stack Space
0055   0000                                                        ;  $021B            Player Flag, 1 = Player Alive And Active, #$A0+ = Player Currently Exploding
0056   0000                                                        ;  $021C            Saucer Flag, 0 = No Saucer, 1 = Small Saucer, 2 = Large Saucer
0057   0000                                                        ;  $021D - $021E    Countdown Timers For Saucer Shots
0058   0000                                                        ;  $021F - $0222    Countdown Timers For Ship Shots
0059   0000                                                        ;  $02F7            Countdown Timer For Saucer, At 0, Saucer Appears
0060   0000                                                        ;                   Possibly A Dual Purpous Timer
0061   0000                                                        ;  $02F8            Starting Value For Timer @ $02F7
0062   0000                                                        ;  $02FC            Starting Value For Timer @ $6E
0063   0000                                                        ;  $0200 - 02FF     Player 1 RAM
0064   0000                                                        ;  $0300 - 03FF     Player 2 RAM
0065   0000                                                        
0066   0000                                                        ;  $2001            3 KHz
0067   0000                                                        ;  $2002            HALT
0068   0000                                                        ;  $2003            Hyperspace Switch
0069   0000                                                        ;  $2004            Fire Switch
0070   0000                                                        ;  $2005            Diag. Step
0071   0000                                                        ;  $2006            Slam Switch
0072   0000                                                        ;  $2007            Self Test Switch
0073   0000                                                        
0074   0000                                                        ;  $2400            Left Coin Switch
0075   0000                                                        ;  $2401            Center Coin Switch
0076   0000                                                        ;  $2402            Right Coin Switch
0077   0000                                                        ;  $2403            1 Player Start Switch
0078   0000                                                        ;  $2404            2 Player Start Switch
0079   0000                                                        ;  $2405            Thrust Switch
0080   0000                                                        ;  $2406            Rotate Right Switch
0081   0000                                                        ;  $2407            Rotate Left Switch
0082   0000                                                        ;  $3200            Bit 1 = 2 Player Start Lamp
0083   0000                                                        ;                   Bit 2 = 1 Player Start Lamp
0084   0000                                                        ;                   Bit 3 = RAMSEL
0085   0000                                                        ;                   Bit 4 = Left Coin Counter
0086   0000                                                        ;                   Bit 5 = Center Coin Counter
0087   0000                                                        ;                   Bit 6 = Right Coin Counter
0088   0000                                                        
0089   0000                                                        
0090   0000                                                        
0091   6800                              .ORG     $6800            ; OLine=91
0092   6800 4C F3 7C                     JMP      loc_7CF3         ; OLine=92
0093   6803                                                        
0094   6803             loc_6803:                                  ; OLine=94
0095   6803                                                        
0096   6803 20 FA 6E                     JSR      sub_6EFA         ; OLine=96  Reset Sound, Zero Out Sound Timers
0097   6806 20 D8 6E                     JSR      sub_6ED8         ; OLine=97  Number Of Starting Ships To $56 And Zero
0098   6809                                                        ;  Out Players Scores *BUG*
0099   6809             loc_6809:                                  ; OLine=99
0100   6809 20 68 71                     JSR      sub_7168         ; OLine=100 
0101   680C                                                        
0102   680C             loc_680C:                                  ; OLine=102
0103   680C                                                        
0104   680C AD 07 20                     LDA      $2007            ; OLine=104  Self test switch
0105   680F                                                        
0106   680F             loc_680F:                                  ; OLine=106
0107   680F 30 FE                        BMI      loc_680F         ; OLine=107  Branch If Switch Is On
0108   6811 46 5B                        LSR      $5B              ; OLine=108 
0109   6813 90 F7                        BCC      loc_680C         ; OLine=109 
0110   6815                                                        
0111   6815             loc_6815:                                  ; OLine=111
0112   6815 AD 02 20                     LDA      $2002            ; OLine=112  HALT
0113   6818 30 FB                        BMI      loc_6815         ; OLine=113  Wait For State Machine To Finish
0114   681A AD 01 40                     LDA      $4001            ; OLine=114 
0115   681D 49 02                        EOR      #2               ; OLine=115 
0116   681F 8D 01 40                     STA      $4001            ; OLine=116 
0117   6822 8D 00 30                     STA      $3000            ; OLine=117  DMAGO
0118   6825 8D 00 34                     STA      $3400            ; OLine=118  Reset WatchDog
0119   6828 E6 5C                        INC      $5C              ; OLine=119  Update Fast Timer
0120   682A D0 02                        BNE      loc_682E         ; OLine=120 
0121   682C E6 5D                        INC      $5D              ; OLine=121  Update Slow Timer
0122   682E                                                        
0123   682E             loc_682E:                                  ; OLine=123
0124   682E A2 40                        LDX      #$40             ; OLine=124 
0125   6830 29 02                        AND      #2               ; OLine=125 
0126   6832 D0 02                        BNE      loc_6836         ; OLine=126 
0127   6834 A2 44                        LDX      #$44             ; OLine=127 
0128   6836                                                        
0129   6836             loc_6836:                                  ; OLine=129
0130   6836 A9 02                        LDA      #2               ; OLine=130 
0131   6838 85 02                        STA      2                ; OLine=131 
0132   683A 86 03                        STX      3                ; OLine=132 
0133   683C 20 85 68                     JSR      sub_6885         ; OLine=133 
0134   683F B0 C2                        BCS      loc_6803         ; OLine=134 
0135   6841 20 5C 76                     JSR      sub_765C         ; OLine=135 
0136   6844 20 90 6D                     JSR      sub_6D90         ; OLine=136 
0137   6847 10 1B                        BPL      loc_6864         ; OLine=137 
0138   6849 20 C4 73                     JSR      sub_73C4         ; OLine=138 
0139   684C B0 16                        BCS      loc_6864         ; OLine=139 
0140   684E A5 5A                        LDA      $5A              ; OLine=140 
0141   6850 D0 0C                        BNE      loc_685E         ; OLine=141 
0142   6852 20 D7 6C                     JSR      sub_6CD7         ; OLine=142 
0143   6855 20 74 6E                     JSR      sub_6E74         ; OLine=143 
0144   6858 20 3F 70                     JSR      sub_703F         ; OLine=144 
0145   685B 20 93 6B                     JSR      sub_6B93         ; OLine=145 
0146   685E                                                        
0147   685E             loc_685E:                                  ; OLine=147
0148   685E 20 57 6F                     JSR      sub_6F57         ; OLine=148 
0149   6861 20 F0 69                     JSR      sub_69F0         ; OLine=149 
0150   6864                                                        
0151   6864             loc_6864:                                  ; OLine=151
0152   6864                                                        
0153   6864 20 4F 72                     JSR      sub_724F         ; OLine=153 
0154   6867 20 55 75                     JSR      sub_7555         ; OLine=154 
0155   686A A9 7F                        LDA      #$7F             ; OLine=155 
0156   686C AA                           TAX                       ; OLine=156 
0157   686D 20 03 7C                     JSR      sub_7C03         ; OLine=157 
0158   6870 20 B5 77                     JSR      sub_77B5         ; OLine=158 
0159   6873 20 C0 7B                     JSR      sub_7BC0         ; OLine=159 
0160   6876 AD FB 02                     LDA      $2FB             ; OLine=160 
0161   6879 F0 03                        BEQ      loc_687E         ; OLine=161 
0162   687B CE FB 02                     DEC      $2FB             ; OLine=162 
0163   687E                                                        
0164   687E             loc_687E:                                  ; OLine=164
0165   687E 0D F6 02                     ORA      $2F6             ; OLine=165 
0166   6881 D0 89                        BNE      loc_680C         ; OLine=166 
0167   6883 F0 84                        BEQ      loc_6809         ; OLine=167 
0168   6885                                                        
0169   6885                                                        ;  ¦¦¦¦¦¦¦¦¦¦¦¦¦¦¦ S U B R O U T I N E ¦¦¦¦¦¦¦¦¦¦¦¦¦¦¦¦¦¦¦¦¦¦¦¦¦¦¦¦¦¦¦¦¦¦¦¦¦¦¦
0170   6885                                                        
0171   6885                                                        
0172   6885             sub_6885:                                  ; OLine=172
0173   6885 A5 1C                        LDA      $1C              ; OLine=173  Number Of Players In Current Game
0174   6887 F0 14                        BEQ      loc_689D         ; OLine=174  None, Branch
0175   6889 A5 5A                        LDA      $5A              ; OLine=175 
0176   688B D0 03                        BNE      loc_6890         ; OLine=176 
0177   688D 4C 60 69                     JMP      loc_6960         ; OLine=177 
0178   6890                                                        ;  ---------------------------------------------------------------------------
0179   6890                                                        
0180   6890             loc_6890:                                  ; OLine=180
0181   6890 C6 5A                        DEC      $5A              ; OLine=181 
0182   6892 20 E2 69                     JSR      sub_69E2         ; OLine=182 
0183   6895                                                        
0184   6895             loc_6895:                                  ; OLine=184
0185   6895 18                           CLC                       ; OLine=185 
0186   6896 60                           RTS                       ; OLine=186 
0187   6897                                                        ;  ---------------------------------------------------------------------------
0188   6897                                                        
0189   6897             loc_6897:                                  ; OLine=189
0190   6897 A9 02                        LDA      #2               ; OLine=190  Free Credits!
0191   6899 85 70                        STA      $70              ; OLine=191  Can Only Play A 2 Player Game, So Only Need To Add 2
0192   689B D0 13                        BNE      loc_68B0         ; OLine=192  Credits For Free Play
0193   689D                                                        
0194   689D             loc_689D:                                  ; OLine=194
0195   689D A5 71                        LDA      $71              ; OLine=195  DIP Switch Settings Bitmap
0196   689F 29 03                        AND      #3               ; OLine=196  Mask Off Settings For Switches 8 & 7
0197   68A1 F0 F4                        BEQ      loc_6897         ; OLine=197  Check For Free Play, Branch If Yes
0198   68A3 18                           CLC                       ; OLine=198 
0199   68A4 69 07                        ADC      #7               ; OLine=199  Determine Which Message To Display Based On DIP Settings
0200   68A6 A8                           TAY                       ; OLine=200  Into Y For The Offset
0201   68A7                                                        ;  Y = 8, "1 COIN 2 PLAYS"
0202   68A7                                                        ;  Y = 9, "1 COIN 1 PLAY"
0203   68A7                                                        ;  Y = A, "2 COINS 1 PLAY"
0204   68A7 A5 32                        LDA      $32              ; OLine=204 
0205   68A9 25 33                        AND      $33              ; OLine=205 
0206   68AB 10 03                        BPL      loc_68B0         ; OLine=206 
0207   68AD 20 F6 77                     JSR      sub_77F6         ; OLine=207  And Draw It To Screen
0208   68B0                                                        
0209   68B0             loc_68B0:                                  ; OLine=209
0210   68B0                                                        
0211   68B0 A4 70                        LDY      $70              ; OLine=211  Current Number Of Credits
0212   68B2 F0 E1                        BEQ      loc_6895         ; OLine=212  No Credits, Branch
0213   68B4 A2 01                        LDX      #1               ; OLine=213  Assume 1 Player Game 
0214   68B6 AD 03 24                     LDA      $2403            ; OLine=214  1 Player start button
0215   68B9 30 23                        BMI      loc_68DE         ; OLine=215  Branch If Pressed
0216   68BB C0 02                        CPY      #2               ; OLine=216  Enough Credits For A 2 Player Game?
0217   68BD 90 7C                        BCC      loc_693B         ; OLine=217  No, Branch
0218   68BF AD 04 24                     LDA      $2404            ; OLine=218  2 Player start button
0219   68C2 10 77                        BPL      loc_693B         ; OLine=219  Branch if NOT pressed
0220   68C4 A5 6F                        LDA      $6F              ; OLine=220  $3200 Bitmap
0221   68C6 09 04                        ORA      #4               ; OLine=221  Set Bit 3, RAMSEL (Swap In $0200 Memory)
0222   68C8 85 6F                        STA      $6F              ; OLine=222  Update Bitmap
0223   68CA 8D 00 32                     STA      $3200            ; OLine=223  And Make The Change
0224   68CD 20 D8 6E                     JSR      sub_6ED8         ; OLine=224 
0225   68D0 20 68 71                     JSR      sub_7168         ; OLine=225 
0226   68D3 20 E8 71                     JSR      sub_71E8         ; OLine=226 
0227   68D6 A5 56                        LDA      $56              ; OLine=227  Number Of Starting Ships
0228   68D8 85 58                        STA      $58              ; OLine=228  To Player 2 Current Ships
0229   68DA A2 02                        LDX      #2               ; OLine=229  2 Player Game
0230   68DC C6 70                        DEC      $70              ; OLine=230  Subtract Credit
0231   68DE                                                        
0232   68DE             loc_68DE:                                  ; OLine=232
0233   68DE 86 1C                        STX      $1C              ; OLine=233  Flag Number Of Players In Current Game
0234   68E0 C6 70                        DEC      $70              ; OLine=234  Subtract Credit
0235   68E2 A5 6F                        LDA      $6F              ; OLine=235  $3200 Bitmap
0236   68E4 29 F8                        AND      #$F8             ; OLine=236 
0237   68E6 45 1C                        EOR      $1C              ; OLine=237  Change Player Start Lamps For This Game
0238   68E8 85 6F                        STA      $6F              ; OLine=238  Update Bitmap
0239   68EA 8D 00 32                     STA      $3200            ; OLine=239  And Make The Change
0240   68ED 20 E8 71                     JSR      sub_71E8         ; OLine=240 
0241   68F0 A9 01                        LDA      #1               ; OLine=241 
0242   68F2 8D FA 02                     STA      $2FA             ; OLine=242 
0243   68F5 8D FA 03                     STA      $3FA             ; OLine=243 
0244   68F8 A9 92                        LDA      #$92             ; OLine=244 
0245   68FA 8D F8 02                     STA      $2F8             ; OLine=245 
0246   68FD 8D F8 03                     STA      $3F8             ; OLine=246 
0247   6900 8D F7 03                     STA      $3F7             ; OLine=247 
0248   6903 8D F7 02                     STA      $2F7             ; OLine=248  Countdown Timer For When Saucer Appears
0249   6906 A9 7F                        LDA      #$7F             ; OLine=249 
0250   6908 8D FB 02                     STA      $2FB             ; OLine=250 
0251   690B 8D FB 03                     STA      $3FB             ; OLine=251 
0252   690E A9 05                        LDA      #5               ; OLine=252 
0253   6910 8D FD 02                     STA      $2FD             ; OLine=253 
0254   6913 8D FD 03                     STA      $3FD             ; OLine=254 
0255   6916 A9 FF                        LDA      #$FF             ; OLine=255 
0256   6918 85 32                        STA      $32              ; OLine=256 
0257   691A 85 33                        STA      $33              ; OLine=257 
0258   691C A9 80                        LDA      #$80             ; OLine=258 
0259   691E 85 5A                        STA      $5A              ; OLine=259 
0260   6920 0A                           ASL      A                ; OLine=260  Zero A, And Set Carry Flag
0261   6921 85 18                        STA      $18              ; OLine=261  Current Player. New Game So Start With Player 1
0262   6923 85 19                        STA      $19              ; OLine=262 
0263   6925 A5 56                        LDA      $56              ; OLine=263 
0264   6927 85 57                        STA      $57              ; OLine=264 
0265   6929 A9 04                        LDA      #4               ; OLine=265 
0266   692B 85 6C                        STA      $6C              ; OLine=266 
0267   692D 85 6E                        STA      $6E              ; OLine=267 
0268   692F A9 30                        LDA      #$30             ; OLine=268 
0269   6931 8D FC 02                     STA      $2FC             ; OLine=269  Starting Value For Timer @ $6E
0270   6934 8D FC 03                     STA      $3FC             ; OLine=270 
0271   6937 8D 00 3E                     STA      $3E00            ; OLine=271 
0272   693A 60                           RTS                       ; OLine=272  Noise Reset
0273   693B                                                        ;  ---------------------------------------------------------------------------
0274   693B                                                        
0275   693B             loc_693B:                                  ; OLine=275
0276   693B                                                        
0277   693B A5 32                        LDA      $32              ; OLine=277 
0278   693D 25 32                        AND      $32              ; OLine=278 
0279   693F 10 0B                        BPL      loc_694C         ; OLine=279 
0280   6941 A5 5C                        LDA      $5C              ; OLine=280  Fast Timer
0281   6943 29 20                        AND      #$20             ; OLine=281  Time To Draw Message To Screen?
0282   6945 D0 05                        BNE      loc_694C         ; OLine=282  No, Branch
0283   6947 A0 06                        LDY      #6               ; OLine=283  Offset For "PUSH START"
0284   6949 20 F6 77                     JSR      sub_77F6         ; OLine=284  And Draw It On Screen
0285   694C                                                        
0286   694C             loc_694C:                                  ; OLine=286
0287   694C                                                        
0288   694C A5 5C                        LDA      $5C              ; OLine=288  Fast Timer
0289   694E 29 0F                        AND      #$F              ; OLine=289  Time To Blink Player Start Lamp(s)?
0290   6950 D0 0C                        BNE      loc_695E         ; OLine=290  No, Branch
0291   6952 A9 01                        LDA      #1               ; OLine=291 
0292   6954 C5 70                        CMP      $70              ; OLine=292  Current Number Of Credits
0293   6956 69 01                        ADC      #1               ; OLine=293  Calculate Which Lamp(s) To Blink
0294   6958 49 01                        EOR      #1               ; OLine=294 
0295   695A 45 6F                        EOR      $6F              ; OLine=295  Switch Their Status (On Or Off)
0296   695C 85 6F                        STA      $6F              ; OLine=296  Update Bitmap
0297   695E                                                        
0298   695E             loc_695E:                                  ; OLine=298
0299   695E 18                           CLC                       ; OLine=299 
0300   695F 60                           RTS                       ; OLine=300 
0301   6960                                                        ;  ---------------------------------------------------------------------------
0302   6960                                                        
0303   6960             loc_6960:                                  ; OLine=303
0304   6960 A5 5C                        LDA      $5C              ; OLine=304  Fast Timer
0305   6962 29 3F                        AND      #$3F             ; OLine=305 
0306   6964 D0 0A                        BNE      loc_6970         ; OLine=306 
0307   6966 AD FC 02                     LDA      $2FC             ; OLine=307  Starting Value For Timer @ $6E
0308   6969 C9 08                        CMP      #8               ; OLine=308  At The Lowest Value It Can Be?
0309   696B F0 03                        BEQ      loc_6970         ; OLine=309  Yes, Branch
0310   696D CE FC 02                     DEC      $2FC             ; OLine=310 
0311   6970                                                        
0312   6970             loc_6970:                                  ; OLine=312
0313   6970                                                        
0314   6970 A6 18                        LDX      $18              ; OLine=314  Current Player
0315   6972 B5 57                        LDA      $57,X            ; OLine=315  Number Of Ships For Current Player
0316   6974 D0 1C                        BNE      loc_6992         ; OLine=316  Any Ships Left? Branch If Yes
0317   6976 AD 1F 02                     LDA      $21F             ; OLine=317  Check If Current Player Has Any Shots Active
0318   6979 0D 20 02                     ORA      $220             ; OLine=318 
0319   697C 0D 21 02                     ORA      $221             ; OLine=319 
0320   697F 0D 22 02                     ORA      $222             ; OLine=320 
0321   6982 D0 0E                        BNE      loc_6992         ; OLine=321  Still Have Active Shots, Branch
0322   6984 A0 07                        LDY      #7               ; OLine=322  Offset For "GAME OVER"
0323   6986 20 F6 77                     JSR      sub_77F6         ; OLine=323  And Draw It To Screen
0324   6989 A5 1C                        LDA      $1C              ; OLine=324  Number Of Players In Current Game
0325   698B C9 02                        CMP      #2               ; OLine=325  2 Player Game?
0326   698D 90 03                        BCC      loc_6992         ; OLine=326  No, Branch
0327   698F 20 E2 69                     JSR      sub_69E2         ; OLine=327  Display On Screen Which Player's Game Is Over
0328   6992                                                        
0329   6992             loc_6992:                                  ; OLine=329
0330   6992                                                        
0331   6992 AD 1B 02                     LDA      $21B             ; OLine=331 
0332   6995 D0 36                        BNE      loc_69CD         ; OLine=332 
0333   6997 AD FA 02                     LDA      $2FA             ; OLine=333 
0334   699A C9 80                        CMP      #$80             ; OLine=334 
0335   699C D0 2F                        BNE      loc_69CD         ; OLine=335 
0336   699E A9 10                        LDA      #$10             ; OLine=336 
0337   69A0 8D FA 02                     STA      $2FA             ; OLine=337 
0338   69A3 A6 1C                        LDX      $1C              ; OLine=338  Number Of Players In Current Game
0339   69A5 A5 57                        LDA      $57              ; OLine=339  Check If ANY Player Has ANY Ships Left
0340   69A7 05 58                        ORA      $58              ; OLine=340 
0341   69A9 F0 24                        BEQ      loc_69CF         ; OLine=341  Branch If All Players Are Out Of Ships
0342   69AB 20 2D 70                     JSR      sub_702D         ; OLine=342 
0343   69AE CA                           DEX                       ; OLine=343 
0344   69AF F0 1C                        BEQ      loc_69CD         ; OLine=344  Will Branch If Only 1 Player Remaining In Game
0345   69B1 A9 80                        LDA      #$80             ; OLine=345 
0346   69B3 85 5A                        STA      $5A              ; OLine=346 
0347   69B5 A5 18                        LDA      $18              ; OLine=347  Current Player
0348   69B7 49 01                        EOR      #1               ; OLine=348  Switch To Next Player
0349   69B9 AA                           TAX                       ; OLine=349 
0350   69BA B5 57                        LDA      $57,X            ; OLine=350  Any Ships Left For This Player?
0351   69BC F0 0F                        BEQ      loc_69CD         ; OLine=351  No, Branch
0352   69BE 86 18                        STX      $18              ; OLine=352  Flag Switch To Next Player
0353   69C0 A9 04                        LDA      #4               ; OLine=353  And Switch RAM To Next Player
0354   69C2 45 6F                        EOR      $6F              ; OLine=354  Bit 3, RAMSEL
0355   69C4 85 6F                        STA      $6F              ; OLine=355  Update Bitmap
0356   69C6 8D 00 32                     STA      $3200            ; OLine=356  Make The Switch 
0357   69C9 8A                           TXA                       ; OLine=357 
0358   69CA 0A                           ASL      A                ; OLine=358 
0359   69CB 85 19                        STA      $19              ; OLine=359 
0360   69CD                                                        
0361   69CD             loc_69CD:                                  ; OLine=361
0362   69CD                                                        
0363   69CD 18                           CLC                       ; OLine=363 
0364   69CE 60                           RTS                       ; OLine=364 
0365   69CF                                                        ;  ---------------------------------------------------------------------------
0366   69CF                                                        
0367   69CF             loc_69CF:                                  ; OLine=367
0368   69CF 86 1A                        STX      $1A              ; OLine=368 
0369   69D1 A9 FF                        LDA      #$FF             ; OLine=369 
0370   69D3 85 1C                        STA      $1C              ; OLine=370  Number Of Players In Current Game
0371   69D5 20 FA 6E                     JSR      sub_6EFA         ; OLine=371  Turn Off All Sounds, Zero Sound Timers
0372   69D8 A5 6F                        LDA      $6F              ; OLine=372  Bitmap Of $3200
0373   69DA 29 F8                        AND      #$F8             ; OLine=373 
0374   69DC 09 03                        ORA      #3               ; OLine=374  Turn On Player 1 & 2 Start Lamps
0375   69DE 85 6F                        STA      $6F              ; OLine=375  Update Bitmap
0376   69E0 18                           CLC                       ; OLine=376 
0377   69E1 60                           RTS                       ; OLine=377 
0378   69E2                                                        ;  End of function sub_6885
0379   69E2                                                        
0380   69E2                                                        
0381   69E2                                                        ;  ¦¦¦¦¦¦¦¦¦¦¦¦¦¦¦ S U B R O U T I N E ¦¦¦¦¦¦¦¦¦¦¦¦¦¦¦¦¦¦¦¦¦¦¦¦¦¦¦¦¦¦¦¦¦¦¦¦¦¦¦
0382   69E2                                                        
0383   69E2                                                        
0384   69E2             sub_69E2:                                  ; OLine=384
0385   69E2                                                        
0386   69E2 A0 01                        LDY      #1               ; OLine=386  Offset For "PLAYER "
0387   69E4 20 F6 77                     JSR      sub_77F6         ; OLine=387  And Draw It On Screen
0388   69E7 A4 18                        LDY      $18              ; OLine=388  Current Player
0389   69E9 C8                           INY                       ; OLine=389  Used To Draw Either "1" Or "2" After "PLAYER "
0390   69EA 98                           TYA                       ; OLine=390 
0391   69EB 20 D1 7B                     JSR      sub_7BD1         ; OLine=391  Draw It To Screen
0392   69EE 60                           RTS                       ; OLine=392
0393   69EF                                                        ;  End of function sub_69E2
0394   69EF                                                        
0395   69EF                                                        ;  ---------------------------------------------------------------------------
0396   69EF 71                           .BYTE    $71              ; OLine=396
0397   69F0                                                        
0398   69F0                                                        ;  ¦¦¦¦¦¦¦¦¦¦¦¦¦¦¦ S U B R O U T I N E ¦¦¦¦¦¦¦¦¦¦¦¦¦¦¦¦¦¦¦¦¦¦¦¦¦¦¦¦¦¦¦¦¦¦¦¦¦¦¦
0399   69F0                                                        
0400   69F0                                                        
0401   69F0             sub_69F0:                                  ; OLine=401
0402   69F0 A2 07                        LDX      #7               ; OLine=402 
0403   69F2                                                        
0404   69F2             loc_69F2:                                  ; OLine=404
0405   69F2 BD 1B 02                     LDA      $21B,X           ; OLine=405  Check If Any Active Shot In This Slot
0406   69F5 F0 02                        BEQ      loc_69F9         ; OLine=406  No, Branch
0407   69F7 10 04                        BPL      loc_69FD         ; OLine=407  Shot Still Active, Branch
0408   69F9                                                        
0409   69F9             loc_69F9:                                  ; OLine=409
0410   69F9                                                        
0411   69F9 CA                           DEX                       ; OLine=411 
0412   69FA 10 F6                        BPL      loc_69F2         ; OLine=412 
0413   69FC 60                           RTS                       ; OLine=413 
0414   69FD                                                        ;  ---------------------------------------------------------------------------
0415   69FD                                                        
0416   69FD             loc_69FD:                                  ; OLine=416
0417   69FD A0 1C                        LDY      #$1C             ; OLine=417 
0418   69FF E0 04                        CPX      #4               ; OLine=418 
0419   6A01 B0 07                        BCS      loc_6A0A         ; OLine=419 
0420   6A03 88                           DEY                       ; OLine=420 
0421   6A04 8A                           TXA                       ; OLine=421
0422   6A05 D0 03                        BNE      loc_6A0A         ; OLine=422
0423   6A07                                                        
0424   6A07             loc_6A07:                                  ; OLine=424
0425   6A07                                                        
0426   6A07 88                           DEY                       ; OLine=426
0427   6A08 30 EF                        BMI      loc_69F9         ; OLine=427 
0428   6A0A                                                        
0429   6A0A             loc_6A0A:                                  ; OLine=429
0430   6A0A                                                        
0431   6A0A B9 00 02                     LDA      $200,Y           ; OLine=431 
0432   6A0D F0 F8                        BEQ      loc_6A07         ; OLine=432 
0433   6A0F 30 F6                        BMI      loc_6A07         ; OLine=433 
0434   6A11 85 0B                        STA      $B               ; OLine=434 
0435   6A13 B9 AF 02                     LDA      $2AF,Y           ; OLine=435 
0436   6A16 38                           SEC                       ; OLine=436 
0437   6A17 FD CA 02                     SBC      $2CA,X           ; OLine=437 
0438   6A1A 85 08                        STA      8                ; OLine=438 
0439   6A1C B9 69 02                     LDA      $269,Y           ; OLine=439 
0440   6A1F FD 84 02                     SBC      $284,X           ; OLine=440 
0441   6A22 4A                           LSR      A                ; OLine=441 
0442   6A23 66 08                        ROR      8                ; OLine=442 
0443   6A25 0A                           ASL      A                ; OLine=443 
0444   6A26 F0 0C                        BEQ      loc_6A34         ; OLine=444 
0445   6A28 10 6D                        BPL      loc_6A97         ; OLine=445 
0446   6A2A 49 FE                        EOR      #$FE             ; OLine=446 
0447   6A2C D0 69                        BNE      loc_6A97         ; OLine=447 
0448   6A2E A5 08                        LDA      8                ; OLine=448 
0449   6A30 49 FF                        EOR      #$FF             ; OLine=449 
0450   6A32 85 08                        STA      8                ; OLine=450 
0451   6A34                                                        
0452   6A34             loc_6A34:                                  ; OLine=452
0453   6A34 B9 D2 02                     LDA      $2D2,Y           ; OLine=453 
0454   6A37 38                           SEC                       ; OLine=454 
0455   6A38 FD ED 02                     SBC      $2ED,X           ; OLine=455 
0456   6A3B 85 09                        STA      9                ; OLine=456 
0457   6A3D B9 8C 02                     LDA      $28C,Y           ; OLine=457 
0458   6A40 FD A7 02                     SBC      $2A7,X           ; OLine=458 
0459   6A43 4A                           LSR      A                ; OLine=459 
0460   6A44 66 09                        ROR      9                ; OLine=460 
0461   6A46 0A                           ASL      A                ; OLine=461 
0462   6A47 F0 0C                        BEQ      loc_6A55         ; OLine=462 
0463   6A49 10 4C                        BPL      loc_6A97         ; OLine=463 
0464   6A4B 49 FE                        EOR      #$FE             ; OLine=464 
0465   6A4D D0 48                        BNE      loc_6A97         ; OLine=465 
0466   6A4F A5 09                        LDA      9                ; OLine=466 
0467   6A51 49 FF                        EOR      #$FF             ; OLine=467 
0468   6A53 85 09                        STA      9                ; OLine=468 
0469   6A55                                                        
0470   6A55             loc_6A55:                                  ; OLine=470
0471   6A55 A9 2A                        LDA      #$2A             ; OLine=471 
0472   6A57 46 0B                        LSR      $B               ; OLine=472 
0473   6A59 B0 08                        BCS      loc_6A63         ; OLine=473 
0474   6A5B A9 48                        LDA      #$48             ; OLine=474 
0475   6A5D 46 0B                        LSR      $B               ; OLine=475 
0476   6A5F B0 02                        BCS      loc_6A63         ; OLine=476 
0477   6A61 A9 84                        LDA      #$84             ; OLine=477 
0478   6A63                                                        
0479   6A63             loc_6A63:                                  ; OLine=479
0480   6A63                                                        
0481   6A63 E0 01                        CPX      #1               ; OLine=481 
0482   6A65 B0 02                        BCS      loc_6A69         ; OLine=482 
0483   6A67 69 1C                        ADC      #$1C             ; OLine=483 
0484   6A69                                                        
0485   6A69             loc_6A69:                                  ; OLine=485
0486   6A69 D0 0C                        BNE      loc_6A77         ; OLine=486 
0487   6A6B 69 12                        ADC      #$12             ; OLine=487 
0488   6A6D AE 1C 02                     LDX      $21C             ; OLine=488  Saucer Flag
0489   6A70 CA                           DEX                       ; OLine=489 
0490   6A71 F0 02                        BEQ      loc_6A75         ; OLine=490  Small Saucer, Branch
0491   6A73 69 12                        ADC      #$12             ; OLine=491 
0492   6A75                                                        
0493   6A75             loc_6A75:                                  ; OLine=493
0494   6A75 A2 01                        LDX      #1               ; OLine=494 
0495   6A77                                                        
0496   6A77             loc_6A77:                                  ; OLine=496
0497   6A77 C5 08                        CMP      8                ; OLine=497 
0498   6A79 90 1C                        BCC      loc_6A97         ; OLine=498 
0499   6A7B C5 09                        CMP      9                ; OLine=499 
0500   6A7D 90 18                        BCC      loc_6A97         ; OLine=500 
0501   6A7F 85 0B                        STA      $B               ; OLine=501 
0502   6A81 4A                           LSR      A                ; OLine=502 
0503   6A82 18                           CLC                       ; OLine=503 
0504   6A83 65 0B                        ADC      $B               ; OLine=504 
0505   6A85 85 0B                        STA      $B               ; OLine=505 
0506   6A87 A5 09                        LDA      9                ; OLine=506 
0507   6A89 65 08                        ADC      8                ; OLine=507 
0508   6A8B B0 0A                        BCS      loc_6A97         ; OLine=508 
0509   6A8D C5 0B                        CMP      $B               ; OLine=509 
0510   6A8F B0 06                        BCS      loc_6A97         ; OLine=510
0511   6A91 20 0F 6B                     JSR      sub_6B0F         ; OLine=511
0512   6A94                                                        
0513   6A94             loc_6A94:                                  ; OLine=513
0514   6A94 4C F9 69                     JMP      loc_69F9         ; OLine=514 
0515   6A97                                                        ;  ---------------------------------------------------------------------------
0516   6A97                                                        
0517   6A97             loc_6A97:                                  ; OLine=517
0518   6A97                                                        
0519   6A97 88                           DEY                       ; OLine=519
0520   6A98 30 FA                        BMI      loc_6A94         ; OLine=520 
0521   6A9A 4C 0A 6A                     JMP      loc_6A0A         ; OLine=521
0522   6A9D                                                        ;  End of function sub_69F0
0523   6A9D                                                        
0524   6A9D                                                        
0525   6A9D                                                        ;  ¦¦¦¦¦¦¦¦¦¦¦¦¦¦¦ S U B R O U T I N E ¦¦¦¦¦¦¦¦¦¦¦¦¦¦¦¦¦¦¦¦¦¦¦¦¦¦¦¦¦¦¦¦¦¦¦¦¦¦¦
0526   6A9D                                                        
0527   6A9D                                                        
0528   6A9D             sub_6A9D:                                  ; OLine=528
0529   6A9D                                                        
0530   6A9D B9 00 02                     LDA      $200,Y           ; OLine=530 
0531   6AA0 29 07                        AND      #7               ; OLine=531 
0532   6AA2 85 08                        STA      8                ; OLine=532 
0533   6AA4 20 B5 77                     JSR      sub_77B5         ; OLine=533 
0534   6AA7 29 18                        AND      #$18             ; OLine=534 
0535   6AA9 05 08                        ORA      8                ; OLine=535 
0536   6AAB 9D 00 02                     STA      $200,X           ; OLine=536 
0537   6AAE B9 AF 02                     LDA      $2AF,Y           ; OLine=537
0538   6AB1 9D AF 02                     STA      $2AF,X           ; OLine=538
0539   6AB4 B9 69 02                     LDA      $269,Y           ; OLine=539
0540   6AB7 9D 69 02                     STA      $269,X           ; OLine=540 
0541   6ABA B9 D2 02                     LDA      $2D2,Y           ; OLine=541
0542   6ABD 9D D2 02                     STA      $2D2,X           ; OLine=542
0543   6AC0 B9 8C 02                     LDA      $28C,Y           ; OLine=543
0544   6AC3 9D 8C 02                     STA      $28C,X           ; OLine=544
0545   6AC6 B9 23 02                     LDA      $223,Y           ; OLine=545
0546   6AC9 9D 23 02                     STA      $223,X           ; OLine=546
0547   6ACC B9 46 02                     LDA      $246,Y           ; OLine=547 
0548   6ACF 9D 46 02                     STA      $246,X           ; OLine=548
0549   6AD2 60                           RTS                       ; OLine=549
0550   6AD3                                                        ;  End of function sub_6A9D
0551   6AD3                                                        
0552   6AD3                                                        
0553   6AD3                                                        ;  ¦¦¦¦¦¦¦¦¦¦¦¦¦¦¦ S U B R O U T I N E ¦¦¦¦¦¦¦¦¦¦¦¦¦¦¦¦¦¦¦¦¦¦¦¦¦¦¦¦¦¦¦¦¦¦¦¦¦¦¦
0554   6AD3                                                        
0555   6AD3                                                        
0556   6AD3             sub_6AD3:                                  ; OLine=556
0557   6AD3                                                        
0558   6AD3 85 0B                        STA      $B               ; OLine=558 
0559   6AD5 86 0C                        STX      $C               ; OLine=559
0560   6AD7                                                        ;  End of function sub_6AD3
0561   6AD7                                                        
0562   6AD7                                                        
0563   6AD7                                                        ;  ¦¦¦¦¦¦¦¦¦¦¦¦¦¦¦ S U B R O U T I N E ¦¦¦¦¦¦¦¦¦¦¦¦¦¦¦¦¦¦¦¦¦¦¦¦¦¦¦¦¦¦¦¦¦¦¦¦¦¦¦
0564   6AD7                                                        
0565   6AD7                                                        
0566   6AD7             sub_6AD7:                                  ; OLine=566
0567   6AD7 A0 00                        LDY      #0               ; OLine=567 
0568   6AD9                                                        
0569   6AD9             loc_6AD9:                                  ; OLine=569
0570   6AD9 C8                           INY                       ; OLine=570 
0571   6ADA B1 0B                        LDA      ($B),Y           ; OLine=571 
0572   6ADC 45 09                        EOR      9                ; OLine=572
0573   6ADE 91 02                        STA      (2),Y            ; OLine=573
0574   6AE0 88                           DEY                       ; OLine=574
0575   6AE1 C9 F0                        CMP      #$F0             ; OLine=575
0576   6AE3 B0 1E                        BCS      loc_6B03         ; OLine=576 
0577   6AE5 C9 A0                        CMP      #$A0             ; OLine=577
0578   6AE7 B0 16                        BCS      loc_6AFF         ; OLine=578
0579   6AE9 B1 0B                        LDA      ($B),Y           ; OLine=579
0580   6AEB 91 02                        STA      (2),Y            ; OLine=580
0581   6AED C8                           INY                       ; OLine=581
0582   6AEE C8                           INY                       ; OLine=582
0583   6AEF B1 0B                        LDA      ($B),Y           ; OLine=583 
0584   6AF1 91 02                        STA      (2),Y            ; OLine=584
0585   6AF3 C8                           INY                       ; OLine=585
0586   6AF4 B1 0B                        LDA      ($B),Y           ; OLine=586 
0587   6AF6 45 08                        EOR      8                ; OLine=587
0588   6AF8 65 17                        ADC      $17              ; OLine=588
0589   6AFA 91 02                        STA      (2),Y            ; OLine=589 
0590   6AFC                                                        
0591   6AFC             loc_6AFC:                                  ; OLine=591
0592   6AFC C8                           INY                       ; OLine=592
0593   6AFD D0 DA                        BNE      loc_6AD9         ; OLine=593 
0594   6AFF                                                        
0595   6AFF             loc_6AFF:                                  ; OLine=595
0596   6AFF 88                           DEY                       ; OLine=596
0597   6B00 4C 39 7C                     JMP      sub_7C39         ; OLine=597 
0598   6B03                                                        ;  ---------------------------------------------------------------------------
0599   6B03                                                        
0600   6B03             loc_6B03:                                  ; OLine=600
0601   6B03 B1 0B                        LDA      ($B),Y           ; OLine=601 
0602   6B05 45 08                        EOR      8                ; OLine=602
0603   6B07 18                           CLC                       ; OLine=603
0604   6B08 65 17                        ADC      $17              ; OLine=604
0605   6B0A 91 02                        STA      (2),Y            ; OLine=605
0606   6B0C C8                           INY                       ; OLine=606
0607   6B0D D0 ED                        BNE      loc_6AFC         ; OLine=607 
0608   6B0F                                                        ;  End of function sub_6AD7
0609   6B0F                                                        
0610   6B0F                                                        
0611   6B0F                                                        ;  ¦¦¦¦¦¦¦¦¦¦¦¦¦¦¦ S U B R O U T I N E ¦¦¦¦¦¦¦¦¦¦¦¦¦¦¦¦¦¦¦¦¦¦¦¦¦¦¦¦¦¦¦¦¦¦¦¦¦¦¦
0612   6B0F                                                        
0613   6B0F                                                        
0614   6B0F             sub_6B0F:                                  ; OLine=614
0615   6B0F E0 01                        CPX      #1               ; OLine=615
0616   6B11 D0 08                        BNE      loc_6B1B         ; OLine=616 
0617   6B13 C0 1B                        CPY      #$1B             ; OLine=617
0618   6B15 D0 12                        BNE      loc_6B29         ; OLine=618 
0619   6B17 A2 00                        LDX      #0               ; OLine=619
0620   6B19 A0 1C                        LDY      #$1C             ; OLine=620 
0621   6B1B                                                        
0622   6B1B             loc_6B1B:                                  ; OLine=622
0623   6B1B 8A                           TXA                       ; OLine=623 
0624   6B1C D0 1E                        BNE      loc_6B3C         ; OLine=624
0625   6B1E A9 81                        LDA      #$81             ; OLine=625
0626   6B20 8D FA 02                     STA      $2FA             ; OLine=626 
0627   6B23 A6 18                        LDX      $18              ; OLine=627  Current Player
0628   6B25 D6 57                        DEC      $57,X            ; OLine=628  Subtract Ship
0629   6B27 A2 00                        LDX      #0               ; OLine=629 
0630   6B29                                                        
0631   6B29             loc_6B29:                                  ; OLine=631
0632   6B29 A9 A0                        LDA      #$A0             ; OLine=632
0633   6B2B 9D 1B 02                     STA      $21B,X           ; OLine=633 
0634   6B2E A9 00                        LDA      #0               ; OLine=634
0635   6B30 9D 3E 02                     STA      $23E,X           ; OLine=635
0636   6B33 9D 61 02                     STA      $261,X           ; OLine=636
0637   6B36 C0 1B                        CPY      #$1B             ; OLine=637
0638   6B38 90 0D                        BCC      loc_6B47         ; OLine=638 
0639   6B3A B0 37                        BCS      loc_6B73         ; OLine=639
0640   6B3C                                                        
0641   6B3C             loc_6B3C:                                  ; OLine=641
0642   6B3C A9 00                        LDA      #0               ; OLine=642
0643   6B3E 9D 1B 02                     STA      $21B,X           ; OLine=643 
0644   6B41 C0 1B                        CPY      #$1B             ; OLine=644
0645   6B43 F0 21                        BEQ      loc_6B66         ; OLine=645
0646   6B45 B0 2C                        BCS      loc_6B73         ; OLine=646 
0647   6B47                                                        
0648   6B47             loc_6B47:                                  ; OLine=648
0649   6B47 20 EC 75                     JSR      sub_75EC         ; OLine=649 
0650   6B4A                                                        
0651   6B4A             loc_6B4A:                                  ; OLine=651
0652   6B4A                                                        
0653   6B4A B9 00 02                     LDA      $200,Y           ; OLine=653 
0654   6B4D 29 03                        AND      #3               ; OLine=654
0655   6B4F 49 02                        EOR      #2               ; OLine=655
0656   6B51 4A                           LSR      A                ; OLine=656 
0657   6B52 6A                           ROR      A                ; OLine=657
0658   6B53 6A                           ROR      A                ; OLine=658
0659   6B54 09 3F                        ORA      #$3F             ; OLine=659 
0660   6B56 85 69                        STA      $69              ; OLine=660
0661   6B58 A9 A0                        LDA      #$A0             ; OLine=661
0662   6B5A 99 00 02                     STA      $200,Y           ; OLine=662 
0663   6B5D A9 00                        LDA      #0               ; OLine=663
0664   6B5F 99 23 02                     STA      $223,Y           ; OLine=664
0665   6B62 99 46 02                     STA      $246,Y           ; OLine=665 
0666   6B65 60                           RTS                       ; OLine=666
0667   6B66                                                        ;  ---------------------------------------------------------------------------
0668   6B66                                                        
0669   6B66             loc_6B66:                                  ; OLine=669
0670   6B66 8A                           TXA                       ; OLine=670 
0671   6B67 A6 18                        LDX      $18              ; OLine=671  Current Player
0672   6B69 D6 57                        DEC      $57,X            ; OLine=672  Subtract Ship
0673   6B6B AA                           TAX                       ; OLine=673
0674   6B6C A9 81                        LDA      #$81             ; OLine=674
0675   6B6E 8D FA 02                     STA      $2FA             ; OLine=675 
0676   6B71 D0 D7                        BNE      loc_6B4A         ; OLine=676
0677   6B73                                                        
0678   6B73             loc_6B73:                                  ; OLine=678
0679   6B73                                                        
0680   6B73 AD F8 02                     LDA      $2F8             ; OLine=680 
0681   6B76 8D F7 02                     STA      $2F7             ; OLine=681  Countdown Timer For When Saucer Appears
0682   6B79 A5 1C                        LDA      $1C              ; OLine=682  Number Of Players In Current Game
0683   6B7B F0 CD                        BEQ      loc_6B4A         ; OLine=683  None, Branch
0684   6B7D 86 0D                        STX      $D               ; OLine=684 
0685   6B7F A6 19                        LDX      $19              ; OLine=685 
0686   6B81 AD 1C 02                     LDA      $21C             ; OLine=686  Saucer Flag
0687   6B84 4A                           LSR      A                ; OLine=687  Shift It To Carry
0688   6B85 A9 99                        LDA      #$99             ; OLine=688  990 Points, Assume Small Saucer
0689   6B87 B0 02                        BCS      loc_6B8B         ; OLine=689  Carry Will Be Set If Small Saucer
0690   6B89 A9 20                        LDA      #$20             ; OLine=690  200 Points, Its The Large Saucer
0691   6B8B                                                        
0692   6B8B             loc_6B8B:                                  ; OLine=692
0693   6B8B 20 97 73                     JSR      sub_7397         ; OLine=693  And Add It To Score
0694   6B8E A6 0D                        LDX      $D               ; OLine=694
0695   6B90 4C 4A 6B                     JMP      loc_6B4A         ; OLine=695 
0696   6B93                                                        ;  End of function sub_6B0F
0697   6B93                                                        
0698   6B93                                                        
0699   6B93                                                        ;  ¦¦¦¦¦¦¦¦¦¦¦¦¦¦¦ S U B R O U T I N E ¦¦¦¦¦¦¦¦¦¦¦¦¦¦¦¦¦¦¦¦¦¦¦¦¦¦¦¦¦¦¦¦¦¦¦¦¦¦¦
0700   6B93                                                        
0701   6B93                                                        
0702   6B93             sub_6B93:                                  ; OLine=702
0703   6B93 A5 5C                        LDA      $5C              ; OLine=703 
0704   6B95 29 03                        AND      #3               ; OLine=704
0705   6B97 F0 01                        BEQ      loc_6B9A         ; OLine=705 
0706   6B99                                                        
0707   6B99             locret_6B99:                               ; OLine=707
0708   6B99                                                        
0709   6B99 60                           RTS                       ; OLine=709 
0710   6B9A                                                        ;  ---------------------------------------------------------------------------
0711   6B9A                                                        
0712   6B9A             loc_6B9A:                                  ; OLine=712
0713   6B9A AD 1C 02                     LDA      $21C             ; OLine=713  Saucer Flag
0714   6B9D 30 FA                        BMI      locret_6B99      ; OLine=714  Currently Exploding?, Branch
0715   6B9F F0 03                        BEQ      loc_6BA4         ; OLine=715  No Saucer Currently Active, Branch
0716   6BA1 4C 34 6C                     JMP      loc_6C34         ; OLine=716 
0717   6BA4                                                        ;  ---------------------------------------------------------------------------
0718   6BA4                                                        
0719   6BA4             loc_6BA4:                                  ; OLine=719
0720   6BA4 A5 1C                        LDA      $1C              ; OLine=720  Number Of Players In Current Game
0721   6BA6 F0 07                        BEQ      loc_6BAF         ; OLine=721  None, Branch
0722   6BA8 AD 1B 02                     LDA      $21B             ; OLine=722 
0723   6BAB F0 EC                        BEQ      locret_6B99      ; OLine=723 
0724   6BAD 30 EA                        BMI      locret_6B99      ; OLine=724
0725   6BAF                                                        
0726   6BAF             loc_6BAF:                                  ; OLine=726
0727   6BAF AD F9 02                     LDA      $2F9             ; OLine=727 
0728   6BB2 F0 03                        BEQ      loc_6BB7         ; OLine=728
0729   6BB4 CE F9 02                     DEC      $2F9             ; OLine=729 
0730   6BB7                                                        
0731   6BB7             loc_6BB7:                                  ; OLine=731
0732   6BB7 CE F7 02                     DEC      $2F7             ; OLine=732  Update Countdown Timer For When Saucer Appears
0733   6BBA D0 DD                        BNE      locret_6B99      ; OLine=733
0734   6BBC A9 12                        LDA      #$12             ; OLine=734 
0735   6BBE 8D F7 02                     STA      $2F7             ; OLine=735
0736   6BC1 AD F9 02                     LDA      $2F9             ; OLine=736
0737   6BC4 F0 0A                        BEQ      loc_6BD0         ; OLine=737 
0738   6BC6 AD F6 02                     LDA      $2F6             ; OLine=738
0739   6BC9 F0 CE                        BEQ      locret_6B99      ; OLine=739 
0740   6BCB CD FD 02                     CMP      $2FD             ; OLine=740 
0741   6BCE B0 C9                        BCS      locret_6B99      ; OLine=741 
0742   6BD0                                                        
0743   6BD0             loc_6BD0:                                  ; OLine=743
0744   6BD0 AD F8 02                     LDA      $2F8             ; OLine=744 
0745   6BD3 38                           SEC                       ; OLine=745 
0746   6BD4 E9 06                        SBC      #6               ; OLine=746  Shorten Time Between Saucer Appearence
0747   6BD6 C9 20                        CMP      #$20             ; OLine=747  At Lowest Value?
0748   6BD8 90 03                        BCC      loc_6BDD         ; OLine=748  Yes, Branch
0749   6BDA 8D F8 02                     STA      $2F8             ; OLine=749  Make The Update
0750   6BDD                                                        
0751   6BDD             loc_6BDD:                                  ; OLine=751
0752   6BDD A9 00                        LDA      #0               ; OLine=752 
0753   6BDF 8D CB 02                     STA      $2CB             ; OLine=753 
0754   6BE2 8D 85 02                     STA      $285             ; OLine=754 
0755   6BE5 20 B5 77                     JSR      sub_77B5         ; OLine=755 
0756   6BE8 4A                           LSR      A                ; OLine=756 
0757   6BE9 6E EE 02                     ROR      $2EE             ; OLine=757 
0758   6BEC 4A                           LSR      A                ; OLine=758 
0759   6BED 6E EE 02                     ROR      $2EE             ; OLine=759 
0760   6BF0 4A                           LSR      A                ; OLine=760
0761   6BF1 6E EE 02                     ROR      $2EE             ; OLine=761 
0762   6BF4 C9 18                        CMP      #$18             ; OLine=762
0763   6BF6 90 02                        BCC      loc_6BFA         ; OLine=763 
0764   6BF8 29 17                        AND      #$17             ; OLine=764
0765   6BFA                                                        
0766   6BFA             loc_6BFA:                                  ; OLine=766
0767   6BFA 8D A8 02                     STA      $2A8             ; OLine=767 
0768   6BFD A2 10                        LDX      #$10             ; OLine=768
0769   6BFF 24 60                        BIT      $60              ; OLine=769
0770   6C01 70 0C                        BVS      loc_6C0F         ; OLine=770 
0771   6C03 A9 1F                        LDA      #$1F             ; OLine=771
0772   6C05 8D 85 02                     STA      $285             ; OLine=772
0773   6C08 A9 FF                        LDA      #$FF             ; OLine=773 
0774   6C0A 8D CB 02                     STA      $2CB             ; OLine=774
0775   6C0D A2 F0                        LDX      #$F0             ; OLine=775 
0776   6C0F                                                        
0777   6C0F             loc_6C0F:                                  ; OLine=777
0778   6C0F 8E 3F 02                     STX      $23F             ; OLine=778 
0779   6C12 A2 02                        LDX      #2               ; OLine=779  Start With Large Saucer
0780   6C14 AD F8 02                     LDA      $2F8             ; OLine=780  Start Checking Score When @ #$7F And Below
0781   6C17 30 17                        BMI      loc_6C30         ; OLine=781  Not There Yet, Branch Around Score Check
0782   6C19 A4 19                        LDY      $19              ; OLine=782
0783   6C1B B9 53 00                     LDA      $53,Y            ; OLine=783  Current Player Score, Thousands
0784   6C1E C9 30                        CMP      #$30             ; OLine=784  30,000 Points Or More?
0785   6C20 B0 0D                        BCS      loc_6C2F         ; OLine=785  Yes, Branch
0786   6C22 20 B5 77                     JSR      sub_77B5         ; OLine=786
0787   6C25 85 08                        STA      8                ; OLine=787
0788   6C27 AD F8 02                     LDA      $2F8             ; OLine=788 
0789   6C2A 4A                           LSR      A                ; OLine=789
0790   6C2B C5 08                        CMP      8                ; OLine=790
0791   6C2D B0 01                        BCS      loc_6C30         ; OLine=791  Going To Be A large Saucer, Branch
0792   6C2F                                                        
0793   6C2F             loc_6C2F:                                  ; OLine=793
0794   6C2F CA                           DEX                       ; OLine=794  Make It A Small Saucer
0795   6C30                                                        
0796   6C30             loc_6C30:                                  ; OLine=796
0797   6C30                                                        
0798   6C30 8E 1C 02                     STX      $21C             ; OLine=798  Saucer Flag
0799   6C33 60                           RTS                       ; OLine=799
0800   6C34                                                        ;  ---------------------------------------------------------------------------
0801   6C34                                                        
0802   6C34             loc_6C34:                                  ; OLine=802
0803   6C34 A5 5C                        LDA      $5C              ; OLine=803  Fast Timer
0804   6C36 0A                           ASL      A                ; OLine=804  Time To Change Saucer Direction? ( $5C = #$80 )
0805   6C37 D0 0C                        BNE      loc_6C45         ; OLine=805  No, Branch
0806   6C39 20 B5 77                     JSR      sub_77B5         ; OLine=806 
0807   6C3C 29 03                        AND      #3               ; OLine=807 
0808   6C3E AA                           TAX                       ; OLine=808
0809   6C3F BD D3 6C                     LDA      $6CD3,X          ; OLine=809  Direction Table
0810   6C42 8D 62 02                     STA      $262             ; OLine=810
0811   6C45                                                        
0812   6C45             loc_6C45:                                  ; OLine=812
0813   6C45 A5 1C                        LDA      $1C              ; OLine=813  Number Of Players In Current Game
0814   6C47 F0 05                        BEQ      loc_6C4E         ; OLine=814  None, Branch
0815   6C49 AD FA 02                     LDA      $2FA             ; OLine=815
0816   6C4C D0 05                        BNE      locret_6C53      ; OLine=816 
0817   6C4E                                                        
0818   6C4E             loc_6C4E:                                  ; OLine=818
0819   6C4E CE F7 02                     DEC      $2F7             ; OLine=819
0820   6C51 F0 01                        BEQ      loc_6C54         ; OLine=820 
0821   6C53                                                        
0822   6C53             locret_6C53:                               ; OLine=822
0823   6C53 60                           RTS                       ; OLine=823 
0824   6C54                                                        ;  ---------------------------------------------------------------------------
0825   6C54                                                        
0826   6C54             loc_6C54:                                  ; OLine=826
0827   6C54 A9 0A                        LDA      #$A              ; OLine=827  Time Between Saucer Shots
0828   6C56 8D F7 02                     STA      $2F7             ; OLine=828
0829   6C59 AD 1C 02                     LDA      $21C             ; OLine=829  Saucer Flag
0830   6C5C 4A                           LSR      A                ; OLine=830  Check Saucer Size
0831   6C5D F0 06                        BEQ      loc_6C65         ; OLine=831  Branch If Small One
0832   6C5F 20 B5 77                     JSR      sub_77B5         ; OLine=832
0833   6C62 4C C4 6C                     JMP      loc_6CC4         ; OLine=833 
0834   6C65                                                        ;  ---------------------------------------------------------------------------
0835   6C65                                                        
0836   6C65             loc_6C65:                                  ; OLine=836
0837   6C65 AD 3F 02                     LDA      $23F             ; OLine=837 
0838   6C68 C9 80                        CMP      #$80             ; OLine=838
0839   6C6A 6A                           ROR      A                ; OLine=839
0840   6C6B 85 0C                        STA      $C               ; OLine=840 
0841   6C6D AD CA 02                     LDA      $2CA             ; OLine=841
0842   6C70 38                           SEC                       ; OLine=842 
0843   6C71 ED CB 02                     SBC      $2CB             ; OLine=843
0844   6C74 85 0B                        STA      $B               ; OLine=844 
0845   6C76 AD 84 02                     LDA      $284             ; OLine=845
0846   6C79 ED 85 02                     SBC      $285             ; OLine=846 
0847   6C7C 06 0B                        ASL      $B               ; OLine=847
0848   6C7E 2A                           ROL      A                ; OLine=848
0849   6C7F 06 0B                        ASL      $B               ; OLine=849 
0850   6C81 2A                           ROL      A                ; OLine=850
0851   6C82 38                           SEC                       ; OLine=851
0852   6C83 E5 0C                        SBC      $C               ; OLine=852 
0853   6C85 AA                           TAX                       ; OLine=853
0854   6C86 AD 62 02                     LDA      $262             ; OLine=854
0855   6C89 C9 80                        CMP      #$80             ; OLine=855 
0856   6C8B 6A                           ROR      A                ; OLine=856
0857   6C8C 85 0C                        STA      $C               ; OLine=857
0858   6C8E AD ED 02                     LDA      $2ED             ; OLine=858 
0859   6C91 38                           SEC                       ; OLine=859
0860   6C92 ED EE 02                     SBC      $2EE             ; OLine=860 
0861   6C95 85 0B                        STA      $B               ; OLine=861
0862   6C97 AD A7 02                     LDA      $2A7             ; OLine=862
0863   6C9A ED A8 02                     SBC      $2A8             ; OLine=863 
0864   6C9D 06 0B                        ASL      $B               ; OLine=864
0865   6C9F 2A                           ROL      A                ; OLine=865
0866   6CA0 06 0B                        ASL      $B               ; OLine=866 
0867   6CA2 2A                           ROL      A                ; OLine=867
0868   6CA3 38                           SEC                       ; OLine=868 
0869   6CA4 E5 0C                        SBC      $C               ; OLine=869
0870   6CA6 A8                           TAY                       ; OLine=870 
0871   6CA7 20 F0 76                     JSR      loc_76F0         ; OLine=871 
0872   6CAA 85 62                        STA      $62              ; OLine=872 
0873   6CAC 20 B5 77                     JSR      sub_77B5         ; OLine=873 
0874   6CAF A6 19                        LDX      $19              ; OLine=874 
0875   6CB1 B4 53                        LDY      $53,X            ; OLine=875  Current Players Score, Thousands
0876   6CB3 C0 35                        CPY      #$35             ; OLine=876  35,000?
0877   6CB5 A2 00                        LDX      #0               ; OLine=877 
0878   6CB7 90 01                        BCC      loc_6CBA         ; OLine=878  Branch If Less
0879   6CB9 E8                           INX                       ; OLine=879 
0880   6CBA                                                        
0881   6CBA             loc_6CBA:                                  ; OLine=881
0882   6CBA 3D CF 6C                     AND      $6CCF,X          ; OLine=882 
0883   6CBD 10 03                        BPL      loc_6CC2         ; OLine=883 
0884   6CBF 1D D1 6C                     ORA      $6CD1,X          ; OLine=884 
0885   6CC2                                                        
0886   6CC2             loc_6CC2:                                  ; OLine=886
0887   6CC2 65 62                        ADC      $62              ; OLine=887  Direction Shot Is Traveling???
0888   6CC4                                                        
0889   6CC4             loc_6CC4:                                  ; OLine=889
0890   6CC4 85 62                        STA      $62              ; OLine=890 
0891   6CC6 A0 03                        LDY      #3               ; OLine=891 
0892   6CC8 A2 01                        LDX      #1               ; OLine=892 
0893   6CCA 86 0E                        STX      $E               ; OLine=893 
0894   6CCC 4C F2 6C                     JMP      loc_6CF2         ; OLine=894 
0895   6CCF                                                        ;  End of function sub_6B93
0896   6CCF                                                        
0897   6CCF                                                        ;  ---------------------------------------------------------------------------
0898   6CCF 8F                           .BYTE    $8F              ; OLine=898
0899   6CD0 87                           .BYTE    $87              ; OLine=899
0900   6CD1                                                        
0901   6CD1 70                           .BYTE    $70              ; OLine=901
0902   6CD2 78                           .BYTE    $78              ; OLine=902
0903   6CD3                                                        ;  First Colum Is Saucer Enters From Left Side Of Screen
0904   6CD3                                                        ;  Second Colum Is Saucer Enters From Right Side Of Screen
0905   6CD3 F0                           .BYTE    $F0              ; OLine=905  SE SW
0906   6CD4 00                           .BYTE    0                ; OLine=906  E  W
0907   6CD5 00                           .BYTE    0                ; OLine=907  E  W
0908   6CD6 10                           .BYTE    $10              ; OLine=908  NE NW
0909   6CD7                                                        
0910   6CD7                                                        ;  ¦¦¦¦¦¦¦¦¦¦¦¦¦¦¦ S U B R O U T I N E ¦¦¦¦¦¦¦¦¦¦¦¦¦¦¦¦¦¦¦¦¦¦¦¦¦¦¦¦¦¦¦¦¦¦¦¦¦¦¦
0911   6CD7                                                        
0912   6CD7                                                        
0913   6CD7             sub_6CD7:                                  ; OLine=913
0914   6CD7 A5 1C                        LDA      $1C              ; OLine=914  Number Of Players In Current Game
0915   6CD9 F0 21                        BEQ      locret_6CFC      ; OLine=915  None, Branch
0916   6CDB 0E 04 20                     ASL      $2004            ; OLine=916  Fire Switch
0917   6CDE 66 63                        ROR      $63              ; OLine=917 
0918   6CE0 24 63                        BIT      $63              ; OLine=918 
0919   6CE2 10 18                        BPL      locret_6CFC      ; OLine=919 
0920   6CE4 70 16                        BVS      locret_6CFC      ; OLine=920 
0921   6CE6 AD FA 02                     LDA      $2FA             ; OLine=921 
0922   6CE9 D0 11                        BNE      locret_6CFC      ; OLine=922 
0923   6CEB AA                           TAX                       ; OLine=923 
0924   6CEC A9 03                        LDA      #3               ; OLine=924 
0925   6CEE 85 0E                        STA      $E               ; OLine=925 
0926   6CF0 A0 07                        LDY      #7               ; OLine=926 
0927   6CF2                                                        
0928   6CF2             loc_6CF2:                                  ; OLine=928
0929   6CF2                                                        
0930   6CF2 B9 1B 02                     LDA      $21B,Y           ; OLine=930  Check For A Open Slot For The Shot
0931   6CF5 F0 06                        BEQ      loc_6CFD         ; OLine=931  Branch If This Slot Is Open
0932   6CF7 88                           DEY                       ; OLine=932  Point To Next Slot
0933   6CF8 C4 0E                        CPY      $E               ; OLine=933  Out Of Slots?
0934   6CFA D0 F6                        BNE      loc_6CF2         ; OLine=934  No, Branch And Keep Checking
0935   6CFC                                                        
0936   6CFC             locret_6CFC:                               ; OLine=936
0937   6CFC                                                        
0938   6CFC 60                           RTS                       ; OLine=938 
0939   6CFD                                                        ;  ---------------------------------------------------------------------------
0940   6CFD                                                        
0941   6CFD             loc_6CFD:                                  ; OLine=941
0942   6CFD 86 0D                        STX      $D               ; OLine=942 
0943   6CFF A9 12                        LDA      #$12             ; OLine=943 
0944   6D01 99 1B 02                     STA      $21B,Y           ; OLine=944 
0945   6D04 B5 61                        LDA      $61,X            ; OLine=945 
0946   6D06 20 D2 77                     JSR      sub_77D2         ; OLine=946 
0947   6D09 A6 0D                        LDX      $D               ; OLine=947 
0948   6D0B C9 80                        CMP      #$80             ; OLine=948 
0949   6D0D 6A                           ROR      A                ; OLine=949 
0950   6D0E 85 09                        STA      9                ; OLine=950 
0951   6D10 18                           CLC                       ; OLine=951 
0952   6D11 7D 3E 02                     ADC      $23E,X           ; OLine=952
0953   6D14 30 08                        BMI      loc_6D1E         ; OLine=953 
0954   6D16 C9 70                        CMP      #$70             ; OLine=954
0955   6D18 90 0A                        BCC      loc_6D24         ; OLine=955 
0956   6D1A A9 6F                        LDA      #$6F             ; OLine=956
0957   6D1C D0 06                        BNE      loc_6D24         ; OLine=957 
0958   6D1E                                                        
0959   6D1E             loc_6D1E:                                  ; OLine=959
0960   6D1E C9 91                        CMP      #$91             ; OLine=960 
0961   6D20 B0 02                        BCS      loc_6D24         ; OLine=961
0962   6D22 A9 91                        LDA      #$91             ; OLine=962
0963   6D24                                                        
0964   6D24             loc_6D24:                                  ; OLine=964
0965   6D24                                                        
0966   6D24 99 3E 02                     STA      $23E,Y           ; OLine=966 
0967   6D27 B5 61                        LDA      $61,X            ; OLine=967
0968   6D29 20 D5 77                     JSR      sub_77D5         ; OLine=968
0969   6D2C A6 0D                        LDX      $D               ; OLine=969 
0970   6D2E C9 80                        CMP      #$80             ; OLine=970
0971   6D30 6A                           ROR      A                ; OLine=971 
0972   6D31 85 0C                        STA      $C               ; OLine=972
0973   6D33 18                           CLC                       ; OLine=973
0974   6D34 7D 61 02                     ADC      $261,X           ; OLine=974 
0975   6D37 30 08                        BMI      loc_6D41         ; OLine=975
0976   6D39 C9 70                        CMP      #$70             ; OLine=976 
0977   6D3B 90 0A                        BCC      loc_6D47         ; OLine=977
0978   6D3D A9 6F                        LDA      #$6F             ; OLine=978
0979   6D3F D0 06                        BNE      loc_6D47         ; OLine=979 
0980   6D41                                                        
0981   6D41             loc_6D41:                                  ; OLine=981
0982   6D41 C9 91                        CMP      #$91             ; OLine=982
0983   6D43 B0 02                        BCS      loc_6D47         ; OLine=983
0984   6D45 A9 91                        LDA      #$91             ; OLine=984 
0985   6D47                                                        
0986   6D47             loc_6D47:                                  ; OLine=986
0987   6D47                                                        
0988   6D47 99 61 02                     STA      $261,Y           ; OLine=988 
0989   6D4A A2 00                        LDX      #0               ; OLine=989
0990   6D4C A5 09                        LDA      9                ; OLine=990
0991   6D4E 10 01                        BPL      loc_6D51         ; OLine=991 
0992   6D50 CA                           DEX                       ; OLine=992 
0993   6D51                                                        
0994   6D51             loc_6D51:                                  ; OLine=994
0995   6D51 86 08                        STX      8                ; OLine=995 
0996   6D53 A6 0D                        LDX      $D               ; OLine=996 
0997   6D55 C9 80                        CMP      #$80             ; OLine=997 
0998   6D57 6A                           ROR      A                ; OLine=998 
0999   6D58 18                           CLC                       ; OLine=999 
1000   6D59 65 09                        ADC      9                ; OLine=1000 
1001   6D5B 18                           CLC                       ; OLine=1001 
1002   6D5C 7D CA 02                     ADC      $2CA,X           ; OLine=1002 
1003   6D5F 99 CA 02                     STA      $2CA,Y           ; OLine=1003 
1004   6D62 A5 08                        LDA      8                ; OLine=1004 
1005   6D64 7D 84 02                     ADC      $284,X           ; OLine=1005
1006   6D67 99 84 02                     STA      $284,Y           ; OLine=1006
1007   6D6A A2 00                        LDX      #0               ; OLine=1007 
1008   6D6C A5 0C                        LDA      $C               ; OLine=1008
1009   6D6E 10 01                        BPL      loc_6D71         ; OLine=1009
1010   6D70 CA                           DEX                       ; OLine=1010 
1011   6D71                                                        
1012   6D71             loc_6D71:                                  ; OLine=1012
1013   6D71 86 0B                        STX      $B               ; OLine=1013 
1014   6D73 A6 0D                        LDX      $D               ; OLine=1014
1015   6D75 C9 80                        CMP      #$80             ; OLine=1015
1016   6D77 6A                           ROR      A                ; OLine=1016 
1017   6D78 18                           CLC                       ; OLine=1017
1018   6D79 65 0C                        ADC      $C               ; OLine=1018 
1019   6D7B 18                           CLC                       ; OLine=1019
1020   6D7C 7D ED 02                     ADC      $2ED,X           ; OLine=1020
1021   6D7F 99 ED 02                     STA      $2ED,Y           ; OLine=1021 
1022   6D82 A5 0B                        LDA      $B               ; OLine=1022
1023   6D84 7D A7 02                     ADC      $2A7,X           ; OLine=1023
1024   6D87 99 A7 02                     STA      $2A7,Y           ; OLine=1024 
1025   6D8A A9 80                        LDA      #$80             ; OLine=1025
1026   6D8C 95 66                        STA      $66,X            ; OLine=1026 
1027   6D8E 60                           RTS                       ; OLine=1027
1028   6D8F                                                        ;  End of function sub_6CD7
1029   6D8F                                                        
1030   6D8F                                                        ;  ---------------------------------------------------------------------------
1031   6D8F D8                           .BYTE    $D8              ; OLine=1031
1032   6D90                                                        
1033   6D90                                                        ;  ¦¦¦¦¦¦¦¦¦¦¦¦¦¦¦ S U B R O U T I N E ¦¦¦¦¦¦¦¦¦¦¦¦¦¦¦¦¦¦¦¦¦¦¦¦¦¦¦¦¦¦¦¦¦¦¦¦¦¦¦
1034   6D90                                                        
1035   6D90                                                        
1036   6D90             sub_6D90:                                  ; OLine=1036
1037   6D90 A5 32                        LDA      $32              ; OLine=1037 
1038   6D92 25 33                        AND      $33              ; OLine=1038
1039   6D94 10 01                        BPL      loc_6D97         ; OLine=1039 
1040   6D96 60                           RTS                       ; OLine=1040
1041   6D97                                                        ;  ---------------------------------------------------------------------------
1042   6D97                                                        
1043   6D97             loc_6D97:                                  ; OLine=1043
1044   6D97 A5 1A                        LDA      $1A              ; OLine=1044 
1045   6D99 4A                           LSR      A                ; OLine=1045
1046   6D9A F0 18                        BEQ      loc_6DB4         ; OLine=1046
1047   6D9C A0 01                        LDY      #1               ; OLine=1047  Offset For "PLAYER "
1048   6D9E 20 F6 77                     JSR      sub_77F6         ; OLine=1048  And Draw To Screen
1049   6DA1 A0 02                        LDY      #2               ; OLine=1049 
1050   6DA3 A6 33                        LDX      $33              ; OLine=1050 
1051   6DA5 10 01                        BPL      loc_6DA8         ; OLine=1051 
1052   6DA7 88                           DEY                       ; OLine=1052
1053   6DA8                                                        
1054   6DA8             loc_6DA8:                                  ; OLine=1054
1055   6DA8 84 18                        STY      $18              ; OLine=1055  Current Player
1056   6DAA A5 5C                        LDA      $5C              ; OLine=1056  Fast Timer
1057   6DAC 29 10                        AND      #$10             ; OLine=1057 
1058   6DAE D0 04                        BNE      loc_6DB4         ; OLine=1058 
1059   6DB0 98                           TYA                       ; OLine=1059 
1060   6DB1 20 D1 7B                     JSR      sub_7BD1         ; OLine=1060 
1061   6DB4                                                        
1062   6DB4             loc_6DB4:                                  ; OLine=1062
1063   6DB4                                                        
1064   6DB4 46 18                        LSR      $18              ; OLine=1064  Current Player
1065   6DB6 20 B2 73                     JSR      sub_73B2         ; OLine=1065 
1066   6DB9 A0 02                        LDY      #2               ; OLine=1066  Offset For "YOUR SCORE IS ONE OF THE TEN BEST"
1067   6DBB 20 F6 77                     JSR      sub_77F6         ; OLine=1067  And Draw It To Screen
1068   6DBE A0 03                        LDY      #3               ; OLine=1068  Offset For "PLEASE ENTER YOUR INITIALS"
1069   6DC0 20 F6 77                     JSR      sub_77F6         ; OLine=1069  And Draw It To Screen
1070   6DC3 A0 04                        LDY      #4               ; OLine=1070  Offset For "PUSH ROTATE TO SELECT LETTER"
1071   6DC5 20 F6 77                     JSR      sub_77F6         ; OLine=1071  And Draw It To Screen
1072   6DC8 A0 05                        LDY      #5               ; OLine=1072  Offset For "PUSH HYPERSPACE WHEN LETTER IS CORRECT"
1073   6DCA 20 F6 77                     JSR      sub_77F6         ; OLine=1073  And Draw It To Screen
1074   6DCD A9 20                        LDA      #$20             ; OLine=1074 
1075   6DCF 85 00                        STA      0                ; OLine=1075 
1076   6DD1 A9 64                        LDA      #$64             ; OLine=1076 
1077   6DD3 A2 39                        LDX      #$39             ; OLine=1077
1078   6DD5 20 03 7C                     JSR      sub_7C03         ; OLine=1078
1079   6DD8 A9 70                        LDA      #$70             ; OLine=1079
1080   6DDA 20 DE 7C                     JSR      sub_7CDE         ; OLine=1080
1081   6DDD A6 18                        LDX      $18              ; OLine=1081  Current Player
1082   6DDF B4 32                        LDY      $32,X            ; OLine=1082
1083   6DE1 84 0B                        STY      $B               ; OLine=1083 
1084   6DE3 98                           TYA                       ; OLine=1084
1085   6DE4 18                           CLC                       ; OLine=1085 
1086   6DE5 65 31                        ADC      $31              ; OLine=1086
1087   6DE7 85 0C                        STA      $C               ; OLine=1087
1088   6DE9 20 1A 6F                     JSR      sub_6F1A         ; OLine=1088 
1089   6DEC A4 0B                        LDY      $B               ; OLine=1089
1090   6DEE C8                           INY                       ; OLine=1090 
1091   6DEF 20 1A 6F                     JSR      sub_6F1A         ; OLine=1091
1092   6DF2 A4 0B                        LDY      $B               ; OLine=1092 
1093   6DF4 C8                           INY                       ; OLine=1093
1094   6DF5 C8                           INY                       ; OLine=1094 
1095   6DF6 20 1A 6F                     JSR      sub_6F1A         ; OLine=1095
1096   6DF9 AD 03 20                     LDA      $2003            ; OLine=1096  Hyperspace Switch
1097   6DFC 2A                           ROL      A                ; OLine=1097 
1098   6DFD 26 63                        ROL      $63              ; OLine=1098 
1099   6DFF A5 63                        LDA      $63              ; OLine=1099 
1100   6E01 29 1F                        AND      #$1F             ; OLine=1100 
1101   6E03 C9 07                        CMP      #7               ; OLine=1101 
1102   6E05 D0 27                        BNE      loc_6E2E         ; OLine=1102 
1103   6E07 E6 31                        INC      $31              ; OLine=1103
1104   6E09 A5 31                        LDA      $31              ; OLine=1104
1105   6E0B C9 03                        CMP      #3               ; OLine=1105 
1106   6E0D 90 13                        BCC      loc_6E22         ; OLine=1106
1107   6E0F A6 18                        LDX      $18              ; OLine=1107  Current Player
1108   6E11 A9 FF                        LDA      #$FF             ; OLine=1108 
1109   6E13 95 32                        STA      $32,X            ; OLine=1109 
1110   6E15                                                        
1111   6E15             loc_6E15:                                  ; OLine=1111
1112   6E15 A2 00                        LDX      #0               ; OLine=1112 
1113   6E17 86 18                        STX      $18              ; OLine=1113
1114   6E19 86 31                        STX      $31              ; OLine=1114 
1115   6E1B A2 F0                        LDX      #$F0             ; OLine=1115
1116   6E1D 86 5D                        STX      $5D              ; OLine=1116  Slow Timer
1117   6E1F 4C B2 73                     JMP      sub_73B2         ; OLine=1117
1118   6E22                                                        ;  ---------------------------------------------------------------------------
1119   6E22                                                        
1120   6E22             loc_6E22:                                  ; OLine=1120
1121   6E22 E6 0C                        INC      $C               ; OLine=1121 
1122   6E24 A6 0C                        LDX      $C               ; OLine=1122
1123   6E26 A9 F4                        LDA      #$F4             ; OLine=1123
1124   6E28 85 5D                        STA      $5D              ; OLine=1124  Slow Timer
1125   6E2A A9 0B                        LDA      #$B              ; OLine=1125
1126   6E2C 95 34                        STA      $34,X            ; OLine=1126 
1127   6E2E                                                        
1128   6E2E             loc_6E2E:                                  ; OLine=1128
1129   6E2E A5 5D                        LDA      $5D              ; OLine=1129  Slow Timer
1130   6E30 D0 08                        BNE      loc_6E3A         ; OLine=1130
1131   6E32 A9 FF                        LDA      #$FF             ; OLine=1131 
1132   6E34 85 32                        STA      $32              ; OLine=1132
1133   6E36 85 33                        STA      $33              ; OLine=1133 
1134   6E38 30 DB                        BMI      loc_6E15         ; OLine=1134
1135   6E3A                                                        
1136   6E3A             loc_6E3A:                                  ; OLine=1136
1137   6E3A A5 5C                        LDA      $5C              ; OLine=1137  Fast Timer
1138   6E3C 29 07                        AND      #7               ; OLine=1138
1139   6E3E D0 31                        BNE      loc_6E71         ; OLine=1139
1140   6E40 AD 07 24                     LDA      $2407            ; OLine=1140  Rotate Left Switch
1141   6E43 10 04                        BPL      loc_6E49         ; OLine=1141
1142   6E45 A9 01                        LDA      #1               ; OLine=1142
1143   6E47 D0 07                        BNE      loc_6E50         ; OLine=1143
1144   6E49                                                        
1145   6E49             loc_6E49:                                  ; OLine=1145
1146   6E49 AD 06 24                     LDA      $2406            ; OLine=1146  Rotate Right Switch
1147   6E4C 10 23                        BPL      loc_6E71         ; OLine=1147 
1148   6E4E A9 FF                        LDA      #$FF             ; OLine=1148 
1149   6E50                                                        
1150   6E50             loc_6E50:                                  ; OLine=1150
1151   6E50 A6 0C                        LDX      $C               ; OLine=1151 
1152   6E52 18                           CLC                       ; OLine=1152
1153   6E53 75 34                        ADC      $34,X            ; OLine=1153
1154   6E55 30 10                        BMI      loc_6E67         ; OLine=1154 
1155   6E57 C9 0B                        CMP      #$B              ; OLine=1155
1156   6E59 B0 0E                        BCS      loc_6E69         ; OLine=1156
1157   6E5B C9 01                        CMP      #1               ; OLine=1157 
1158   6E5D F0 04                        BEQ      loc_6E63         ; OLine=1158
1159   6E5F A9 00                        LDA      #0               ; OLine=1159
1160   6E61 F0 0C                        BEQ      loc_6E6F         ; OLine=1160
1161   6E63                                                        
1162   6E63             loc_6E63:                                  ; OLine=1162
1163   6E63 A9 0B                        LDA      #$B              ; OLine=1163 
1164   6E65 D0 08                        BNE      loc_6E6F         ; OLine=1164
1165   6E67                                                        
1166   6E67             loc_6E67:                                  ; OLine=1166
1167   6E67 A9 24                        LDA      #$24             ; OLine=1167 
1168   6E69                                                        
1169   6E69             loc_6E69:                                  ; OLine=1169
1170   6E69 C9 25                        CMP      #$25             ; OLine=1170 
1171   6E6B 90 02                        BCC      loc_6E6F         ; OLine=1171
1172   6E6D A9 00                        LDA      #0               ; OLine=1172 
1173   6E6F                                                        
1174   6E6F             loc_6E6F:                                  ; OLine=1174
1175   6E6F                                                        
1176   6E6F 95 34                        STA      $34,X            ; OLine=1176 
1177   6E71                                                        
1178   6E71             loc_6E71:                                  ; OLine=1178
1179   6E71                                                        
1180   6E71 A9 00                        LDA      #0               ; OLine=1180 
1181   6E73 60                           RTS                       ; OLine=1181
1182   6E74                                                        ;  End of function sub_6D90
1183   6E74                                                        
1184   6E74                                                        
1185   6E74                                                        ;  ¦¦¦¦¦¦¦¦¦¦¦¦¦¦¦ S U B R O U T I N E ¦¦¦¦¦¦¦¦¦¦¦¦¦¦¦¦¦¦¦¦¦¦¦¦¦¦¦¦¦¦¦¦¦¦¦¦¦¦¦
1186   6E74                                                        
1187   6E74                                                        
1188   6E74             sub_6E74:                                  ; OLine=1188
1189   6E74 A5 1C                        LDA      $1C              ; OLine=1189  Number Of Players In Current Game
1190   6E76 F0 5F                        BEQ      locret_6ED7      ; OLine=1190  None, Branch
1191   6E78 AD 1B 02                     LDA      $21B             ; OLine=1191  Player Flag
1192   6E7B 30 5A                        BMI      locret_6ED7      ; OLine=1192  Branch If Currently Exploding
1193   6E7D AD FA 02                     LDA      $2FA             ; OLine=1193 
1194   6E80 D0 55                        BNE      locret_6ED7      ; OLine=1194 
1195   6E82 AD 03 20                     LDA      $2003            ; OLine=1195  Hyperspace Switch
1196   6E85 10 50                        BPL      locret_6ED7      ; OLine=1196  Branch If NOT Pressed
1197   6E87 A9 00                        LDA      #0               ; OLine=1197 
1198   6E89 8D 1B 02                     STA      $21B             ; OLine=1198 
1199   6E8C 8D 3E 02                     STA      $23E             ; OLine=1199 
1200   6E8F 8D 61 02                     STA      $261             ; OLine=1200 
1201   6E92 A9 30                        LDA      #$30             ; OLine=1201 
1202   6E94 8D FA 02                     STA      $2FA             ; OLine=1202 
1203   6E97 20 B5 77                     JSR      sub_77B5         ; OLine=1203 
1204   6E9A 29 1F                        AND      #$1F             ; OLine=1204 
1205   6E9C C9 1D                        CMP      #$1D             ; OLine=1205 
1206   6E9E 90 02                        BCC      loc_6EA2         ; OLine=1206 
1207   6EA0 A9 1C                        LDA      #$1C             ; OLine=1207 
1208   6EA2                                                        
1209   6EA2             loc_6EA2:                                  ; OLine=1209
1210   6EA2 C9 03                        CMP      #3               ; OLine=1210 
1211   6EA4 B0 02                        BCS      loc_6EA8         ; OLine=1211 
1212   6EA6 A9 03                        LDA      #3               ; OLine=1212 
1213   6EA8                                                        
1214   6EA8             loc_6EA8:                                  ; OLine=1214
1215   6EA8 8D 84 02                     STA      $284             ; OLine=1215 
1216   6EAB A2 05                        LDX      #5               ; OLine=1216 
1217   6EAD                                                        
1218   6EAD             loc_6EAD:                                  ; OLine=1218
1219   6EAD 20 B5 77                     JSR      sub_77B5         ; OLine=1219 
1220   6EB0 CA                           DEX                       ; OLine=1220 
1221   6EB1 D0 FA                        BNE      loc_6EAD         ; OLine=1221 
1222   6EB3 29 1F                        AND      #$1F             ; OLine=1222 
1223   6EB5 E8                           INX                       ; OLine=1223  Assume Success ( X = 1 At This Point )
1224   6EB6 C9 18                        CMP      #$18             ; OLine=1224 
1225   6EB8 90 0C                        BCC      loc_6EC6         ; OLine=1225 
1226   6EBA 29 07                        AND      #7               ; OLine=1226 
1227   6EBC 0A                           ASL      A                ; OLine=1227 
1228   6EBD 69 04                        ADC      #4               ; OLine=1228 
1229   6EBF CD F6 02                     CMP      $2F6             ; OLine=1229 
1230   6EC2 90 02                        BCC      loc_6EC6         ; OLine=1230 
1231   6EC4 A2 80                        LDX      #$80             ; OLine=1231  Flag Hyperspace Unsuccessful
1232   6EC6                                                        
1233   6EC6             loc_6EC6:                                  ; OLine=1233
1234   6EC6                                                        
1235   6EC6 C9 15                        CMP      #$15             ; OLine=1235 
1236   6EC8 90 02                        BCC      loc_6ECC         ; OLine=1236 
1237   6ECA A9 14                        LDA      #$14             ; OLine=1237 
1238   6ECC                                                        
1239   6ECC             loc_6ECC:                                  ; OLine=1239
1240   6ECC C9 03                        CMP      #3               ; OLine=1240 
1241   6ECE B0 02                        BCS      loc_6ED2         ; OLine=1241 
1242   6ED0 A9 03                        LDA      #3               ; OLine=1242 
1243   6ED2                                                        
1244   6ED2             loc_6ED2:                                  ; OLine=1244
1245   6ED2 8D A7 02                     STA      $2A7             ; OLine=1245 
1246   6ED5 86 59                        STX      $59              ; OLine=1246  Hyperspace Flag
1247   6ED7                                                        
1248   6ED7             locret_6ED7:                               ; OLine=1248
1249   6ED7                                                        
1250   6ED7 60                           RTS                       ; OLine=1250 
1251   6ED8                                                        ;  End of function sub_6E74
1252   6ED8                                                        
1253   6ED8                                                        
1254   6ED8                                                        ;  ¦¦¦¦¦¦¦¦¦¦¦¦¦¦¦ S U B R O U T I N E ¦¦¦¦¦¦¦¦¦¦¦¦¦¦¦¦¦¦¦¦¦¦¦¦¦¦¦¦¦¦¦¦¦¦¦¦¦¦¦
1255   6ED8                                                        
1256   6ED8                                                        
1257   6ED8             sub_6ED8:                                  ; OLine=1257
1258   6ED8                                                        
1259   6ED8 A9 02                        LDA      #2               ; OLine=1259 
1260   6EDA 8D F5 02                     STA      $2F5             ; OLine=1260 
1261   6EDD A2 03                        LDX      #3               ; OLine=1261  Assume A 3 Ship Game
1262   6EDF 4E 02 28                     LSR      $2802            ; OLine=1262  Shift Number Of Starting Ships Bit To Carry
1263   6EE2 B0 01                        BCS      loc_6EE5         ; OLine=1263  3 Ship Game
1264   6EE4 E8                           INX                       ; OLine=1264  4 Ship Game
1265   6EE5                                                        
1266   6EE5             loc_6EE5:                                  ; OLine=1266
1267   6EE5 86 56                        STX      $56              ; OLine=1267 
1268   6EE7 A9 00                        LDA      #0               ; OLine=1268 
1269   6EE9 A2 04                        LDX      #4               ; OLine=1269 
1270   6EEB                                                        
1271   6EEB             loc_6EEB:                                  ; OLine=1271
1272   6EEB 9D 1B 02                     STA      $21B,X           ; OLine=1272 
1273   6EEE 9D 1F 02                     STA      $21F,X           ; OLine=1273
1274   6EF1 95 51                        STA      $51,X            ; OLine=1274  *BUG* Should Be $52,X
1275   6EF3 CA                           DEX                       ; OLine=1275
1276   6EF4 10 F5                        BPL      loc_6EEB         ; OLine=1276 
1277   6EF6 8D F6 02                     STA      $2F6             ; OLine=1277
1278   6EF9 60                           RTS                       ; OLine=1278 
1279   6EFA                                                        ;  End of function sub_6ED8
1280   6EFA                                                        
1281   6EFA                                                        
1282   6EFA                                                        ;  ¦¦¦¦¦¦¦¦¦¦¦¦¦¦¦ S U B R O U T I N E ¦¦¦¦¦¦¦¦¦¦¦¦¦¦¦¦¦¦¦¦¦¦¦¦¦¦¦¦¦¦¦¦¦¦¦¦¦¦¦
1283   6EFA                                                        
1284   6EFA                                                        
1285   6EFA             sub_6EFA:                                  ; OLine=1285
1286   6EFA                                                        
1287   6EFA A9 00                        LDA      #0               ; OLine=1287 
1288   6EFC 8D 00 36                     STA      $3600            ; OLine=1288
1289   6EFF 8D 00 3A                     STA      $3A00            ; OLine=1289
1290   6F02 8D 00 3C                     STA      $3C00            ; OLine=1290 
1291   6F05 8D 01 3C                     STA      $3C01            ; OLine=1291
1292   6F08 8D 03 3C                     STA      $3C03            ; OLine=1292
1293   6F0B 8D 04 3C                     STA      $3C04            ; OLine=1293
1294   6F0E 8D 05 3C                     STA      $3C05            ; OLine=1294 
1295   6F11 85 69                        STA      $69              ; OLine=1295
1296   6F13 85 66                        STA      $66              ; OLine=1296
1297   6F15 85 67                        STA      $67              ; OLine=1297
1298   6F17 85 68                        STA      $68              ; OLine=1298 
1299   6F19 60                           RTS                       ; OLine=1299
1300   6F1A                                                        ;  End of function sub_6EFA
1301   6F1A                                                        
1302   6F1A                                                        
1303   6F1A                                                        ;  ¦¦¦¦¦¦¦¦¦¦¦¦¦¦¦ S U B R O U T I N E ¦¦¦¦¦¦¦¦¦¦¦¦¦¦¦¦¦¦¦¦¦¦¦¦¦¦¦¦¦¦¦¦¦¦¦¦¦¦¦
1304   6F1A                                                        
1305   6F1A                                                        
1306   6F1A             sub_6F1A:                                  ; OLine=1306
1307   6F1A                                                        
1308   6F1A B9 34 00                     LDA      $34,Y            ; OLine=1308 
1309   6F1D 0A                           ASL      A                ; OLine=1309
1310   6F1E A8                           TAY                       ; OLine=1310
1311   6F1F D0 14                        BNE      sub_6F35         ; OLine=1311 
1312   6F21 A5 32                        LDA      $32              ; OLine=1312
1313   6F23 25 33                        AND      $33              ; OLine=1313
1314   6F25 30 0E                        BMI      sub_6F35         ; OLine=1314 
1315   6F27 A9 72                        LDA      #$72             ; OLine=1315
1316   6F29 A2 F8                        LDX      #$F8             ; OLine=1316 
1317   6F2B 20 45 7D                     JSR      sub_7D45         ; OLine=1317
1318   6F2E A9 01                        LDA      #1               ; OLine=1318 
1319   6F30 A2 F8                        LDX      #$F8             ; OLine=1319
1320   6F32 4C 45 7D                     JMP      sub_7D45         ; OLine=1320 
1321   6F35                                                        ;  End of function sub_6F1A
1322   6F35                                                        
1323   6F35                                                        
1324   6F35                                                        ;  ¦¦¦¦¦¦¦¦¦¦¦¦¦¦¦ S U B R O U T I N E ¦¦¦¦¦¦¦¦¦¦¦¦¦¦¦¦¦¦¦¦¦¦¦¦¦¦¦¦¦¦¦¦¦¦¦¦¦¦¦
1325   6F35                                                        
1326   6F35                                                        
1327   6F35             sub_6F35:                                  ; OLine=1327
1328   6F35                                                        
1329   6F35 BE D5 56                     LDX      $56D5,Y          ; OLine=1329 
1330   6F38 B9 D4 56                     LDA      $56D4,Y          ; OLine=1330
1331   6F3B 4C 45 7D                     JMP      sub_7D45         ; OLine=1331 
1332   6F3E                                                        ;  End of function sub_6F35
1333   6F3E                                                        
1334   6F3E                                                        
1335   6F3E                                                        ;  ¦¦¦¦¦¦¦¦¦¦¦¦¦¦¦ S U B R O U T I N E ¦¦¦¦¦¦¦¦¦¦¦¦¦¦¦¦¦¦¦¦¦¦¦¦¦¦¦¦¦¦¦¦¦¦¦¦¦¦¦
1336   6F3E                                                        
1337   6F3E                                                        
1338   6F3E             sub_6F3E:                                  ; OLine=1338
1339   6F3E                                                        
1340   6F3E F0 16                        BEQ      locret_6F56      ; OLine=1340 
1341   6F40 84 08                        STY      8                ; OLine=1341
1342   6F42 A2 D5                        LDX      #$D5             ; OLine=1342
1343   6F44 A0 E0                        LDY      #$E0             ; OLine=1343 
1344   6F46 84 00                        STY      0                ; OLine=1344
1345   6F48 20 03 7C                     JSR      sub_7C03         ; OLine=1345
1346   6F4B                                                        
1347   6F4B             loc_6F4B:                                  ; OLine=1347
1348   6F4B A2 DA                        LDX      #$DA             ; OLine=1348 
1349   6F4D A9 54                        LDA      #$54             ; OLine=1349
1350   6F4F 20 FC 7B                     JSR      sub_7BFC         ; OLine=1350
1351   6F52 C6 08                        DEC      8                ; OLine=1351 
1352   6F54 D0 F5                        BNE      loc_6F4B         ; OLine=1352
1353   6F56                                                        
1354   6F56             locret_6F56:                               ; OLine=1354
1355   6F56 60                           RTS                       ; OLine=1355 
1356   6F57                                                        ;  End of function sub_6F3E
1357   6F57                                                        
1358   6F57                                                        
1359   6F57                                                        ;  ¦¦¦¦¦¦¦¦¦¦¦¦¦¦¦ S U B R O U T I N E ¦¦¦¦¦¦¦¦¦¦¦¦¦¦¦¦¦¦¦¦¦¦¦¦¦¦¦¦¦¦¦¦¦¦¦¦¦¦¦
1360   6F57                                                        
1361   6F57                                                        
1362   6F57             sub_6F57:                                  ; OLine=1362
1363   6F57 A2 22                        LDX      #$22             ; OLine=1363 
1364   6F59                                                        
1365   6F59             loc_6F59:                                  ; OLine=1365
1366   6F59 BD 00 02                     LDA      $200,X           ; OLine=1366
1367   6F5C D0 04                        BNE      loc_6F62         ; OLine=1367 
1368   6F5E                                                        
1369   6F5E             loc_6F5E:                                  ; OLine=1369
1370   6F5E                                                        
1371   6F5E CA                           DEX                       ; OLine=1371 
1372   6F5F 10 F8                        BPL      loc_6F59         ; OLine=1372
1373   6F61 60                           RTS                       ; OLine=1373 
1374   6F62                                                        ;  ---------------------------------------------------------------------------
1375   6F62                                                        
1376   6F62             loc_6F62:                                  ; OLine=1376
1377   6F62 10 63                        BPL      loc_6FC7         ; OLine=1377 
1378   6F64 20 08 77                     JSR      sub_7708         ; OLine=1378 
1379   6F67 4A                           LSR      A                ; OLine=1379
1380   6F68 4A                           LSR      A                ; OLine=1380 
1381   6F69 4A                           LSR      A                ; OLine=1381
1382   6F6A 4A                           LSR      A                ; OLine=1382
1383   6F6B E0 1B                        CPX      #$1B             ; OLine=1383 
1384   6F6D D0 07                        BNE      loc_6F76         ; OLine=1384 
1385   6F6F A5 5C                        LDA      $5C              ; OLine=1385 
1386   6F71 29 01                        AND      #1               ; OLine=1386 
1387   6F73 4A                           LSR      A                ; OLine=1387
1388   6F74 F0 01                        BEQ      loc_6F77         ; OLine=1388 
1389   6F76                                                        
1390   6F76             loc_6F76:                                  ; OLine=1390
1391   6F76 38                           SEC                       ; OLine=1391 
1392   6F77                                                        
1393   6F77             loc_6F77:                                  ; OLine=1393
1394   6F77 7D 00 02                     ADC      $200,X           ; OLine=1394
1395   6F7A 30 25                        BMI      loc_6FA1         ; OLine=1395 
1396   6F7C E0 1B                        CPX      #$1B             ; OLine=1396
1397   6F7E F0 13                        BEQ      loc_6F93         ; OLine=1397
1398   6F80 B0 17                        BCS      loc_6F99         ; OLine=1398 
1399   6F82 CE F6 02                     DEC      $2F6             ; OLine=1399
1400   6F85 D0 05                        BNE      loc_6F8C         ; OLine=1400
1401   6F87 A0 7F                        LDY      #$7F             ; OLine=1401 
1402   6F89 8C FB 02                     STY      $2FB             ; OLine=1402 
1403   6F8C                                                        
1404   6F8C             loc_6F8C:                                  ; OLine=1404
1405   6F8C                                                        
1406   6F8C A9 00                        LDA      #0               ; OLine=1406 
1407   6F8E 9D 00 02                     STA      $200,X           ; OLine=1407
1408   6F91 F0 CB                        BEQ      loc_6F5E         ; OLine=1408 
1409   6F93                                                        
1410   6F93             loc_6F93:                                  ; OLine=1410
1411   6F93 20 E8 71                     JSR      sub_71E8         ; OLine=1411 
1412   6F96 4C 8C 6F                     JMP      loc_6F8C         ; OLine=1412 
1413   6F99                                                        ;  ---------------------------------------------------------------------------
1414   6F99                                                        
1415   6F99             loc_6F99:                                  ; OLine=1415
1416   6F99 AD F8 02                     LDA      $2F8             ; OLine=1416 
1417   6F9C 8D F7 02                     STA      $2F7             ; OLine=1417  Countdown Timer For When Saucer Appears
1418   6F9F D0 EB                        BNE      loc_6F8C         ; OLine=1418 
1419   6FA1                                                        
1420   6FA1             loc_6FA1:                                  ; OLine=1420
1421   6FA1 9D 00 02                     STA      $200,X           ; OLine=1421 
1422   6FA4 29 F0                        AND      #$F0             ; OLine=1422 
1423   6FA6 18                           CLC                       ; OLine=1423 
1424   6FA7 69 10                        ADC      #$10             ; OLine=1424 
1425   6FA9 E0 1B                        CPX      #$1B             ; OLine=1425
1426   6FAB D0 02                        BNE      loc_6FAF         ; OLine=1426
1427   6FAD A9 00                        LDA      #0               ; OLine=1427 
1428   6FAF                                                        
1429   6FAF             loc_6FAF:                                  ; OLine=1429
1430   6FAF A8                           TAY                       ; OLine=1430 
1431   6FB0 BD AF 02                     LDA      $2AF,X           ; OLine=1431
1432   6FB3 85 04                        STA      4                ; OLine=1432
1433   6FB5 BD 69 02                     LDA      $269,X           ; OLine=1433 
1434   6FB8 85 05                        STA      5                ; OLine=1434
1435   6FBA BD D2 02                     LDA      $2D2,X           ; OLine=1435
1436   6FBD 85 06                        STA      6                ; OLine=1436 
1437   6FBF BD 8C 02                     LDA      $28C,X           ; OLine=1437
1438   6FC2 85 07                        STA      7                ; OLine=1438
1439   6FC4 4C 27 70                     JMP      loc_7027         ; OLine=1439 
1440   6FC7                                                        ;  ---------------------------------------------------------------------------
1441   6FC7                                                        
1442   6FC7             loc_6FC7:                                  ; OLine=1442
1443   6FC7 18                           CLC                       ; OLine=1443 
1444   6FC8 A0 00                        LDY      #0               ; OLine=1444
1445   6FCA BD 23 02                     LDA      $223,X           ; OLine=1445
1446   6FCD 10 01                        BPL      loc_6FD0         ; OLine=1446 
1447   6FCF 88                           DEY                       ; OLine=1447
1448   6FD0                                                        
1449   6FD0             loc_6FD0:                                  ; OLine=1449
1450   6FD0 7D AF 02                     ADC      $2AF,X           ; OLine=1450 
1451   6FD3 9D AF 02                     STA      $2AF,X           ; OLine=1451
1452   6FD6 85 04                        STA      4                ; OLine=1452
1453   6FD8 98                           TYA                       ; OLine=1453 
1454   6FD9 7D 69 02                     ADC      $269,X           ; OLine=1454
1455   6FDC C9 20                        CMP      #$20             ; OLine=1455
1456   6FDE 90 0C                        BCC      loc_6FEC         ; OLine=1456 
1457   6FE0 29 1F                        AND      #$1F             ; OLine=1457
1458   6FE2 E0 1C                        CPX      #$1C             ; OLine=1458
1459   6FE4 D0 06                        BNE      loc_6FEC         ; OLine=1459 
1460   6FE6 20 2D 70                     JSR      sub_702D         ; OLine=1460
1461   6FE9 4C 5E 6F                     JMP      loc_6F5E         ; OLine=1461 
1462   6FEC                                                        ;  ---------------------------------------------------------------------------
1463   6FEC                                                        
1464   6FEC             loc_6FEC:                                  ; OLine=1464
1465   6FEC                                                        
1466   6FEC 9D 69 02                     STA      $269,X           ; OLine=1466 
1467   6FEF 85 05                        STA      5                ; OLine=1467
1468   6FF1 18                           CLC                       ; OLine=1468
1469   6FF2 A0 00                        LDY      #0               ; OLine=1469 
1470   6FF4 BD 46 02                     LDA      $246,X           ; OLine=1470
1471   6FF7 10 02                        BPL      loc_6FFB         ; OLine=1471
1472   6FF9 A0 FF                        LDY      #$FF             ; OLine=1472 
1473   6FFB                                                        
1474   6FFB             loc_6FFB:                                  ; OLine=1474
1475   6FFB 7D D2 02                     ADC      $2D2,X           ; OLine=1475
1476   6FFE 9D D2 02                     STA      $2D2,X           ; OLine=1476 
1477   7001 85 06                        STA      6                ; OLine=1477
1478   7003 98                           TYA                       ; OLine=1478
1479   7004 7D 8C 02                     ADC      $28C,X           ; OLine=1479
1480   7007 C9 18                        CMP      #$18             ; OLine=1480 
1481   7009 90 08                        BCC      loc_7013         ; OLine=1481
1482   700B F0 04                        BEQ      loc_7011         ; OLine=1482
1483   700D A9 17                        LDA      #$17             ; OLine=1483
1484   700F D0 02                        BNE      loc_7013         ; OLine=1484 
1485   7011                                                        
1486   7011             loc_7011:                                  ; OLine=1486
1487   7011 A9 00                        LDA      #0               ; OLine=1487 
1488   7013                                                        
1489   7013             loc_7013:                                  ; OLine=1489
1490   7013                                                        
1491   7013 9D 8C 02                     STA      $28C,X           ; OLine=1491 
1492   7016 85 07                        STA      7                ; OLine=1492 
1493   7018 BD 00 02                     LDA      $200,X           ; OLine=1493
1494   701B A0 E0                        LDY      #$E0             ; OLine=1494
1495   701D 4A                           LSR      A                ; OLine=1495 
1496   701E B0 07                        BCS      loc_7027         ; OLine=1496
1497   7020 A0 F0                        LDY      #$F0             ; OLine=1497
1498   7022 4A                           LSR      A                ; OLine=1498
1499   7023 B0 02                        BCS      loc_7027         ; OLine=1499 
1500   7025 A0 00                        LDY      #0               ; OLine=1500 
1501   7027                                                        
1502   7027             loc_7027:                                  ; OLine=1502
1503   7027                                                        
1504   7027 20 FE 72                     JSR      sub_72FE         ; OLine=1504 
1505   702A 4C 5E 6F                     JMP      loc_6F5E         ; OLine=1505 
1506   702D                                                        ;  End of function sub_6F57
1507   702D                                                        
1508   702D                                                        
1509   702D                                                        ;  ¦¦¦¦¦¦¦¦¦¦¦¦¦¦¦ S U B R O U T I N E ¦¦¦¦¦¦¦¦¦¦¦¦¦¦¦¦¦¦¦¦¦¦¦¦¦¦¦¦¦¦¦¦¦¦¦¦¦¦¦
1510   702D                                                        
1511   702D                                                        
1512   702D             sub_702D:                                  ; OLine=1512
1513   702D                                                        
1514   702D AD F8 02                     LDA      $2F8             ; OLine=1514  Starting Value For Timer @ $02F7
1515   7030 8D F7 02                     STA      $2F7             ; OLine=1515  Countdown Timer For When Saucer Appears
1516   7033 A9 00                        LDA      #0               ; OLine=1516
1517   7035 8D 1C 02                     STA      $21C             ; OLine=1517  Saucer Flag
1518   7038 8D 3F 02                     STA      $23F             ; OLine=1518 
1519   703B 8D 62 02                     STA      $262             ; OLine=1519
1520   703E 60                           RTS                       ; OLine=1520 
1521   703F                                                        ;  End of function sub_702D
1522   703F                                                        
1523   703F                                                        
1524   703F                                                        ;  ¦¦¦¦¦¦¦¦¦¦¦¦¦¦¦ S U B R O U T I N E ¦¦¦¦¦¦¦¦¦¦¦¦¦¦¦¦¦¦¦¦¦¦¦¦¦¦¦¦¦¦¦¦¦¦¦¦¦¦¦
1525   703F                                                        
1526   703F                                                        
1527   703F             sub_703F:                                  ; OLine=1527
1528   703F A5 1C                        LDA      $1C              ; OLine=1528  Number Of Players In Current Game
1529   7041 F0 42                        BEQ      locret_7085      ; OLine=1529  None, Branch
1530   7043 AD 1B 02                     LDA      $21B             ; OLine=1530  Player Flag
1531   7046 30 3D                        BMI      locret_7085      ; OLine=1531  Branch If Currently Exploding
1532   7048 AD FA 02                     LDA      $2FA             ; OLine=1532 
1533   704B F0 39                        BEQ      loc_7086         ; OLine=1533 
1534   704D CE FA 02                     DEC      $2FA             ; OLine=1534 
1535   7050 D0 33                        BNE      locret_7085      ; OLine=1535 
1536   7052 A4 59                        LDY      $59              ; OLine=1536  Hyperspace Flag
1537   7054 30 19                        BMI      loc_706F         ; OLine=1537  Gonna Die From Hyperspace, Branch
1538   7056 D0 10                        BNE      loc_7068         ; OLine=1538  Successful Hyperspace, Branch
1539   7058 20 39 71                     JSR      sub_7139         ; OLine=1539 
1540   705B D0 24                        BNE      loc_7081         ; OLine=1540 
1541   705D AC 1C 02                     LDY      $21C             ; OLine=1541 
1542   7060 F0 06                        BEQ      loc_7068         ; OLine=1542 
1543   7062 A0 02                        LDY      #2               ; OLine=1543 
1544   7064 8C FA 02                     STY      $2FA             ; OLine=1544 
1545   7067 60                           RTS                       ; OLine=1545 
1546   7068                                                        ;  ---------------------------------------------------------------------------
1547   7068                                                        
1548   7068             loc_7068:                                  ; OLine=1548
1549   7068                                                        
1550   7068 A9 01                        LDA      #1               ; OLine=1550  Flag Ship OK
1551   706A 8D 1B 02                     STA      $21B             ; OLine=1551 
1552   706D D0 12                        BNE      loc_7081         ; OLine=1552  Will Always Branch
1553   706F                                                        
1554   706F             loc_706F:                                  ; OLine=1554
1555   706F A9 A0                        LDA      #$A0             ; OLine=1555  Switch To Explosion Timer
1556   7071 8D 1B 02                     STA      $21B             ; OLine=1556 
1557   7074 A2 3E                        LDX      #$3E             ; OLine=1557 
1558   7076 86 69                        STX      $69              ; OLine=1558 
1559   7078 A6 18                        LDX      $18              ; OLine=1559  Current Player
1560   707A D6 57                        DEC      $57,X            ; OLine=1560  Subtract Ship
1561   707C A9 81                        LDA      #$81             ; OLine=1561
1562   707E 8D FA 02                     STA      $2FA             ; OLine=1562 
1563   7081                                                        
1564   7081             loc_7081:                                  ; OLine=1564
1565   7081                                                        
1566   7081 A9 00                        LDA      #0               ; OLine=1566 
1567   7083 85 59                        STA      $59              ; OLine=1567
1568   7085                                                        
1569   7085             locret_7085:                               ; OLine=1569
1570   7085                                                        
1571   7085 60                           RTS                       ; OLine=1571 
1572   7086                                                        ;  ---------------------------------------------------------------------------
1573   7086                                                        
1574   7086             loc_7086:                                  ; OLine=1574
1575   7086 AD 07 24                     LDA      $2407            ; OLine=1575  Rotate Left Switch
1576   7089 10 04                        BPL      loc_708F         ; OLine=1576  Branch If NOT Pressed
1577   708B A9 03                        LDA      #3               ; OLine=1577 
1578   708D D0 07                        BNE      loc_7096         ; OLine=1578  Will Always Branch
1579   708F                                                        
1580   708F             loc_708F:                                  ; OLine=1580
1581   708F AD 06 24                     LDA      $2406            ; OLine=1581  Rotate Right Switch
1582   7092 10 07                        BPL      loc_709B         ; OLine=1582  Branch If NOT Pressed
1583   7094 A9 FD                        LDA      #$FD             ; OLine=1583 
1584   7096                                                        
1585   7096             loc_7096:                                  ; OLine=1585
1586   7096 18                           CLC                       ; OLine=1586 
1587   7097 65 61                        ADC      $61              ; OLine=1587  Current Ship Direction
1588   7099 85 61                        STA      $61              ; OLine=1588 
1589   709B                                                        
1590   709B             loc_709B:                                  ; OLine=1590
1591   709B A5 5C                        LDA      $5C              ; OLine=1591  Fast Timer
1592   709D 4A                           LSR      A                ; OLine=1592 
1593   709E B0 E5                        BCS      locret_7085      ; OLine=1593 
1594   70A0 AD 05 24                     LDA      $2405            ; OLine=1594  Thrust Switch
1595   70A3 10 3C                        BPL      loc_70E1         ; OLine=1595  Branch If NOT Pressed
1596   70A5 A9 80                        LDA      #$80             ; OLine=1596 
1597   70A7 8D 03 3C                     STA      $3C03            ; OLine=1597  Ship Thrust Sound
1598   70AA A0 00                        LDY      #0               ; OLine=1598 
1599   70AC A5 61                        LDA      $61              ; OLine=1599  Current Ship Direction
1600   70AE 20 D2 77                     JSR      sub_77D2         ; OLine=1600 
1601   70B1 10 01                        BPL      loc_70B4         ; OLine=1601
1602   70B3 88                           DEY                       ; OLine=1602 
1603   70B4                                                        
1604   70B4             loc_70B4:                                  ; OLine=1604
1605   70B4 0A                           ASL      A                ; OLine=1605 
1606   70B5 18                           CLC                       ; OLine=1606
1607   70B6 65 64                        ADC      $64              ; OLine=1607
1608   70B8 AA                           TAX                       ; OLine=1608
1609   70B9 98                           TYA                       ; OLine=1609 
1610   70BA 6D 3E 02                     ADC      $23E             ; OLine=1610
1611   70BD 20 25 71                     JSR      sub_7125         ; OLine=1611
1612   70C0 8D 3E 02                     STA      $23E             ; OLine=1612
1613   70C3 86 64                        STX      $64              ; OLine=1613 
1614   70C5 A0 00                        LDY      #0               ; OLine=1614
1615   70C7 A5 61                        LDA      $61              ; OLine=1615
1616   70C9 20 D5 77                     JSR      sub_77D5         ; OLine=1616 
1617   70CC 10 01                        BPL      loc_70CF         ; OLine=1617
1618   70CE 88                           DEY                       ; OLine=1618 
1619   70CF                                                        
1620   70CF             loc_70CF:                                  ; OLine=1620
1621   70CF 0A                           ASL      A                ; OLine=1621 
1622   70D0 18                           CLC                       ; OLine=1622
1623   70D1 65 65                        ADC      $65              ; OLine=1623
1624   70D3 AA                           TAX                       ; OLine=1624 
1625   70D4 98                           TYA                       ; OLine=1625
1626   70D5 6D 61 02                     ADC      $261             ; OLine=1626
1627   70D8 20 25 71                     JSR      sub_7125         ; OLine=1627 
1628   70DB 8D 61 02                     STA      $261             ; OLine=1628
1629   70DE 86 65                        STX      $65              ; OLine=1629
1630   70E0 60                           RTS                       ; OLine=1630 
1631   70E1                                                        ;  ---------------------------------------------------------------------------
1632   70E1                                                        
1633   70E1             loc_70E1:                                  ; OLine=1633
1634   70E1 A9 00                        LDA      #0               ; OLine=1634 
1635   70E3 8D 03 3C                     STA      $3C03            ; OLine=1635  Ship Thrust Sound
1636   70E6 AD 3E 02                     LDA      $23E             ; OLine=1636
1637   70E9 05 64                        ORA      $64              ; OLine=1637
1638   70EB F0 18                        BEQ      loc_7105         ; OLine=1638
1639   70ED AD 3E 02                     LDA      $23E             ; OLine=1639 
1640   70F0 0A                           ASL      A                ; OLine=1640
1641   70F1 A2 FF                        LDX      #$FF             ; OLine=1641
1642   70F3 18                           CLC                       ; OLine=1642
1643   70F4 49 FF                        EOR      #$FF             ; OLine=1643 
1644   70F6 30 02                        BMI      loc_70FA         ; OLine=1644
1645   70F8 E8                           INX                       ; OLine=1645
1646   70F9 38                           SEC                       ; OLine=1646 
1647   70FA                                                        
1648   70FA             loc_70FA:                                  ; OLine=1648
1649   70FA 65 64                        ADC      $64              ; OLine=1649
1650   70FC 85 64                        STA      $64              ; OLine=1650 
1651   70FE 8A                           TXA                       ; OLine=1651
1652   70FF 6D 3E 02                     ADC      $23E             ; OLine=1652
1653   7102 8D 3E 02                     STA      $23E             ; OLine=1653 
1654   7105                                                        
1655   7105             loc_7105:                                  ; OLine=1655
1656   7105 A5 65                        LDA      $65              ; OLine=1656 
1657   7107 0D 61 02                     ORA      $261             ; OLine=1657
1658   710A F0 18                        BEQ      locret_7124      ; OLine=1658
1659   710C AD 61 02                     LDA      $261             ; OLine=1659 
1660   710F 0A                           ASL      A                ; OLine=1660
1661   7110 A2 FF                        LDX      #$FF             ; OLine=1661
1662   7112 18                           CLC                       ; OLine=1662
1663   7113 49 FF                        EOR      #$FF             ; OLine=1663 
1664   7115 30 02                        BMI      loc_7119         ; OLine=1664
1665   7117 38                           SEC                       ; OLine=1665
1666   7118 E8                           INX                       ; OLine=1666 
1667   7119                                                        
1668   7119             loc_7119:                                  ; OLine=1668
1669   7119 65 65                        ADC      $65              ; OLine=1669
1670   711B 85 65                        STA      $65              ; OLine=1670 
1671   711D 8A                           TXA                       ; OLine=1671
1672   711E 6D 61 02                     ADC      $261             ; OLine=1672
1673   7121 8D 61 02                     STA      $261             ; OLine=1673 
1674   7124                                                        
1675   7124             locret_7124:                               ; OLine=1675
1676   7124 60                           RTS                       ; OLine=1676 
1677   7125                                                        ;  End of function sub_703F
1678   7125                                                        
1679   7125                                                        
1680   7125                                                        ;  ¦¦¦¦¦¦¦¦¦¦¦¦¦¦¦ S U B R O U T I N E ¦¦¦¦¦¦¦¦¦¦¦¦¦¦¦¦¦¦¦¦¦¦¦¦¦¦¦¦¦¦¦¦¦¦¦¦¦¦¦
1681   7125                                                        
1682   7125                                                        
1683   7125             sub_7125:                                  ; OLine=1683
1684   7125                                                        
1685   7125 30 09                        BMI      loc_7130         ; OLine=1685 
1686   7127 C9 40                        CMP      #$40             ; OLine=1686
1687   7129 90 0D                        BCC      locret_7138      ; OLine=1687
1688   712B A2 FF                        LDX      #$FF             ; OLine=1688 
1689   712D A9 3F                        LDA      #$3F             ; OLine=1689
1690   712F 60                           RTS                       ; OLine=1690 
1691   7130                                                        ;  ---------------------------------------------------------------------------
1692   7130                                                        
1693   7130             loc_7130:                                  ; OLine=1693
1694   7130 C9 C0                        CMP      #$C0             ; OLine=1694
1695   7132 B0 04                        BCS      locret_7138      ; OLine=1695 
1696   7134 A2 01                        LDX      #1               ; OLine=1696
1697   7136 A9 C0                        LDA      #$C0             ; OLine=1697 
1698   7138                                                        
1699   7138             locret_7138:                               ; OLine=1699
1700   7138                                                        
1701   7138 60                           RTS                       ; OLine=1701 
1702   7139                                                        ;  End of function sub_7125
1703   7139                                                        
1704   7139                                                        
1705   7139                                                        ;  ¦¦¦¦¦¦¦¦¦¦¦¦¦¦¦ S U B R O U T I N E ¦¦¦¦¦¦¦¦¦¦¦¦¦¦¦¦¦¦¦¦¦¦¦¦¦¦¦¦¦¦¦¦¦¦¦¦¦¦¦
1706   7139                                                        
1707   7139                                                        
1708   7139             sub_7139:                                  ; OLine=1708
1709   7139 A2 1C                        LDX      #$1C             ; OLine=1709 
1710   713B                                                        
1711   713B             loc_713B:                                  ; OLine=1711
1712   713B BD 00 02                     LDA      $200,X           ; OLine=1712 
1713   713E F0 1E                        BEQ      loc_715E         ; OLine=1713
1714   7140 BD 69 02                     LDA      $269,X           ; OLine=1714
1715   7143 38                           SEC                       ; OLine=1715 
1716   7144 ED 84 02                     SBC      $284             ; OLine=1716
1717   7147 C9 04                        CMP      #4               ; OLine=1717 
1718   7149 90 04                        BCC      loc_714F         ; OLine=1718
1719   714B C9 FC                        CMP      #$FC             ; OLine=1719
1720   714D 90 0F                        BCC      loc_715E         ; OLine=1720 
1721   714F                                                        
1722   714F             loc_714F:                                  ; OLine=1722
1723   714F BD 8C 02                     LDA      $28C,X           ; OLine=1723 
1724   7152 38                           SEC                       ; OLine=1724
1725   7153 ED A7 02                     SBC      $2A7             ; OLine=1725
1726   7156 C9 04                        CMP      #4               ; OLine=1726 
1727   7158 90 09                        BCC      loc_7163         ; OLine=1727
1728   715A C9 FC                        CMP      #$FC             ; OLine=1728
1729   715C B0 05                        BCS      loc_7163         ; OLine=1729 
1730   715E                                                        
1731   715E             loc_715E:                                  ; OLine=1731
1732   715E                                                        
1733   715E CA                           DEX                       ; OLine=1733 
1734   715F 10 DA                        BPL      loc_713B         ; OLine=1734
1735   7161 E8                           INX                       ; OLine=1735
1736   7162 60                           RTS                       ; OLine=1736 
1737   7163                                                        ;  ---------------------------------------------------------------------------
1738   7163                                                        
1739   7163             loc_7163:                                  ; OLine=1739
1740   7163                                                        
1741   7163 EE FA 02                     INC      $2FA             ; OLine=1741 
1742   7166 60                           RTS                       ; OLine=1742 
1743   7167                                                        ;  End of function sub_7139
1744   7167                                                        
1745   7167                                                        ;  ---------------------------------------------------------------------------
1746   7167 90                           .BYTE    $90              ; OLine=1746
1747   7168                                                        
1748   7168                                                        ;  ¦¦¦¦¦¦¦¦¦¦¦¦¦¦¦ S U B R O U T I N E ¦¦¦¦¦¦¦¦¦¦¦¦¦¦¦¦¦¦¦¦¦¦¦¦¦¦¦¦¦¦¦¦¦¦¦¦¦¦¦
1749   7168                                                        
1750   7168                                                        
1751   7168             sub_7168:                                  ; OLine=1751
1752   7168                                                        
1753   7168 A2 1A                        LDX      #$1A             ; OLine=1753 
1754   716A AD FB 02                     LDA      $2FB             ; OLine=1754
1755   716D D0 70                        BNE      loc_71DF         ; OLine=1755
1756   716F AD 1C 02                     LDA      $21C             ; OLine=1756  Saucer Flag
1757   7172 D0 73                        BNE      locret_71E7      ; OLine=1757  Branch If Saucer Is Currently Active
1758   7174 8D 3F 02                     STA      $23F             ; OLine=1758
1759   7177 8D 62 02                     STA      $262             ; OLine=1759
1760   717A EE FD 02                     INC      $2FD             ; OLine=1760
1761   717D AD FD 02                     LDA      $2FD             ; OLine=1761 
1762   7180 C9 0B                        CMP      #$B              ; OLine=1762
1763   7182 90 03                        BCC      loc_7187         ; OLine=1763
1764   7184 CE FD 02                     DEC      $2FD             ; OLine=1764 
1765   7187                                                        
1766   7187             loc_7187:                                  ; OLine=1766
1767   7187 AD F5 02                     LDA      $2F5             ; OLine=1767 
1768   718A 18                           CLC                       ; OLine=1768
1769   718B 69 02                        ADC      #2               ; OLine=1769
1770   718D C9 0B                        CMP      #$B              ; OLine=1770
1771   718F 90 02                        BCC      loc_7193         ; OLine=1771 
1772   7191 A9 0B                        LDA      #$B              ; OLine=1772 
1773   7193                                                        
1774   7193             loc_7193:                                  ; OLine=1774
1775   7193 8D F6 02                     STA      $2F6             ; OLine=1775 
1776   7196 8D F5 02                     STA      $2F5             ; OLine=1776
1777   7199 85 08                        STA      8                ; OLine=1777 
1778   719B A0 1C                        LDY      #$1C             ; OLine=1778 
1779   719D                                                        
1780   719D             loc_719D:                                  ; OLine=1780
1781   719D 20 B5 77                     JSR      sub_77B5         ; OLine=1781 
1782   71A0 29 18                        AND      #$18             ; OLine=1782
1783   71A2 09 04                        ORA      #4               ; OLine=1783 
1784   71A4 9D 00 02                     STA      $200,X           ; OLine=1784
1785   71A7 20 03 72                     JSR      sub_7203         ; OLine=1785
1786   71AA 20 B5 77                     JSR      sub_77B5         ; OLine=1786 
1787   71AD 4A                           LSR      A                ; OLine=1787
1788   71AE 29 1F                        AND      #$1F             ; OLine=1788
1789   71B0 90 13                        BCC      loc_71C5         ; OLine=1789 
1790   71B2 C9 18                        CMP      #$18             ; OLine=1790
1791   71B4 90 02                        BCC      loc_71B8         ; OLine=1791
1792   71B6 29 17                        AND      #$17             ; OLine=1792 
1793   71B8                                                        
1794   71B8             loc_71B8:                                  ; OLine=1794
1795   71B8 9D 8C 02                     STA      $28C,X           ; OLine=1795 
1796   71BB A9 00                        LDA      #0               ; OLine=1796
1797   71BD 9D 69 02                     STA      $269,X           ; OLine=1797
1798   71C0 9D AF 02                     STA      $2AF,X           ; OLine=1798 
1799   71C3 F0 0B                        BEQ      loc_71D0         ; OLine=1799 
1800   71C5                                                        
1801   71C5             loc_71C5:                                  ; OLine=1801
1802   71C5 9D 69 02                     STA      $269,X           ; OLine=1802 
1803   71C8 A9 00                        LDA      #0               ; OLine=1803
1804   71CA 9D 8C 02                     STA      $28C,X           ; OLine=1804 
1805   71CD 9D D2 02                     STA      $2D2,X           ; OLine=1805 
1806   71D0                                                        
1807   71D0             loc_71D0:                                  ; OLine=1807
1808   71D0 CA                           DEX                       ; OLine=1808
1809   71D1 C6 08                        DEC      8                ; OLine=1809 
1810   71D3 D0 C8                        BNE      loc_719D         ; OLine=1810
1811   71D5 A9 7F                        LDA      #$7F             ; OLine=1811
1812   71D7 8D F7 02                     STA      $2F7             ; OLine=1812  Countdown Timer For When Saucer Appears
1813   71DA A9 30                        LDA      #$30             ; OLine=1813
1814   71DC 8D FC 02                     STA      $2FC             ; OLine=1814  Starting Value For Timer @ $6E
1815   71DF                                                        
1816   71DF             loc_71DF:                                  ; OLine=1816
1817   71DF A9 00                        LDA      #0               ; OLine=1817 
1818   71E1                                                        
1819   71E1             loc_71E1:                                  ; OLine=1819
1820   71E1 9D 00 02                     STA      $200,X           ; OLine=1820 
1821   71E4 CA                           DEX                       ; OLine=1821
1822   71E5 10 FA                        BPL      loc_71E1         ; OLine=1822 
1823   71E7                                                        
1824   71E7             locret_71E7:                               ; OLine=1824
1825   71E7 60                           RTS                       ; OLine=1825 
1826   71E8                                                        ;  End of function sub_7168
1827   71E8                                                        
1828   71E8                                                        
1829   71E8                                                        ;  ¦¦¦¦¦¦¦¦¦¦¦¦¦¦¦ S U B R O U T I N E ¦¦¦¦¦¦¦¦¦¦¦¦¦¦¦¦¦¦¦¦¦¦¦¦¦¦¦¦¦¦¦¦¦¦¦¦¦¦¦
1830   71E8                                                        
1831   71E8                                                        
1832   71E8             sub_71E8:                                  ; OLine=1832
1833   71E8                                                        
1834   71E8 A9 60                        LDA      #$60             ; OLine=1834 
1835   71EA 8D CA 02                     STA      $2CA             ; OLine=1835
1836   71ED 8D ED 02                     STA      $2ED             ; OLine=1836
1837   71F0 A9 00                        LDA      #0               ; OLine=1837
1838   71F2 8D 3E 02                     STA      $23E             ; OLine=1838 
1839   71F5 8D 61 02                     STA      $261             ; OLine=1839
1840   71F8 A9 10                        LDA      #$10             ; OLine=1840
1841   71FA 8D 84 02                     STA      $284             ; OLine=1841
1842   71FD A9 0C                        LDA      #$C              ; OLine=1842 
1843   71FF 8D A7 02                     STA      $2A7             ; OLine=1843
1844   7202 60                           RTS                       ; OLine=1844 
1845   7203                                                        ;  End of function sub_71E8
1846   7203                                                        
1847   7203                                                        
1848   7203                                                        ;  ¦¦¦¦¦¦¦¦¦¦¦¦¦¦¦ S U B R O U T I N E ¦¦¦¦¦¦¦¦¦¦¦¦¦¦¦¦¦¦¦¦¦¦¦¦¦¦¦¦¦¦¦¦¦¦¦¦¦¦¦
1849   7203                                                        
1850   7203                                                        
1851   7203             sub_7203:                                  ; OLine=1851
1852   7203                                                        
1853   7203 20 B5 77                     JSR      sub_77B5         ; OLine=1853 
1854   7206 29 8F                        AND      #$8F             ; OLine=1854
1855   7208 10 02                        BPL      loc_720C         ; OLine=1855
1856   720A 09 F0                        ORA      #$F0             ; OLine=1856 
1857   720C                                                        
1858   720C             loc_720C:                                  ; OLine=1858
1859   720C 18                           CLC                       ; OLine=1859
1860   720D 79 23 02                     ADC      $223,Y           ; OLine=1860
1861   7210 20 33 72                     JSR      sub_7233         ; OLine=1861 
1862   7213 9D 23 02                     STA      $223,X           ; OLine=1862
1863   7216 20 B5 77                     JSR      sub_77B5         ; OLine=1863
1864   7219 20 B5 77                     JSR      sub_77B5         ; OLine=1864 
1865   721C 20 B5 77                     JSR      sub_77B5         ; OLine=1865
1866   721F 20 B5 77                     JSR      sub_77B5         ; OLine=1866
1867   7222 29 8F                        AND      #$8F             ; OLine=1867 
1868   7224 10 02                        BPL      loc_7228         ; OLine=1868
1869   7226 09 F0                        ORA      #$F0             ; OLine=1869 
1870   7228                                                        
1871   7228             loc_7228:                                  ; OLine=1871
1872   7228 18                           CLC                       ; OLine=1872 
1873   7229 79 46 02                     ADC      $246,Y           ; OLine=1873
1874   722C 20 33 72                     JSR      sub_7233         ; OLine=1874 
1875   722F 9D 46 02                     STA      $246,X           ; OLine=1875
1876   7232 60                           RTS                       ; OLine=1876 
1877   7233                                                        ;  End of function sub_7203
1878   7233                                                        
1879   7233                                                        
1880   7233                                                        ;  ¦¦¦¦¦¦¦¦¦¦¦¦¦¦¦ S U B R O U T I N E ¦¦¦¦¦¦¦¦¦¦¦¦¦¦¦¦¦¦¦¦¦¦¦¦¦¦¦¦¦¦¦¦¦¦¦¦¦¦¦
1881   7233                                                        
1882   7233                                                        
1883   7233             sub_7233:                                  ; OLine=1883
1884   7233                                                        
1885   7233 10 0D                        BPL      loc_7242         ; OLine=1885 
1886   7235 C9 E1                        CMP      #$E1             ; OLine=1886
1887   7237 B0 02                        BCS      loc_723B         ; OLine=1887
1888   7239 A9 E1                        LDA      #$E1             ; OLine=1888 
1889   723B                                                        
1890   723B             loc_723B:                                  ; OLine=1890
1891   723B C9 FB                        CMP      #$FB             ; OLine=1891 
1892   723D 90 0F                        BCC      locret_724E      ; OLine=1892
1893   723F A9 FA                        LDA      #$FA             ; OLine=1893 
1894   7241 60                           RTS                       ; OLine=1894 
1895   7242                                                        ;  ---------------------------------------------------------------------------
1896   7242                                                        
1897   7242             loc_7242:                                  ; OLine=1897
1898   7242 C9 06                        CMP      #6               ; OLine=1898 
1899   7244 B0 02                        BCS      loc_7248         ; OLine=1899
1900   7246 A9 06                        LDA      #6               ; OLine=1900 
1901   7248                                                        
1902   7248             loc_7248:                                  ; OLine=1902
1903   7248 C9 20                        CMP      #$20             ; OLine=1903 
1904   724A 90 02                        BCC      locret_724E      ; OLine=1904
1905   724C A9 1F                        LDA      #$1F             ; OLine=1905 
1906   724E                                                        
1907   724E             locret_724E:                               ; OLine=1907
1908   724E                                                        
1909   724E 60                           RTS                       ; OLine=1909 
1910   724F                                                        ;  End of function sub_7233
1911   724F                                                        
1912   724F                                                        
1913   724F                                                        ;  ¦¦¦¦¦¦¦¦¦¦¦¦¦¦¦ S U B R O U T I N E ¦¦¦¦¦¦¦¦¦¦¦¦¦¦¦¦¦¦¦¦¦¦¦¦¦¦¦¦¦¦¦¦¦¦¦¦¦¦¦
1914   724F                                                        
1915   724F                                                        
1916   724F             sub_724F:                                  ; OLine=1916
1917   724F A9 10                        LDA      #$10             ; OLine=1917 
1918   7251 85 00                        STA      0                ; OLine=1918
1919   7253 A9 50                        LDA      #$50             ; OLine=1919 
1920   7255 A2 A4                        LDX      #$A4             ; OLine=1920
1921   7257 20 FC 7B                     JSR      sub_7BFC         ; OLine=1921
1922   725A A9 19                        LDA      #$19             ; OLine=1922 
1923   725C A2 DB                        LDX      #$DB             ; OLine=1923
1924   725E 20 03 7C                     JSR      sub_7C03         ; OLine=1924
1925   7261 A9 70                        LDA      #$70             ; OLine=1925
1926   7263 20 DE 7C                     JSR      sub_7CDE         ; OLine=1926
1927   7266 A2 00                        LDX      #0               ; OLine=1927
1928   7268 A5 1C                        LDA      $1C              ; OLine=1928  Number Of Players In Current Game
1929   726A C9 02                        CMP      #2               ; OLine=1929  2 Players?
1930   726C D0 18                        BNE      loc_7286         ; OLine=1930  No, Branch
1931   726E A5 18                        LDA      $18              ; OLine=1931  Current Player
1932   7270 D0 14                        BNE      loc_7286         ; OLine=1932  Player 2? Yes, Branch
1933   7272 A2 20                        LDX      #$20             ; OLine=1933 
1934   7274 AD 1B 02                     LDA      $21B             ; OLine=1934  Player Flag
1935   7277 05 59                        ORA      $59              ; OLine=1935  Hyperspace Flag
1936   7279 D0 0B                        BNE      loc_7286         ; OLine=1936 
1937   727B AD FA 02                     LDA      $2FA             ; OLine=1937
1938   727E 30 06                        BMI      loc_7286         ; OLine=1938 
1939   7280 A5 5C                        LDA      $5C              ; OLine=1939  Fast Timer
1940   7282 29 10                        AND      #$10             ; OLine=1940 
1941   7284 F0 0D                        BEQ      loc_7293         ; OLine=1941 
1942   7286                                                        
1943   7286             loc_7286:                                  ; OLine=1943
1944   7286                                                        
1945   7286 A9 52                        LDA      #$52             ; OLine=1945 
1946   7288 A0 02                        LDY      #2               ; OLine=1946
1947   728A 38                           SEC                       ; OLine=1947 
1948   728B 20 3F 77                     JSR      sub_773F         ; OLine=1948
1949   728E A9 00                        LDA      #0               ; OLine=1949 
1950   7290 20 8B 77                     JSR      sub_778B         ; OLine=1950
1951   7293                                                        
1952   7293             loc_7293:                                  ; OLine=1952
1953   7293 A9 28                        LDA      #$28             ; OLine=1953 
1954   7295 A4 57                        LDY      $57              ; OLine=1954  Number Of Ships Remaining, Player 1
1955   7297 20 3E 6F                     JSR      sub_6F3E         ; OLine=1955
1956   729A A9 00                        LDA      #0               ; OLine=1956
1957   729C 85 00                        STA      0                ; OLine=1957
1958   729E A9 78                        LDA      #$78             ; OLine=1958 
1959   72A0 A2 DB                        LDX      #$DB             ; OLine=1959
1960   72A2 20 03 7C                     JSR      sub_7C03         ; OLine=1960
1961   72A5 A9 50                        LDA      #$50             ; OLine=1961
1962   72A7 20 DE 7C                     JSR      sub_7CDE         ; OLine=1962
1963   72AA A9 1D                        LDA      #$1D             ; OLine=1963
1964   72AC A0 02                        LDY      #2               ; OLine=1964 
1965   72AE 38                           SEC                       ; OLine=1965
1966   72AF 20 3F 77                     JSR      sub_773F         ; OLine=1966 
1967   72B2 A9 00                        LDA      #0               ; OLine=1967
1968   72B4 20 D1 7B                     JSR      sub_7BD1         ; OLine=1968 
1969   72B7 A9 10                        LDA      #$10             ; OLine=1969
1970   72B9 85 00                        STA      0                ; OLine=1970
1971   72BB A9 C0                        LDA      #$C0             ; OLine=1971 
1972   72BD A2 DB                        LDX      #$DB             ; OLine=1972
1973   72BF 20 03 7C                     JSR      sub_7C03         ; OLine=1973
1974   72C2 A9 50                        LDA      #$50             ; OLine=1974
1975   72C4 20 DE 7C                     JSR      sub_7CDE         ; OLine=1975 
1976   72C7 A2 00                        LDX      #0               ; OLine=1976 
1977   72C9 A5 1C                        LDA      $1C              ; OLine=1977  Number Of Players In Current Game
1978   72CB C9 01                        CMP      #1               ; OLine=1978  Only 1 Player?
1979   72CD F0 2E                        BEQ      locret_72FD      ; OLine=1979  Yes, Branch
1980   72CF 90 18                        BCC      loc_72E9         ; OLine=1980 
1981   72D1 A5 18                        LDA      $18              ; OLine=1981  Current Player
1982   72D3 F0 14                        BEQ      loc_72E9         ; OLine=1982  Branch If Player 1
1983   72D5 A2 20                        LDX      #$20             ; OLine=1983 
1984   72D7 AD 1B 02                     LDA      $21B             ; OLine=1984  Player Flag
1985   72DA 05 59                        ORA      $59              ; OLine=1985  Hyperspace Flag
1986   72DC D0 0B                        BNE      loc_72E9         ; OLine=1986
1987   72DE AD FA 02                     LDA      $2FA             ; OLine=1987 
1988   72E1 30 06                        BMI      loc_72E9         ; OLine=1988
1989   72E3 A5 5C                        LDA      $5C              ; OLine=1989  Fast Timer
1990   72E5 29 10                        AND      #$10             ; OLine=1990 
1991   72E7 F0 0D                        BEQ      loc_72F6         ; OLine=1991 
1992   72E9                                                        
1993   72E9             loc_72E9:                                  ; OLine=1993
1994   72E9                                                        
1995   72E9 A9 54                        LDA      #$54             ; OLine=1995 
1996   72EB A0 02                        LDY      #2               ; OLine=1996
1997   72ED 38                           SEC                       ; OLine=1997
1998   72EE 20 3F 77                     JSR      sub_773F         ; OLine=1998 
1999   72F1 A9 00                        LDA      #0               ; OLine=1999
2000   72F3 20 8B 77                     JSR      sub_778B         ; OLine=2000
2001   72F6                                                        
2002   72F6             loc_72F6:                                  ; OLine=2002
2003   72F6 A9 CF                        LDA      #$CF             ; OLine=2003 
2004   72F8 A4 58                        LDY      $58              ; OLine=2004  Current Number Of Ships, Player 2
2005   72FA 4C 3E 6F                     JMP      sub_6F3E         ; OLine=2005 
2006   72FD                                                        ;  ---------------------------------------------------------------------------
2007   72FD                                                        
2008   72FD             locret_72FD:                               ; OLine=2008
2009   72FD 60                           RTS                       ; OLine=2009 
2010   72FE                                                        ;  End of function sub_724F
2011   72FE                                                        
2012   72FE                                                        
2013   72FE                                                        ;  ¦¦¦¦¦¦¦¦¦¦¦¦¦¦¦ S U B R O U T I N E ¦¦¦¦¦¦¦¦¦¦¦¦¦¦¦¦¦¦¦¦¦¦¦¦¦¦¦¦¦¦¦¦¦¦¦¦¦¦¦
2014   72FE                                                        
2015   72FE                                                        
2016   72FE             sub_72FE:                                  ; OLine=2016
2017   72FE 84 00                        STY      0                ; OLine=2017 
2018   7300 86 0D                        STX      $D               ; OLine=2018
2019   7302 A5 05                        LDA      5                ; OLine=2019
2020   7304 4A                           LSR      A                ; OLine=2020
2021   7305 66 04                        ROR      4                ; OLine=2021
2022   7307 4A                           LSR      A                ; OLine=2022 
2023   7308 66 04                        ROR      4                ; OLine=2023
2024   730A 4A                           LSR      A                ; OLine=2024
2025   730B 66 04                        ROR      4                ; OLine=2025
2026   730D 85 05                        STA      5                ; OLine=2026 
2027   730F A5 07                        LDA      7                ; OLine=2027
2028   7311 18                           CLC                       ; OLine=2028
2029   7312 69 04                        ADC      #4               ; OLine=2029
2030   7314 4A                           LSR      A                ; OLine=2030 
2031   7315 66 06                        ROR      6                ; OLine=2031
2032   7317 4A                           LSR      A                ; OLine=2032
2033   7318 66 06                        ROR      6                ; OLine=2033
2034   731A 4A                           LSR      A                ; OLine=2034
2035   731B 66 06                        ROR      6                ; OLine=2035 
2036   731D 85 07                        STA      7                ; OLine=2036
2037   731F A2 04                        LDX      #4               ; OLine=2037
2038   7321 20 1C 7C                     JSR      sub_7C1C         ; OLine=2038 
2039   7324 A9 70                        LDA      #$70             ; OLine=2039
2040   7326 38                           SEC                       ; OLine=2040
2041   7327 E5 00                        SBC      0                ; OLine=2041
2042   7329 C9 A0                        CMP      #$A0             ; OLine=2042 
2043   732B 90 0E                        BCC      loc_733B         ; OLine=2043 
2044   732D                                                        
2045   732D             loc_732D:                                  ; OLine=2045
2046   732D 48                           PHA                       ; OLine=2046 
2047   732E A9 90                        LDA      #$90             ; OLine=2047
2048   7330 20 DE 7C                     JSR      sub_7CDE         ; OLine=2048 
2049   7333 68                           PLA                       ; OLine=2049
2050   7334 38                           SEC                       ; OLine=2050 
2051   7335 E9 10                        SBC      #$10             ; OLine=2051
2052   7337 C9 A0                        CMP      #$A0             ; OLine=2052 
2053   7339 B0 F2                        BCS      loc_732D         ; OLine=2053 
2054   733B                                                        
2055   733B             loc_733B:                                  ; OLine=2055
2056   733B 20 DE 7C                     JSR      sub_7CDE         ; OLine=2056 
2057   733E A6 0D                        LDX      $D               ; OLine=2057
2058   7340 BD 00 02                     LDA      $200,X           ; OLine=2058
2059   7343 10 16                        BPL      loc_735B         ; OLine=2059 
2060   7345 E0 1B                        CPX      #$1B             ; OLine=2060
2061   7347 F0 0C                        BEQ      loc_7355         ; OLine=2061
2062   7349 29 0C                        AND      #$C              ; OLine=2062
2063   734B 4A                           LSR      A                ; OLine=2063 
2064   734C A8                           TAY                       ; OLine=2064
2065   734D B9 F8 50                     LDA      $50F8,Y          ; OLine=2065
2066   7350 BE F9 50                     LDX      $50F9,Y          ; OLine=2066
2067   7353 D0 1B                        BNE      loc_7370         ; OLine=2067 
2068   7355                                                        
2069   7355             loc_7355:                                  ; OLine=2069
2070   7355 20 65 74                     JSR      sub_7465         ; OLine=2070 
2071   7358 A6 0D                        LDX      $D               ; OLine=2071
2072   735A 60                           RTS                       ; OLine=2072 
2073   735B                                                        ;  ---------------------------------------------------------------------------
2074   735B                                                        
2075   735B             loc_735B:                                  ; OLine=2075
2076   735B E0 1B                        CPX      #$1B             ; OLine=2076 
2077   735D F0 17                        BEQ      loc_7376         ; OLine=2077
2078   735F E0 1C                        CPX      #$1C             ; OLine=2078
2079   7361 F0 19                        BEQ      loc_737C         ; OLine=2079
2080   7363 B0 1F                        BCS      loc_7384         ; OLine=2080 
2081   7365 29 18                        AND      #$18             ; OLine=2081
2082   7367 4A                           LSR      A                ; OLine=2082
2083   7368 4A                           LSR      A                ; OLine=2083
2084   7369 A8                           TAY                       ; OLine=2084 
2085   736A B9 DE 51                     LDA      $51DE,Y          ; OLine=2085
2086   736D BE DF 51                     LDX      $51DF,Y          ; OLine=2086 
2087   7370                                                        
2088   7370             loc_7370:                                  ; OLine=2088
2089   7370                                                        
2090   7370 20 45 7D                     JSR      sub_7D45         ; OLine=2090 
2091   7373 A6 0D                        LDX      $D               ; OLine=2091
2092   7375 60                           RTS                       ; OLine=2092 
2093   7376                                                        ;  ---------------------------------------------------------------------------
2094   7376                                                        
2095   7376             loc_7376:                                  ; OLine=2095
2096   7376 20 0B 75                     JSR      sub_750B         ; OLine=2096 
2097   7379 A6 0D                        LDX      $D               ; OLine=2097
2098   737B 60                           RTS                       ; OLine=2098 
2099   737C                                                        ;  ---------------------------------------------------------------------------
2100   737C                                                        
2101   737C             loc_737C:                                  ; OLine=2101
2102   737C AD 50 52                     LDA      $5250            ; OLine=2102 
2103   737F AE 51 52                     LDX      $5251            ; OLine=2103
2104   7382 D0 EC                        BNE      loc_7370         ; OLine=2104 
2105   7384                                                        
2106   7384             loc_7384:                                  ; OLine=2106
2107   7384 A9 70                        LDA      #$70             ; OLine=2107 
2108   7386 A2 F0                        LDX      #$F0             ; OLine=2108
2109   7388 20 E0 7C                     JSR      sub_7CE0         ; OLine=2109 
2110   738B A6 0D                        LDX      $D               ; OLine=2110
2111   738D A5 5C                        LDA      $5C              ; OLine=2111  Fast Timer
2112   738F 29 03                        AND      #3               ; OLine=2112
2113   7391 D0 03                        BNE      locret_7396      ; OLine=2113 
2114   7393 DE 00 02                     DEC      $200,X           ; OLine=2114
2115   7396                                                        
2116   7396             locret_7396:                               ; OLine=2116
2117   7396 60                           RTS                       ; OLine=2117 
2118   7397                                                        ;  End of function sub_72FE
2119   7397                                                        
2120   7397                                                        
2121   7397                                                        ;  ¦¦¦¦¦¦¦¦¦¦¦¦¦¦¦ S U B R O U T I N E ¦¦¦¦¦¦¦¦¦¦¦¦¦¦¦¦¦¦¦¦¦¦¦¦¦¦¦¦¦¦¦¦¦¦¦¦¦¦¦
2122   7397                                                        
2123   7397                                                        
2124   7397             sub_7397:                                  ; OLine=2124
2125   7397                                                        
2126   7397 F8                           SED                       ; OLine=2126  Set Decimal Mode
2127   7398 75 52                        ADC      $52,X            ; OLine=2127  Add To Current Players Score, Tens
2128   739A 95 52                        STA      $52,X            ; OLine=2128 
2129   739C 90 12                        BCC      loc_73B0         ; OLine=2129  Increase In Thousands?, No, Branch
2130   739E B5 53                        LDA      $53,X            ; OLine=2130  Current Players Score, Thousands
2131   73A0 69 00                        ADC      #0               ; OLine=2131  Add In The Carry
2132   73A2 95 53                        STA      $53,X            ; OLine=2132
2133   73A4 29 0F                        AND      #$F              ; OLine=2133  Will Be 0 If Another 10,000 Points Reached
2134   73A6 D0 08                        BNE      loc_73B0         ; OLine=2134  Branch If Not Enough Points For Bonus Ship
2135   73A8 A9 B0                        LDA      #$B0             ; OLine=2135  Length Of Time To Play Bonus Ship Sound
2136   73AA 85 68                        STA      $68              ; OLine=2136  Into Timer
2137   73AC A6 18                        LDX      $18              ; OLine=2137  Current Player
2138   73AE F6 57                        INC      $57,X            ; OLine=2138  Award Bonus Ship
2139   73B0                                                        
2140   73B0             loc_73B0:                                  ; OLine=2140
2141   73B0                                                        
2142   73B0 D8                           CLD                       ; OLine=2142  Clear Decimal Mode
2143   73B1 60                           RTS                       ; OLine=2143 
2144   73B2                                                        ;  End of function sub_7397
2145   73B2                                                        
2146   73B2                                                        
2147   73B2                                                        ;  ¦¦¦¦¦¦¦¦¦¦¦¦¦¦¦ S U B R O U T I N E ¦¦¦¦¦¦¦¦¦¦¦¦¦¦¦¦¦¦¦¦¦¦¦¦¦¦¦¦¦¦¦¦¦¦¦¦¦¦¦
2148   73B2                                                        
2149   73B2                                                        
2150   73B2             sub_73B2:                                  ; OLine=2150
2151   73B2                                                        
2152   73B2 A5 18                        LDA      $18              ; OLine=2152  Current Player
2153   73B4 0A                           ASL      A                ; OLine=2153
2154   73B5 0A                           ASL      A                ; OLine=2154
2155   73B6 85 08                        STA      8                ; OLine=2155
2156   73B8 A5 6F                        LDA      $6F              ; OLine=2156
2157   73BA 29 FB                        AND      #$FB             ; OLine=2157
2158   73BC 05 08                        ORA      8                ; OLine=2158 
2159   73BE 85 6F                        STA      $6F              ; OLine=2159
2160   73C0 8D 00 32                     STA      $3200            ; OLine=2160
2161   73C3 60                           RTS                       ; OLine=2161 
2162   73C4                                                        ;  End of function sub_73B2
2163   73C4                                                        
2164   73C4                                                        
2165   73C4                                                        ;  ¦¦¦¦¦¦¦¦¦¦¦¦¦¦¦ S U B R O U T I N E ¦¦¦¦¦¦¦¦¦¦¦¦¦¦¦¦¦¦¦¦¦¦¦¦¦¦¦¦¦¦¦¦¦¦¦¦¦¦¦
2166   73C4                                                        
2167   73C4                                                        
2168   73C4             sub_73C4:                                  ; OLine=2168
2169   73C4 A5 1C                        LDA      $1C              ; OLine=2169  Number Of Players In Current Game
2170   73C6 F0 02                        BEQ      loc_73CA         ; OLine=2170  None, Branch
2171   73C8                                                        
2172   73C8             loc_73C8:                                  ; OLine=2172
2173   73C8                                                        
2174   73C8 18                           CLC                       ; OLine=2174 
2175   73C9 60                           RTS                       ; OLine=2175
2176   73CA                                                        
2177   73CA             loc_73CA:                                  ; OLine=2177
2178   73CA A5 5D                        LDA      $5D              ; OLine=2178  Slow Timer
2179   73CC 29 04                        AND      #4               ; OLine=2179
2180   73CE D0 F8                        BNE      loc_73C8         ; OLine=2180
2181   73D0 A5 1D                        LDA      $1D              ; OLine=2181  Highest Score In Table
2182   73D2 05 1E                        ORA      $1E              ; OLine=2182
2183   73D4 F0 F2                        BEQ      loc_73C8         ; OLine=2183  Table Empty, Branch
2184   73D6 A0 00                        LDY      #0               ; OLine=2184  Offset To "HIGH SCORE"
2185   73D8 20 F6 77                     JSR      sub_77F6         ; OLine=2185  And Draw To Screen
2186   73DB A2 00                        LDX      #0               ; OLine=2186
2187   73DD 86 10                        STX      $10              ; OLine=2187
2188   73DF A9 01                        LDA      #1               ; OLine=2188
2189   73E1 85 00                        STA      0                ; OLine=2189 
2190   73E3 A9 A7                        LDA      #$A7             ; OLine=2190
2191   73E5 85 0E                        STA      $E               ; OLine=2191
2192   73E7 A9 10                        LDA      #$10             ; OLine=2192
2193   73E9 85 00                        STA      0                ; OLine=2193 
2194   73EB                                                        
2195   73EB             loc_73EB:                                  ; OLine=2195
2196   73EB B5 1D                        LDA      $1D,X            ; OLine=2196  High Score Table
2197   73ED 15 1E                        ORA      $1E,X            ; OLine=2197 
2198   73EF F0 67                        BEQ      loc_7458         ; OLine=2198  No Score In This Entry, Branch
2199   73F1 86 0F                        STX      $F               ; OLine=2199
2200   73F3 A9 5F                        LDA      #$5F             ; OLine=2200 
2201   73F5 A6 0E                        LDX      $E               ; OLine=2201
2202   73F7 20 03 7C                     JSR      sub_7C03         ; OLine=2202
2203   73FA A9 40                        LDA      #$40             ; OLine=2203
2204   73FC 20 DE 7C                     JSR      sub_7CDE         ; OLine=2204 
2205   73FF A5 0F                        LDA      $F               ; OLine=2205
2206   7401 4A                           LSR      A                ; OLine=2206
2207   7402 F8                           SED                       ; OLine=2207  Set Decimal Mode
2208   7403 69 01                        ADC      #1               ; OLine=2208 
2209   7405 D8                           CLD                       ; OLine=2209  Clear Decimal Mode
2210   7406 85 0D                        STA      $D               ; OLine=2210
2211   7408 A9 0D                        LDA      #$D              ; OLine=2211
2212   740A 38                           SEC                       ; OLine=2212 
2213   740B A0 01                        LDY      #1               ; OLine=2213
2214   740D A2 00                        LDX      #0               ; OLine=2214
2215   740F 20 3F 77                     JSR      sub_773F         ; OLine=2215
2216   7412 A9 40                        LDA      #$40             ; OLine=2216 
2217   7414 AA                           TAX                       ; OLine=2217
2218   7415 20 E0 7C                     JSR      sub_7CE0         ; OLine=2218
2219   7418 A0 00                        LDY      #0               ; OLine=2219
2220   741A 20 35 6F                     JSR      sub_6F35         ; OLine=2220 
2221   741D A5 0F                        LDA      $F               ; OLine=2221
2222   741F 18                           CLC                       ; OLine=2222
2223   7420 69 1D                        ADC      #$1D             ; OLine=2223
2224   7422 A0 02                        LDY      #2               ; OLine=2224 
2225   7424 38                           SEC                       ; OLine=2225
2226   7425 A2 00                        LDX      #0               ; OLine=2226
2227   7427 20 3F 77                     JSR      sub_773F         ; OLine=2227
2228   742A A9 00                        LDA      #0               ; OLine=2228 
2229   742C 20 D1 7B                     JSR      sub_7BD1         ; OLine=2229
2230   742F A0 00                        LDY      #0               ; OLine=2230
2231   7431 20 35 6F                     JSR      sub_6F35         ; OLine=2231
2232   7434 A4 10                        LDY      $10              ; OLine=2232 
2233   7436 20 1A 6F                     JSR      sub_6F1A         ; OLine=2233
2234   7439 E6 10                        INC      $10              ; OLine=2234
2235   743B A4 10                        LDY      $10              ; OLine=2235
2236   743D 20 1A 6F                     JSR      sub_6F1A         ; OLine=2236 
2237   7440 E6 10                        INC      $10              ; OLine=2237
2238   7442 A4 10                        LDY      $10              ; OLine=2238
2239   7444 20 1A 6F                     JSR      sub_6F1A         ; OLine=2239
2240   7447 E6 10                        INC      $10              ; OLine=2240 
2241   7449 A5 0E                        LDA      $E               ; OLine=2241
2242   744B 38                           SEC                       ; OLine=2242
2243   744C E9 08                        SBC      #8               ; OLine=2243
2244   744E 85 0E                        STA      $E               ; OLine=2244 
2245   7450 A6 0F                        LDX      $F               ; OLine=2245 
2246   7452 E8                           INX                       ; OLine=2246 
2247   7453 E8                           INX                       ; OLine=2247  Point To Next Entry In Table
2248   7454 E0 14                        CPX      #$14             ; OLine=2248  End Of Table?
2249   7456 90 93                        BCC      loc_73EB         ; OLine=2249  No, Branch
2250   7458                                                        
2251   7458             loc_7458:                                  ; OLine=2251
2252   7458 38                           SEC                       ; OLine=2252
2253   7459 60                           RTS                       ; OLine=2253 
2254   745A                                                        ;  End of function sub_73C4
2255   745A                                                        
2256   745A                                                        
2257   745A                                                        ;  ¦¦¦¦¦¦¦¦¦¦¦¦¦¦¦ S U B R O U T I N E ¦¦¦¦¦¦¦¦¦¦¦¦¦¦¦¦¦¦¦¦¦¦¦¦¦¦¦¦¦¦¦¦¦¦¦¦¦¦¦
2258   745A                                                        
2259   745A                                                        
2260   745A             sub_745A:                                  ; OLine=2260
2261   745A A2 1A                        LDX      #$1A             ; OLine=2261 
2262   745C                                                        ;  End of function sub_745A
2263   745C                                                        
2264   745C                                                        
2265   745C                                                        ;  ¦¦¦¦¦¦¦¦¦¦¦¦¦¦¦ S U B R O U T I N E ¦¦¦¦¦¦¦¦¦¦¦¦¦¦¦¦¦¦¦¦¦¦¦¦¦¦¦¦¦¦¦¦¦¦¦¦¦¦¦
2266   745C                                                        
2267   745C                                                        
2268   745C             sub_745C:                                  ; OLine=2268
2269   745C                                                        
2270   745C BD 00 02                     LDA      $200,X           ; OLine=2270 
2271   745F F0 03                        BEQ      locret_7464      ; OLine=2271
2272   7461 CA                           DEX                       ; OLine=2272
2273   7462 10 F8                        BPL      sub_745C         ; OLine=2273 
2274   7464                                                        
2275   7464             locret_7464:                               ; OLine=2275
2276   7464 60                           RTS                       ; OLine=2276 
2277   7465                                                        ;  End of function sub_745C
2278   7465                                                        
2279   7465                                                        
2280   7465                                                        ;  ¦¦¦¦¦¦¦¦¦¦¦¦¦¦¦ S U B R O U T I N E ¦¦¦¦¦¦¦¦¦¦¦¦¦¦¦¦¦¦¦¦¦¦¦¦¦¦¦¦¦¦¦¦¦¦¦¦¦¦¦
2281   7465                                                        
2282   7465                                                        
2283   7465             sub_7465:                                  ; OLine=2283
2284   7465 AD 1B 02                     LDA      $21B             ; OLine=2284 
2285   7468 C9 A2                        CMP      #$A2             ; OLine=2285
2286   746A B0 22                        BCS      loc_748E         ; OLine=2286 
2287   746C A2 0A                        LDX      #$A              ; OLine=2287
2288   746E                                                        
2289   746E             loc_746E:                                  ; OLine=2289
2290   746E BD EC 50                     LDA      $50EC,X          ; OLine=2290 
2291   7471 4A                           LSR      A                ; OLine=2291
2292   7472 4A                           LSR      A                ; OLine=2292
2293   7473 4A                           LSR      A                ; OLine=2293
2294   7474 4A                           LSR      A                ; OLine=2294
2295   7475 18                           CLC                       ; OLine=2295 
2296   7476 69 F8                        ADC      #$F8             ; OLine=2296
2297   7478 49 F8                        EOR      #$F8             ; OLine=2297
2298   747A 95 7E                        STA      $7E,X            ; OLine=2298
2299   747C BD ED 50                     LDA      $50ED,X          ; OLine=2299 
2300   747F 4A                           LSR      A                ; OLine=2300
2301   7480 4A                           LSR      A                ; OLine=2301
2302   7481 4A                           LSR      A                ; OLine=2302
2303   7482 4A                           LSR      A                ; OLine=2303 
2304   7483 18                           CLC                       ; OLine=2304
2305   7484 69 F8                        ADC      #$F8             ; OLine=2305
2306   7486 49 F8                        EOR      #$F8             ; OLine=2306
2307   7488 95 8A                        STA      $8A,X            ; OLine=2307 
2308   748A CA                           DEX                       ; OLine=2308
2309   748B CA                           DEX                       ; OLine=2309
2310   748C 10 E0                        BPL      loc_746E         ; OLine=2310 
2311   748E                                                        
2312   748E             loc_748E:                                  ; OLine=2312
2313   748E AD 1B 02                     LDA      $21B             ; OLine=2313 
2314   7491 49 FF                        EOR      #$FF             ; OLine=2314
2315   7493 29 70                        AND      #$70             ; OLine=2315
2316   7495 4A                           LSR      A                ; OLine=2316 
2317   7496 4A                           LSR      A                ; OLine=2317
2318   7497 4A                           LSR      A                ; OLine=2318
2319   7498 AA                           TAX                       ; OLine=2319 
2320   7499                                                        
2321   7499             loc_7499:                                  ; OLine=2321
2322   7499 86 09                        STX      9                ; OLine=2322
2323   749B A0 00                        LDY      #0               ; OLine=2323 
2324   749D BD EC 50                     LDA      $50EC,X          ; OLine=2324
2325   74A0 10 01                        BPL      loc_74A3         ; OLine=2325
2326   74A2 88                           DEY                       ; OLine=2326 
2327   74A3                                                        
2328   74A3             loc_74A3:                                  ; OLine=2328
2329   74A3 18                           CLC                       ; OLine=2329 
2330   74A4 75 7D                        ADC      $7D,X            ; OLine=2330
2331   74A6 95 7D                        STA      $7D,X            ; OLine=2331
2332   74A8 98                           TYA                       ; OLine=2332 
2333   74A9 75 7E                        ADC      $7E,X            ; OLine=2333
2334   74AB 95 7E                        STA      $7E,X            ; OLine=2334
2335   74AD 85 04                        STA      4                ; OLine=2335
2336   74AF 84 05                        STY      5                ; OLine=2336 
2337   74B1 A0 00                        LDY      #0               ; OLine=2337
2338   74B3 BD ED 50                     LDA      $50ED,X          ; OLine=2338
2339   74B6 10 01                        BPL      loc_74B9         ; OLine=2339
2340   74B8 88                           DEY                       ; OLine=2340 
2341   74B9                                                        
2342   74B9             loc_74B9:                                  ; OLine=2342
2343   74B9 18                           CLC                       ; OLine=2343 
2344   74BA 75 89                        ADC      $89,X            ; OLine=2344
2345   74BC 95 89                        STA      $89,X            ; OLine=2345
2346   74BE 98                           TYA                       ; OLine=2346
2347   74BF 75 8A                        ADC      $8A,X            ; OLine=2347 
2348   74C1 95 8A                        STA      $8A,X            ; OLine=2348
2349   74C3 85 06                        STA      6                ; OLine=2349
2350   74C5 84 07                        STY      7                ; OLine=2350
2351   74C7 A5 02                        LDA      2                ; OLine=2351 
2352   74C9 85 0B                        STA      $B               ; OLine=2352
2353   74CB A5 03                        LDA      3                ; OLine=2353
2354   74CD 85 0C                        STA      $C               ; OLine=2354
2355   74CF 20 49 7C                     JSR      sub_7C49         ; OLine=2355 
2356   74D2 A4 09                        LDY      9                ; OLine=2356
2357   74D4 B9 E0 50                     LDA      $50E0,Y          ; OLine=2357
2358   74D7 BE E1 50                     LDX      $50E1,Y          ; OLine=2358
2359   74DA 20 45 7D                     JSR      sub_7D45         ; OLine=2359 
2360   74DD A4 09                        LDY      9                ; OLine=2360
2361   74DF B9 E1 50                     LDA      $50E1,Y          ; OLine=2361
2362   74E2 49 04                        EOR      #4               ; OLine=2362
2363   74E4 AA                           TAX                       ; OLine=2363 
2364   74E5 B9 E0 50                     LDA      $50E0,Y          ; OLine=2364
2365   74E8 29 0F                        AND      #$F              ; OLine=2365
2366   74EA 49 04                        EOR      #4               ; OLine=2366
2367   74EC 20 45 7D                     JSR      sub_7D45         ; OLine=2367 
2368   74EF A0 FF                        LDY      #$FF             ; OLine=2368 
2369   74F1                                                        
2370   74F1             loc_74F1:                                  ; OLine=2370
2371   74F1 C8                           INY                       ; OLine=2371 
2372   74F2 B1 0B                        LDA      ($B),Y           ; OLine=2372
2373   74F4 91 02                        STA      (2),Y            ; OLine=2373
2374   74F6 C8                           INY                       ; OLine=2374
2375   74F7 B1 0B                        LDA      ($B),Y           ; OLine=2375 
2376   74F9 49 04                        EOR      #4               ; OLine=2376
2377   74FB 91 02                        STA      (2),Y            ; OLine=2377
2378   74FD C0 03                        CPY      #3               ; OLine=2378
2379   74FF 90 F0                        BCC      loc_74F1         ; OLine=2379 
2380   7501 20 39 7C                     JSR      sub_7C39         ; OLine=2380
2381   7504 A6 09                        LDX      9                ; OLine=2381
2382   7506 CA                           DEX                       ; OLine=2382
2383   7507 CA                           DEX                       ; OLine=2383 
2384   7508 10 8F                        BPL      loc_7499         ; OLine=2384
2385   750A 60                           RTS                       ; OLine=2385 
2386   750B                                                        ;  End of function sub_7465
2387   750B                                                        
2388   750B                                                        
2389   750B                                                        ;  ¦¦¦¦¦¦¦¦¦¦¦¦¦¦¦ S U B R O U T I N E ¦¦¦¦¦¦¦¦¦¦¦¦¦¦¦¦¦¦¦¦¦¦¦¦¦¦¦¦¦¦¦¦¦¦¦¦¦¦¦
2390   750B                                                        
2391   750B                                                        
2392   750B             sub_750B:                                  ; OLine=2392
2393   750B A2 00                        LDX      #0               ; OLine=2393 
2394   750D 86 17                        STX      $17              ; OLine=2394 
2395   750F A0 00                        LDY      #0               ; OLine=2395 
2396   7511 A5 61                        LDA      $61              ; OLine=2396  Ship Direction
2397   7513 10 06                        BPL      loc_751B         ; OLine=2397 
2398   7515 A0 04                        LDY      #4               ; OLine=2398
2399   7517 8A                           TXA                       ; OLine=2399
2400   7518 38                           SEC                       ; OLine=2400
2401   7519 E5 61                        SBC      $61              ; OLine=2401 
2402   751B                                                        
2403   751B             loc_751B:                                  ; OLine=2403
2404   751B 85 08                        STA      8                ; OLine=2404 
2405   751D 24 08                        BIT      8                ; OLine=2405
2406   751F 30 02                        BMI      loc_7523         ; OLine=2406
2407   7521 50 07                        BVC      loc_752A         ; OLine=2407 
2408   7523                                                        
2409   7523             loc_7523:                                  ; OLine=2409
2410   7523 A2 04                        LDX      #4               ; OLine=2410 
2411   7525 A9 80                        LDA      #$80             ; OLine=2411
2412   7527 38                           SEC                       ; OLine=2412
2413   7528 E5 08                        SBC      8                ; OLine=2413 
2414   752A                                                        
2415   752A             loc_752A:                                  ; OLine=2415
2416   752A 86 08                        STX      8                ; OLine=2416 
2417   752C 84 09                        STY      9                ; OLine=2417
2418   752E 4A                           LSR      A                ; OLine=2418
2419   752F 29 FE                        AND      #$FE             ; OLine=2419
2420   7531 A8                           TAY                       ; OLine=2420 
2421   7532 B9 6E 52                     LDA      $526E,Y          ; OLine=2421
2422   7535 BE 6F 52                     LDX      $526F,Y          ; OLine=2422
2423   7538 20 D3 6A                     JSR      sub_6AD3         ; OLine=2423
2424   753B AD 05 24                     LDA      $2405            ; OLine=2424  Thrust Switch
2425   753E 10 14                        BPL      locret_7554      ; OLine=2425  Branch If NOT Pressed
2426   7540 A5 5C                        LDA      $5C              ; OLine=2426  Fast Timer
2427   7542 29 04                        AND      #4               ; OLine=2427
2428   7544 F0 0E                        BEQ      locret_7554      ; OLine=2428 
2429   7546 C8                           INY                       ; OLine=2429
2430   7547 C8                           INY                       ; OLine=2430
2431   7548 38                           SEC                       ; OLine=2431
2432   7549 A6 0C                        LDX      $C               ; OLine=2432 
2433   754B 98                           TYA                       ; OLine=2433
2434   754C 65 0B                        ADC      $B               ; OLine=2434
2435   754E 90 01                        BCC      loc_7551         ; OLine=2435
2436   7550 E8                           INX                       ; OLine=2436 
2437   7551                                                        
2438   7551             loc_7551:                                  ; OLine=2438
2439   7551 20 D3 6A                     JSR      sub_6AD3         ; OLine=2439 
2440   7554                                                        
2441   7554             locret_7554:                               ; OLine=2441
2442   7554                                                        
2443   7554 60                           RTS                       ; OLine=2443 
2444   7555                                                        ;  End of function sub_750B
2445   7555                                                        
2446   7555                                                        
2447   7555                                                        ;  ¦¦¦¦¦¦¦¦¦¦¦¦¦¦¦ S U B R O U T I N E ¦¦¦¦¦¦¦¦¦¦¦¦¦¦¦¦¦¦¦¦¦¦¦¦¦¦¦¦¦¦¦¦¦¦¦¦¦¦¦
2448   7555                                                        
2449   7555                                                        
2450   7555             sub_7555:                                  ; OLine=2450
2451   7555 A5 1C                        LDA      $1C              ; OLine=2451  Number Of Players In Current Game
2452   7557 D0 01                        BNE      loc_755A         ; OLine=2452  Branch If At Least 1 Player Left
2453   7559 60                           RTS                       ; OLine=2453 
2454   755A                                                        ;  ---------------------------------------------------------------------------
2455   755A                                                        
2456   755A             loc_755A:                                  ; OLine=2456
2457   755A A2 00                        LDX      #0               ; OLine=2457 
2458   755C AD 1C 02                     LDA      $21C             ; OLine=2458  Saucer Flag
2459   755F 30 0A                        BMI      loc_756B         ; OLine=2459  Currently Exploding, Branch
2460   7561 F0 08                        BEQ      loc_756B         ; OLine=2460  No Active Saucer, Branch
2461   7563 6A                           ROR      A                ; OLine=2461
2462   7564 6A                           ROR      A                ; OLine=2462
2463   7565 6A                           ROR      A                ; OLine=2463
2464   7566 8D 02 3C                     STA      $3C02            ; OLine=2464  Saucer Sound Select
2465   7569 A2 80                        LDX      #$80             ; OLine=2465
2466   756B                                                        
2467   756B             loc_756B:                                  ; OLine=2467
2468   756B                                                        
2469   756B 8E 00 3C                     STX      $3C00            ; OLine=2469  Saucer Sound
2470   756E A2 01                        LDX      #1               ; OLine=2470
2471   7570 20 CD 75                     JSR      sub_75CD         ; OLine=2471
2472   7573 8D 01 3C                     STA      $3C01            ; OLine=2472  Saucer Fire Sound
2473   7576 CA                           DEX                       ; OLine=2473
2474   7577 20 CD 75                     JSR      sub_75CD         ; OLine=2474
2475   757A 8D 04 3C                     STA      $3C04            ; OLine=2475  Ship Fire Sound
2476   757D AD 1B 02                     LDA      $21B             ; OLine=2476
2477   7580 C9 01                        CMP      #1               ; OLine=2477
2478   7582 F0 04                        BEQ      loc_7588         ; OLine=2478
2479   7584 8A                           TXA                       ; OLine=2479
2480   7585 8D 03 3C                     STA      $3C03            ; OLine=2480  Ship Thrust Sound
2481   7588                                                        
2482   7588             loc_7588:                                  ; OLine=2482
2483   7588 AD F6 02                     LDA      $2F6             ; OLine=2483 
2484   758B F0 11                        BEQ      loc_759E         ; OLine=2484 
2485   758D AD 1B 02                     LDA      $21B             ; OLine=2485  Player Flag
2486   7590 30 0C                        BMI      loc_759E         ; OLine=2486  Currently Exploding, Branch
2487   7592 05 59                        ORA      $59              ; OLine=2487  Hyperspace Flag
2488   7594 F0 08                        BEQ      loc_759E         ; OLine=2488 
2489   7596 A5 6D                        LDA      $6D              ; OLine=2489 
2490   7598 F0 14                        BEQ      loc_75AE         ; OLine=2490 
2491   759A C6 6D                        DEC      $6D              ; OLine=2491 
2492   759C D0 21                        BNE      loc_75BF         ; OLine=2492 
2493   759E                                                        
2494   759E             loc_759E:                                  ; OLine=2494
2495   759E                                                        
2496   759E A5 6C                        LDA      $6C              ; OLine=2496  Current Volume And Frequency Of THUMP Sound
2497   75A0 29 0F                        AND      #$F              ; OLine=2497  Mask Off Frequency Control
2498   75A2 85 6C                        STA      $6C              ; OLine=2498
2499   75A4 8D 00 3A                     STA      $3A00            ; OLine=2499  Turn Off Volume, Retain Current Frequency
2500   75A7 AD FC 02                     LDA      $2FC             ; OLine=2500 
2501   75AA 85 6E                        STA      $6E              ; OLine=2501
2502   75AC 10 11                        BPL      loc_75BF         ; OLine=2502 
2503   75AE                                                        
2504   75AE             loc_75AE:                                  ; OLine=2504
2505   75AE C6 6E                        DEC      $6E              ; OLine=2505 
2506   75B0 D0 0D                        BNE      loc_75BF         ; OLine=2506
2507   75B2 A9 04                        LDA      #4               ; OLine=2507
2508   75B4 85 6D                        STA      $6D              ; OLine=2508
2509   75B6 A5 6C                        LDA      $6C              ; OLine=2509 
2510   75B8 49 14                        EOR      #$14             ; OLine=2510  Turn On Volume, Switch Frequency
2511   75BA 85 6C                        STA      $6C              ; OLine=2511  Store It In Current Settings
2512   75BC 8D 00 3A                     STA      $3A00            ; OLine=2512  Make The Change
2513   75BF                                                        
2514   75BF             loc_75BF:                                  ; OLine=2514
2515   75BF                                                        
2516   75BF A5 69                        LDA      $69              ; OLine=2516 
2517   75C1 AA                           TAX                       ; OLine=2517
2518   75C2 29 3F                        AND      #$3F             ; OLine=2518
2519   75C4 F0 01                        BEQ      loc_75C7         ; OLine=2519
2520   75C6 CA                           DEX                       ; OLine=2520 
2521   75C7                                                        
2522   75C7             loc_75C7:                                  ; OLine=2522
2523   75C7 86 69                        STX      $69              ; OLine=2523 
2524   75C9 8E 00 36                     STX      $3600            ; OLine=2524  Explosion Pitch/Volume
2525   75CC 60                           RTS                       ; OLine=2525 
2526   75CD                                                        ;  End of function sub_7555
2527   75CD                                                        
2528   75CD                                                        
2529   75CD                                                        ;  ¦¦¦¦¦¦¦¦¦¦¦¦¦¦¦ S U B R O U T I N E ¦¦¦¦¦¦¦¦¦¦¦¦¦¦¦¦¦¦¦¦¦¦¦¦¦¦¦¦¦¦¦¦¦¦¦¦¦¦¦
2530   75CD                                                        
2531   75CD                                                        ;  Fire Sound Handling
2532   75CD                                                        
2533   75CD                                                        
2534   75CD             sub_75CD:                                  ; OLine=2534
2535   75CD                                                        
2536   75CD B5 6A                        LDA      $6A,X            ; OLine=2536  X = 0 Ship Fire, X = 1 Saucer Fire
2537   75CF 30 0C                        BMI      loc_75DD         ; OLine=2537
2538   75D1 B5 66                        LDA      $66,X            ; OLine=2538
2539   75D3 10 12                        BPL      loc_75E7         ; OLine=2539 
2540   75D5 A9 10                        LDA      #$10             ; OLine=2540
2541   75D7 95 66                        STA      $66,X            ; OLine=2541  TIMER: Length Of Time Sound Is On
2542   75D9                                                        
2543   75D9             loc_75D9:                                  ; OLine=2543
2544   75D9 A9 80                        LDA      #$80             ; OLine=2544  Turn Fire Sound On
2545   75DB 30 0C                        BMI      loc_75E9         ; OLine=2545  Will Always Branch
2546   75DD                                                        
2547   75DD             loc_75DD:                                  ; OLine=2547
2548   75DD B5 66                        LDA      $66,X            ; OLine=2548 
2549   75DF F0 06                        BEQ      loc_75E7         ; OLine=2549
2550   75E1 30 04                        BMI      loc_75E7         ; OLine=2550
2551   75E3 D6 66                        DEC      $66,X            ; OLine=2551
2552   75E5 D0 F2                        BNE      loc_75D9         ; OLine=2552 
2553   75E7                                                        
2554   75E7             loc_75E7:                                  ; OLine=2554
2555   75E7                                                        
2556   75E7 A9 00                        LDA      #0               ; OLine=2556  Turn Fire Sound Off
2557   75E9                                                        
2558   75E9             loc_75E9:                                  ; OLine=2558
2559   75E9 95 6A                        STA      $6A,X            ; OLine=2559 
2560   75EB 60                           RTS                       ; OLine=2560 
2561   75EC                                                        ;  End of function sub_75CD
2562   75EC                                                        
2563   75EC                                                        
2564   75EC                                                        ;  ¦¦¦¦¦¦¦¦¦¦¦¦¦¦¦ S U B R O U T I N E ¦¦¦¦¦¦¦¦¦¦¦¦¦¦¦¦¦¦¦¦¦¦¦¦¦¦¦¦¦¦¦¦¦¦¦¦¦¦¦
2565   75EC                                                        
2566   75EC                                                        
2567   75EC             sub_75EC:                                  ; OLine=2567
2568   75EC 86 0D                        STX      $D               ; OLine=2568 
2569   75EE A9 50                        LDA      #$50             ; OLine=2569
2570   75F0 8D F9 02                     STA      $2F9             ; OLine=2570
2571   75F3 B9 00 02                     LDA      $200,Y           ; OLine=2571
2572   75F6 29 78                        AND      #$78             ; OLine=2572 
2573   75F8 85 0E                        STA      $E               ; OLine=2573
2574   75FA B9 00 02                     LDA      $200,Y           ; OLine=2574
2575   75FD 29 07                        AND      #7               ; OLine=2575
2576   75FF 4A                           LSR      A                ; OLine=2576 
2577   7600 AA                           TAX                       ; OLine=2577
2578   7601 F0 02                        BEQ      loc_7605         ; OLine=2578
2579   7603 05 0E                        ORA      $E               ; OLine=2579 
2580   7605                                                        
2581   7605             loc_7605:                                  ; OLine=2581
2582   7605 99 00 02                     STA      $200,Y           ; OLine=2582 
2583   7608 A5 1C                        LDA      $1C              ; OLine=2583  Number Of Players In Current Game
2584   760A F0 11                        BEQ      loc_761D         ; OLine=2584  None, Branch
2585   760C A5 0D                        LDA      $D               ; OLine=2585
2586   760E F0 04                        BEQ      loc_7614         ; OLine=2586
2587   7610 C9 04                        CMP      #4               ; OLine=2587
2588   7612 90 09                        BCC      loc_761D         ; OLine=2588 
2589   7614                                                        
2590   7614             loc_7614:                                  ; OLine=2590
2591   7614 BD 59 76                     LDA      $7659,X          ; OLine=2591 
2592   7617 A6 19                        LDX      $19              ; OLine=2592
2593   7619 18                           CLC                       ; OLine=2593
2594   761A 20 97 73                     JSR      sub_7397         ; OLine=2594 
2595   761D                                                        
2596   761D             loc_761D:                                  ; OLine=2596
2597   761D                                                        
2598   761D BE 00 02                     LDX      $200,Y           ; OLine=2598 
2599   7620 F0 34                        BEQ      loc_7656         ; OLine=2599
2600   7622 20 5A 74                     JSR      sub_745A         ; OLine=2600
2601   7625 30 2F                        BMI      loc_7656         ; OLine=2601
2602   7627 EE F6 02                     INC      $2F6             ; OLine=2602 
2603   762A 20 9D 6A                     JSR      sub_6A9D         ; OLine=2603
2604   762D 20 03 72                     JSR      sub_7203         ; OLine=2604
2605   7630 BD 23 02                     LDA      $223,X           ; OLine=2605
2606   7633 29 1F                        AND      #$1F             ; OLine=2606 
2607   7635 0A                           ASL      A                ; OLine=2607
2608   7636 5D AF 02                     EOR      $2AF,X           ; OLine=2608
2609   7639 9D AF 02                     STA      $2AF,X           ; OLine=2609
2610   763C 20 5C 74                     JSR      sub_745C         ; OLine=2610 
2611   763F 30 15                        BMI      loc_7656         ; OLine=2611
2612   7641 EE F6 02                     INC      $2F6             ; OLine=2612
2613   7644 20 9D 6A                     JSR      sub_6A9D         ; OLine=2613
2614   7647 20 03 72                     JSR      sub_7203         ; OLine=2614 
2615   764A BD 46 02                     LDA      $246,X           ; OLine=2615
2616   764D 29 1F                        AND      #$1F             ; OLine=2616
2617   764F 0A                           ASL      A                ; OLine=2617
2618   7650 5D D2 02                     EOR      $2D2,X           ; OLine=2618 
2619   7653 9D D2 02                     STA      $2D2,X           ; OLine=2619 
2620   7656                                                        
2621   7656             loc_7656:                                  ; OLine=2621
2622   7656                                                        
2623   7656 A6 0D                        LDX      $D               ; OLine=2623 
2624   7658 60                           RTS                       ; OLine=2624 
2625   7659                                                        ;  End of function sub_75EC
2626   7659                                                        
2627   7659                                                        ;  ---------------------------------------------------------------------------
2628   7659 10                           .BYTE    $10              ; OLine=2628  100 Points
2629   765A 05                           .BYTE    5                ; OLine=2629  50 Points
2630   765B 02                           .BYTE    2                ; OLine=2630  20 Points
2631   765C                                                        
2632   765C                                                        ;  ¦¦¦¦¦¦¦¦¦¦¦¦¦¦¦ S U B R O U T I N E ¦¦¦¦¦¦¦¦¦¦¦¦¦¦¦¦¦¦¦¦¦¦¦¦¦¦¦¦¦¦¦¦¦¦¦¦¦¦¦
2633   765C                                                        
2634   765C                                                        
2635   765C             sub_765C:                                  ; OLine=2635
2636   765C A5 1C                        LDA      $1C              ; OLine=2636  Number Of Players In Current Game
2637   765E 10 38                        BPL      locret_7698      ; OLine=2637
2638   7660 A2 02                        LDX      #2               ; OLine=2638 
2639   7662 85 5D                        STA      $5D              ; OLine=2639  Slow Timer
2640   7664 85 32                        STA      $32              ; OLine=2640
2641   7666 85 33                        STA      $33              ; OLine=2641 
2642   7668                                                        
2643   7668             loc_7668:                                  ; OLine=2643
2644   7668 A0 00                        LDY      #0               ; OLine=2644 
2645   766A                                                        
2646   766A             loc_766A:                                  ; OLine=2646
2647   766A B9 1D 00                     LDA      $1D,Y            ; OLine=2647  High Score Table, Tens
2648   766D D5 52                        CMP      $52,X            ; OLine=2648  Player Score, Tens
2649   766F B9 1E 00                     LDA      $1E,Y            ; OLine=2649  High Score Table, Thousands
2650   7672 F5 53                        SBC      $53,X            ; OLine=2650 
2651   7674 90 23                        BCC      loc_7699         ; OLine=2651 
2652   7676 C8                           INY                       ; OLine=2652
2653   7677 C8                           INY                       ; OLine=2653
2654   7678 C0 14                        CPY      #$14             ; OLine=2654
2655   767A 90 EE                        BCC      loc_766A         ; OLine=2655 
2656   767C                                                        
2657   767C             loc_767C:                                  ; OLine=2657
2658   767C CA                           DEX                       ; OLine=2658 
2659   767D CA                           DEX                       ; OLine=2659
2660   767E 10 E8                        BPL      loc_7668         ; OLine=2660
2661   7680 A5 33                        LDA      $33              ; OLine=2661
2662   7682 30 0E                        BMI      loc_7692         ; OLine=2662 
2663   7684 C5 32                        CMP      $32              ; OLine=2663
2664   7686 90 0A                        BCC      loc_7692         ; OLine=2664
2665   7688 69 02                        ADC      #2               ; OLine=2665
2666   768A C9 1E                        CMP      #$1E             ; OLine=2666 
2667   768C 90 02                        BCC      loc_7690         ; OLine=2667
2668   768E A9 FF                        LDA      #$FF             ; OLine=2668 
2669   7690                                                        
2670   7690             loc_7690:                                  ; OLine=2670
2671   7690 85 33                        STA      $33              ; OLine=2671 
2672   7692                                                        
2673   7692             loc_7692:                                  ; OLine=2673
2674   7692                                                        
2675   7692 A9 00                        LDA      #0               ; OLine=2675 
2676   7694 85 1C                        STA      $1C              ; OLine=2676
2677   7696 85 31                        STA      $31              ; OLine=2677
2678   7698                                                        
2679   7698             locret_7698:                               ; OLine=2679
2680   7698 60                           RTS                       ; OLine=2680 
2681   7699                                                        ;  ---------------------------------------------------------------------------
2682   7699                                                        
2683   7699             loc_7699:                                  ; OLine=2683
2684   7699 86 0B                        STX      $B               ; OLine=2684 
2685   769B 84 0C                        STY      $C               ; OLine=2685
2686   769D 8A                           TXA                       ; OLine=2686
2687   769E 4A                           LSR      A                ; OLine=2687
2688   769F AA                           TAX                       ; OLine=2688 
2689   76A0 98                           TYA                       ; OLine=2689
2690   76A1 4A                           LSR      A                ; OLine=2690
2691   76A2 65 0C                        ADC      $C               ; OLine=2691
2692   76A4 85 0D                        STA      $D               ; OLine=2692 
2693   76A6 95 32                        STA      $32,X            ; OLine=2693
2694   76A8 A2 1B                        LDX      #$1B             ; OLine=2694
2695   76AA A0 12                        LDY      #$12             ; OLine=2695 
2696   76AC                                                        
2697   76AC             loc_76AC:                                  ; OLine=2697
2698   76AC E4 0D                        CPX      $D               ; OLine=2698 
2699   76AE F0 1F                        BEQ      loc_76CF         ; OLine=2699
2700   76B0 B5 31                        LDA      $31,X            ; OLine=2700
2701   76B2 95 34                        STA      $34,X            ; OLine=2701
2702   76B4 B5 32                        LDA      $32,X            ; OLine=2702 
2703   76B6 95 35                        STA      $35,X            ; OLine=2703
2704   76B8 B5 33                        LDA      $33,X            ; OLine=2704
2705   76BA 95 36                        STA      $36,X            ; OLine=2705
2706   76BC B9 1B 00                     LDA      $1B,Y            ; OLine=2706 
2707   76BF 99 1D 00                     STA      $1D,Y            ; OLine=2707
2708   76C2 B9 1C 00                     LDA      $1C,Y            ; OLine=2708
2709   76C5 99 1E 00                     STA      $1E,Y            ; OLine=2709
2710   76C8 88                           DEY                       ; OLine=2710 
2711   76C9 88                           DEY                       ; OLine=2711
2712   76CA CA                           DEX                       ; OLine=2712
2713   76CB CA                           DEX                       ; OLine=2713
2714   76CC CA                           DEX                       ; OLine=2714
2715   76CD D0 DD                        BNE      loc_76AC         ; OLine=2715 
2716   76CF                                                        
2717   76CF             loc_76CF:                                  ; OLine=2717
2718   76CF A9 0B                        LDA      #$B              ; OLine=2718 
2719   76D1 95 34                        STA      $34,X            ; OLine=2719
2720   76D3 A9 00                        LDA      #0               ; OLine=2720
2721   76D5 95 35                        STA      $35,X            ; OLine=2721
2722   76D7 95 36                        STA      $36,X            ; OLine=2722
2723   76D9 A9 F0                        LDA      #$F0             ; OLine=2723 
2724   76DB 85 5D                        STA      $5D              ; OLine=2724  Slow Timer
2725   76DD A6 0B                        LDX      $B               ; OLine=2725
2726   76DF A4 0C                        LDY      $C               ; OLine=2726
2727   76E1 B5 53                        LDA      $53,X            ; OLine=2727  Players Score, Thousands
2728   76E3 99 1E 00                     STA      $1E,Y            ; OLine=2728
2729   76E6 B5 52                        LDA      $52,X            ; OLine=2729  Players Score, Tens
2730   76E8 99 1D 00                     STA      $1D,Y            ; OLine=2730
2731   76EB A0 00                        LDY      #0               ; OLine=2731 
2732   76ED F0 8D                        BEQ      loc_767C         ; OLine=2732
2733   76EF                                                        
2734   76EF DF                           .BYTE    $DF              ; OLine=2734 
2735   76F0                                                        ;  ---------------------------------------------------------------------------
2736   76F0             loc_76F0:                                  ; OLine=2736
2737   76F0 98                           TYA                       ; OLine=2737 
2738   76F1 10 09                        BPL      loc_76FC         ; OLine=2738 
2739   76F3                                                        ;  End of function sub_765C
2740   76F3                                                        
2741   76F3 20 08 77                     JSR      sub_7708         ; OLine=2741 
2742   76F6 20 FC 76                     JSR      loc_76FC         ; OLine=2742
2743   76F9 4C 08 77                     JMP      sub_7708         ; OLine=2743 
2744   76FC                                                        ;  ---------------------------------------------------------------------------
2745   76FC                                                        
2746   76FC             loc_76FC:                                  ; OLine=2746
2747   76FC                                                        
2748   76FC A8                           TAY                       ; OLine=2748 
2749   76FD 8A                           TXA                       ; OLine=2749
2750   76FE 10 0E                        BPL      sub_770E         ; OLine=2750
2751   7700 20 08 77                     JSR      sub_7708         ; OLine=2751
2752   7703 20 0E 77                     JSR      sub_770E         ; OLine=2752
2753   7706 49 80                        EOR      #$80             ; OLine=2753 
2754   7708                                                        
2755   7708                                                        ;  ¦¦¦¦¦¦¦¦¦¦¦¦¦¦¦ S U B R O U T I N E ¦¦¦¦¦¦¦¦¦¦¦¦¦¦¦¦¦¦¦¦¦¦¦¦¦¦¦¦¦¦¦¦¦¦¦¦¦¦¦
2756   7708                                                        
2757   7708                                                        
2758   7708             sub_7708:                                  ; OLine=2758
2759   7708                                                        
2760   7708 49 FF                        EOR      #$FF             ; OLine=2760 
2761   770A 18                           CLC                       ; OLine=2761
2762   770B 69 01                        ADC      #1               ; OLine=2762
2763   770D 60                           RTS                       ; OLine=2763 
2764   770E                                                        ;  End of function sub_7708
2765   770E                                                        
2766   770E                                                        
2767   770E                                                        ;  ¦¦¦¦¦¦¦¦¦¦¦¦¦¦¦ S U B R O U T I N E ¦¦¦¦¦¦¦¦¦¦¦¦¦¦¦¦¦¦¦¦¦¦¦¦¦¦¦¦¦¦¦¦¦¦¦¦¦¦¦
2768   770E                                                        
2769   770E                                                        
2770   770E             sub_770E:                                  ; OLine=2770
2771   770E                                                        
2772   770E 85 0C                        STA      $C               ; OLine=2772 
2773   7710 98                           TYA                       ; OLine=2773
2774   7711 C5 0C                        CMP      $C               ; OLine=2774
2775   7713 F0 10                        BEQ      loc_7725         ; OLine=2775
2776   7715 90 11                        BCC      sub_7728         ; OLine=2776 
2777   7717 A4 0C                        LDY      $C               ; OLine=2777
2778   7719 85 0C                        STA      $C               ; OLine=2778
2779   771B 98                           TYA                       ; OLine=2779
2780   771C 20 28 77                     JSR      sub_7728         ; OLine=2780 
2781   771F 38                           SEC                       ; OLine=2781
2782   7720 E9 40                        SBC      #$40             ; OLine=2782
2783   7722 4C 08 77                     JMP      sub_7708         ; OLine=2783 
2784   7725                                                        ;  ---------------------------------------------------------------------------
2785   7725                                                        
2786   7725             loc_7725:                                  ; OLine=2786
2787   7725 A9 20                        LDA      #$20             ; OLine=2787 
2788   7727 60                           RTS                       ; OLine=2788
2789   7728                                                        ;  End of function sub_770E
2790   7728                                                        
2791   7728                                                        
2792   7728                                                        ;  ¦¦¦¦¦¦¦¦¦¦¦¦¦¦¦ S U B R O U T I N E ¦¦¦¦¦¦¦¦¦¦¦¦¦¦¦¦¦¦¦¦¦¦¦¦¦¦¦¦¦¦¦¦¦¦¦¦¦¦¦
2793   7728                                                        
2794   7728                                                        
2795   7728             sub_7728:                                  ; OLine=2795
2796   7728                                                        
2797   7728 20 6C 77                     JSR      sub_776C         ; OLine=2797 
2798   772B BD 2F 77                     LDA      $772F,X          ; OLine=2798
2799   772E 60                           RTS                       ; OLine=2799 
2800   772F                                                        ;  End of function sub_7728
2801   772F                                                        
2802   772F                                                        ;  ---------------------------------------------------------------------------
2803   772F 00                           .BYTE    0                ; OLine=2803
2804   7730 02                           .BYTE    2                ; OLine=2804
2805   7731 05                           .BYTE    5                ; OLine=2805
2806   7732 07                           .BYTE    7                ; OLine=2806
2807   7733 0A                           .BYTE    $A               ; OLine=2807
2808   7734 0C                           .BYTE    $C               ; OLine=2808
2809   7735 0F                           .BYTE    $F               ; OLine=2809
2810   7736 11                           .BYTE    $11              ; OLine=2810
2811   7737 13                           .BYTE    $13              ; OLine=2811
2812   7738 15                           .BYTE    $15              ; OLine=2812
2813   7739 17                           .BYTE    $17              ; OLine=2813
2814   773A 19                           .BYTE    $19              ; OLine=2814
2815   773B 1A                           .BYTE    $1A              ; OLine=2815
2816   773C 1C                           .BYTE    $1C              ; OLine=2816
2817   773D 1D                           .BYTE    $1D              ; OLine=2817
2818   773E 1F                           .BYTE    $1F              ; OLine=2818
2819   773F                                                        
2820   773F                                                        ;  ¦¦¦¦¦¦¦¦¦¦¦¦¦¦¦ S U B R O U T I N E ¦¦¦¦¦¦¦¦¦¦¦¦¦¦¦¦¦¦¦¦¦¦¦¦¦¦¦¦¦¦¦¦¦¦¦¦¦¦¦
2821   773F                                                        
2822   773F                                                        
2823   773F             sub_773F:                                  ; OLine=2823
2824   773F                                                        
2825   773F 08                           PHP                       ; OLine=2825 
2826   7740 86 17                        STX      $17              ; OLine=2826
2827   7742 88                           DEY                       ; OLine=2827
2828   7743 84 16                        STY      $16              ; OLine=2828
2829   7745 18                           CLC                       ; OLine=2829 
2830   7746 65 16                        ADC      $16              ; OLine=2830
2831   7748 85 15                        STA      $15              ; OLine=2831
2832   774A 28                           PLP                       ; OLine=2832
2833   774B AA                           TAX                       ; OLine=2833 
2834   774C                                                        
2835   774C             loc_774C:                                  ; OLine=2835
2836   774C 08                           PHP                       ; OLine=2836 
2837   774D B5 00                        LDA      0,X              ; OLine=2837
2838   774F 4A                           LSR      A                ; OLine=2838
2839   7750 4A                           LSR      A                ; OLine=2839
2840   7751 4A                           LSR      A                ; OLine=2840 
2841   7752 4A                           LSR      A                ; OLine=2841
2842   7753 28                           PLP                       ; OLine=2842
2843   7754 20 85 77                     JSR      sub_7785         ; OLine=2843
2844   7757 A5 16                        LDA      $16              ; OLine=2844 
2845   7759 D0 01                        BNE      loc_775C         ; OLine=2845
2846   775B 18                           CLC                       ; OLine=2846 
2847   775C                                                        
2848   775C             loc_775C:                                  ; OLine=2848
2849   775C A6 15                        LDX      $15              ; OLine=2849 
2850   775E B5 00                        LDA      0,X              ; OLine=2850
2851   7760 20 85 77                     JSR      sub_7785         ; OLine=2851
2852   7763 C6 15                        DEC      $15              ; OLine=2852
2853   7765 A6 15                        LDX      $15              ; OLine=2853 
2854   7767 C6 16                        DEC      $16              ; OLine=2854
2855   7769 10 E1                        BPL      loc_774C         ; OLine=2855
2856   776B 60                           RTS                       ; OLine=2856 
2857   776C                                                        ;  End of function sub_773F
2858   776C                                                        
2859   776C                                                        
2860   776C                                                        ;  ¦¦¦¦¦¦¦¦¦¦¦¦¦¦¦ S U B R O U T I N E ¦¦¦¦¦¦¦¦¦¦¦¦¦¦¦¦¦¦¦¦¦¦¦¦¦¦¦¦¦¦¦¦¦¦¦¦¦¦¦
2861   776C                                                        
2862   776C                                                        
2863   776C             sub_776C:                                  ; OLine=2863
2864   776C A0 00                        LDY      #0               ; OLine=2864 
2865   776E 84 0B                        STY      $B               ; OLine=2865
2866   7770 A0 04                        LDY      #4               ; OLine=2866 
2867   7772                                                        
2868   7772             loc_7772:                                  ; OLine=2868
2869   7772 26 0B                        ROL      $B               ; OLine=2869 
2870   7774 2A                           ROL      A                ; OLine=2870
2871   7775 C5 0C                        CMP      $C               ; OLine=2871
2872   7777 90 02                        BCC      loc_777B         ; OLine=2872 
2873   7779 E5 0C                        SBC      $C               ; OLine=2873 
2874   777B                                                        
2875   777B             loc_777B:                                  ; OLine=2875
2876   777B 88                           DEY                       ; OLine=2876 
2877   777C D0 F4                        BNE      loc_7772         ; OLine=2877
2878   777E A5 0B                        LDA      $B               ; OLine=2878
2879   7780 2A                           ROL      A                ; OLine=2879
2880   7781 29 0F                        AND      #$F              ; OLine=2880 
2881   7783 AA                           TAX                       ; OLine=2881
2882   7784 60                           RTS                       ; OLine=2882 
2883   7785                                                        ;  End of function sub_776C
2884   7785                                                        
2885   7785                                                        
2886   7785                                                        ;  ¦¦¦¦¦¦¦¦¦¦¦¦¦¦¦ S U B R O U T I N E ¦¦¦¦¦¦¦¦¦¦¦¦¦¦¦¦¦¦¦¦¦¦¦¦¦¦¦¦¦¦¦¦¦¦¦¦¦¦¦
2887   7785                                                        
2888   7785                                                        
2889   7785             sub_7785:                                  ; OLine=2889
2890   7785                                                        
2891   7785 90 04                        BCC      sub_778B         ; OLine=2891 
2892   7787 29 0F                        AND      #$F              ; OLine=2892
2893   7789 F0 27                        BEQ      loc_77B2         ; OLine=2893 
2894   778B                                                        ;  End of function sub_7785
2895   778B                                                        
2896   778B                                                        
2897   778B                                                        ;  ¦¦¦¦¦¦¦¦¦¦¦¦¦¦¦ S U B R O U T I N E ¦¦¦¦¦¦¦¦¦¦¦¦¦¦¦¦¦¦¦¦¦¦¦¦¦¦¦¦¦¦¦¦¦¦¦¦¦¦¦
2898   778B                                                        
2899   778B                                                        
2900   778B             sub_778B:                                  ; OLine=2900
2901   778B                                                        
2902   778B A6 17                        LDX      $17              ; OLine=2902 
2903   778D F0 23                        BEQ      loc_77B2         ; OLine=2903
2904   778F 29 0F                        AND      #$F              ; OLine=2904
2905   7791 18                           CLC                       ; OLine=2905
2906   7792 69 01                        ADC      #1               ; OLine=2906 
2907   7794 08                           PHP                       ; OLine=2907
2908   7795 0A                           ASL      A                ; OLine=2908
2909   7796 A8                           TAY                       ; OLine=2909
2910   7797 B9 D4 56                     LDA      $56D4,Y          ; OLine=2910 
2911   779A 0A                           ASL      A                ; OLine=2911
2912   779B 85 0B                        STA      $B               ; OLine=2912
2913   779D B9 D5 56                     LDA      $56D5,Y          ; OLine=2913
2914   77A0 2A                           ROL      A                ; OLine=2914 
2915   77A1 29 1F                        AND      #$1F             ; OLine=2915
2916   77A3 09 40                        ORA      #$40             ; OLine=2916
2917   77A5 85 0C                        STA      $C               ; OLine=2917
2918   77A7 A9 00                        LDA      #0               ; OLine=2918 
2919   77A9 85 08                        STA      8                ; OLine=2919
2920   77AB 85 09                        STA      9                ; OLine=2920
2921   77AD 20 D7 6A                     JSR      sub_6AD7         ; OLine=2921
2922   77B0 28                           PLP                       ; OLine=2922 
2923   77B1 60                           RTS                       ; OLine=2923 
2924   77B2                                                        ;  ---------------------------------------------------------------------------
2925   77B2                                                        
2926   77B2             loc_77B2:                                  ; OLine=2926
2927   77B2                                                        
2928   77B2 4C CB 7B                     JMP      loc_7BCB         ; OLine=2928 
2929   77B5                                                        ;  End of function sub_778B
2930   77B5                                                        
2931   77B5                                                        
2932   77B5                                                        ;  ¦¦¦¦¦¦¦¦¦¦¦¦¦¦¦ S U B R O U T I N E ¦¦¦¦¦¦¦¦¦¦¦¦¦¦¦¦¦¦¦¦¦¦¦¦¦¦¦¦¦¦¦¦¦¦¦¦¦¦¦
2933   77B5                                                        
2934   77B5                                                        
2935   77B5             sub_77B5:                                  ; OLine=2935
2936   77B5                                                        
2937   77B5 06 5F                        ASL      $5F              ; OLine=2937 
2938   77B7 26 60                        ROL      $60              ; OLine=2938
2939   77B9 10 02                        BPL      loc_77BD         ; OLine=2939
2940   77BB E6 5F                        INC      $5F              ; OLine=2940 
2941   77BD                                                        
2942   77BD             loc_77BD:                                  ; OLine=2942
2943   77BD A5 5F                        LDA      $5F              ; OLine=2943 
2944   77BF 2C D1 77                     BIT      byte_77D1        ; OLine=2944
2945   77C2 F0 04                        BEQ      loc_77C8         ; OLine=2945 
2946   77C4 49 01                        EOR      #1               ; OLine=2946
2947   77C6 85 5F                        STA      $5F              ; OLine=2947 
2948   77C8                                                        
2949   77C8             loc_77C8:                                  ; OLine=2949
2950   77C8 05 60                        ORA      $60              ; OLine=2950 
2951   77CA D0 02                        BNE      loc_77CE         ; OLine=2951
2952   77CC E6 5F                        INC      $5F              ; OLine=2952 
2953   77CE                                                        
2954   77CE             loc_77CE:                                  ; OLine=2954
2955   77CE A5 5F                        LDA      $5F              ; OLine=2955 
2956   77D0 60                           RTS                       ; OLine=2956 
2957   77D1                                                        ;  End of function sub_77B5
2958   77D1                                                        
2959   77D1                                                        ;  ---------------------------------------------------------------------------
2960   77D1 02          byte_77D1:       .BYTE    2                ; OLine=2960
2961   77D2                                                        
2962   77D2                                                        ;  ¦¦¦¦¦¦¦¦¦¦¦¦¦¦¦ S U B R O U T I N E ¦¦¦¦¦¦¦¦¦¦¦¦¦¦¦¦¦¦¦¦¦¦¦¦¦¦¦¦¦¦¦¦¦¦¦¦¦¦¦
2963   77D2                                                        
2964   77D2                                                        
2965   77D2             sub_77D2:                                  ; OLine=2965
2966   77D2                                                        
2967   77D2 18                           CLC                       ; OLine=2967 
2968   77D3 69 40                        ADC      #$40             ; OLine=2968 
2969   77D5                                                        ;  End of function sub_77D2
2970   77D5                                                        
2971   77D5                                                        
2972   77D5                                                        ;  ¦¦¦¦¦¦¦¦¦¦¦¦¦¦¦ S U B R O U T I N E ¦¦¦¦¦¦¦¦¦¦¦¦¦¦¦¦¦¦¦¦¦¦¦¦¦¦¦¦¦¦¦¦¦¦¦¦¦¦¦
2973   77D5                                                        
2974   77D5                                                        
2975   77D5             sub_77D5:                                  ; OLine=2975
2976   77D5                                                        
2977   77D5 10 08                        BPL      sub_77DF         ; OLine=2977 
2978   77D7 29 7F                        AND      #$7F             ; OLine=2978
2979   77D9 20 DF 77                     JSR      sub_77DF         ; OLine=2979
2980   77DC 4C 08 77                     JMP      sub_7708         ; OLine=2980 
2981   77DF                                                        ;  End of function sub_77D5
2982   77DF                                                        
2983   77DF                                                        
2984   77DF                                                        ;  ¦¦¦¦¦¦¦¦¦¦¦¦¦¦¦ S U B R O U T I N E ¦¦¦¦¦¦¦¦¦¦¦¦¦¦¦¦¦¦¦¦¦¦¦¦¦¦¦¦¦¦¦¦¦¦¦¦¦¦¦
2985   77DF                                                        
2986   77DF                                                        
2987   77DF             sub_77DF:                                  ; OLine=2987
2988   77DF                                                        
2989   77DF C9 41                        CMP      #$41             ; OLine=2989 
2990   77E1 90 04                        BCC      loc_77E7         ; OLine=2990
2991   77E3 49 7F                        EOR      #$7F             ; OLine=2991
2992   77E5 69 00                        ADC      #0               ; OLine=2992 
2993   77E7                                                        
2994   77E7             loc_77E7:                                  ; OLine=2994
2995   77E7 AA                           TAX                       ; OLine=2995 
2996   77E8 BD B9 57                     LDA      $57B9,X          ; OLine=2996
2997   77EB 60                           RTS                       ; OLine=2997 
2998   77EC                                                        ;  End of function sub_77DF
2999   77EC                                                        
3000   77EC                                                        ;  ---------------------------------------------------------------------------
3001   77EC 00                           .BYTE    0                ; OLine=3001
3002   77ED 00                           .BYTE    0                ; OLine=3002
3003   77EE 00                           .BYTE    0                ; OLine=3003
3004   77EF 00                           .BYTE    0                ; OLine=3004
3005   77F0 00                           .BYTE    0                ; OLine=3005
3006   77F1 00                           .BYTE    0                ; OLine=3006
3007   77F2 00                           .BYTE    0                ; OLine=3007
3008   77F3 00                           .BYTE    0                ; OLine=3008
3009   77F4 00                           .BYTE    0                ; OLine=3009
3010   77F5 00                           .BYTE    0                ; OLine=3010
3011   77F6                                                        
3012   77F6                                                        ;  ¦¦¦¦¦¦¦¦¦¦¦¦¦¦¦ S U B R O U T I N E ¦¦¦¦¦¦¦¦¦¦¦¦¦¦¦¦¦¦¦¦¦¦¦¦¦¦¦¦¦¦¦¦¦¦¦¦¦¦¦
3013   77F6                                                        
3014   77F6                                                        
3015   77F6             sub_77F6:                                  ; OLine=3015
3016   77F6                                                        
3017   77F6 AD 03 28                     LDA      $2803            ; OLine=3017  DIP Switches 1 & 2, Language
3018   77F9 29 03                        AND      #3               ; OLine=3018
3019   77FB 0A                           ASL      A                ; OLine=3019
3020   77FC AA                           TAX                       ; OLine=3020
3021   77FD A9 10                        LDA      #$10             ; OLine=3021
3022   77FF 85 00                        STA      0                ; OLine=3022
3023   7801 BD 88 78                     LDA      $7888,X          ; OLine=3023  Address Of Message Offset Table
3024   7804 85 09                        STA      9                ; OLine=3024
3025   7806 BD 87 78                     LDA      $7887,X          ; OLine=3025
3026   7809 85 08                        STA      8                ; OLine=3026
3027   780B 71 08                        ADC      (8),Y            ; OLine=3027  Add In The Offset To Get Starting
3028   780D 85 08                        STA      8                ; OLine=3028  Address Of Message
3029   780F 90 02                        BCC      loc_7813         ; OLine=3029
3030   7811 E6 09                        INC      9                ; OLine=3030
3031   7813                                                        
3032   7813             loc_7813:                                  ; OLine=3032
3033   7813 98                           TYA                       ; OLine=3033 
3034   7814 0A                           ASL      A                ; OLine=3034
3035   7815 A8                           TAY                       ; OLine=3035
3036   7816 B9 71 78                     LDA      $7871,Y          ; OLine=3036
3037   7819 BE 72 78                     LDX      $7872,Y          ; OLine=3037 
3038   781C 20 03 7C                     JSR      sub_7C03         ; OLine=3038
3039   781F A9 70                        LDA      #$70             ; OLine=3039
3040   7821 20 DE 7C                     JSR      sub_7CDE         ; OLine=3040
3041   7824 A0 00                        LDY      #0               ; OLine=3041 
3042   7826 A2 00                        LDX      #0               ; OLine=3042 
3043   7828                                                        
3044   7828             loc_7828:                                  ; OLine=3044
3045   7828 A1 08                        LDA      (8,X)            ; OLine=3045 
3046   782A 85 0B                        STA      $B               ; OLine=3046
3047   782C 4A                           LSR      A                ; OLine=3047
3048   782D 4A                           LSR      A                ; OLine=3048
3049   782E 20 4D 78                     JSR      sub_784D         ; OLine=3049 
3050   7831 A1 08                        LDA      (8,X)            ; OLine=3050
3051   7833 2A                           ROL      A                ; OLine=3051
3052   7834 26 0B                        ROL      $B               ; OLine=3052
3053   7836 2A                           ROL      A                ; OLine=3053 
3054   7837 A5 0B                        LDA      $B               ; OLine=3054
3055   7839 2A                           ROL      A                ; OLine=3055
3056   783A 0A                           ASL      A                ; OLine=3056
3057   783B 20 53 78                     JSR      sub_7853         ; OLine=3057 
3058   783E A1 08                        LDA      (8,X)            ; OLine=3058
3059   7840 85 0B                        STA      $B               ; OLine=3059
3060   7842 20 4D 78                     JSR      sub_784D         ; OLine=3060
3061   7845 46 0B                        LSR      $B               ; OLine=3061 
3062   7847 90 DF                        BCC      loc_7828         ; OLine=3062 
3063   7849                                                        
3064   7849             loc_7849:                                  ; OLine=3064
3065   7849 88                           DEY                       ; OLine=3065 
3066   784A 4C 39 7C                     JMP      sub_7C39         ; OLine=3066 
3067   784D                                                        ;  End of function sub_77F6
3068   784D                                                        
3069   784D                                                        
3070   784D                                                        ;  ¦¦¦¦¦¦¦¦¦¦¦¦¦¦¦ S U B R O U T I N E ¦¦¦¦¦¦¦¦¦¦¦¦¦¦¦¦¦¦¦¦¦¦¦¦¦¦¦¦¦¦¦¦¦¦¦¦¦¦¦
3071   784D                                                        
3072   784D                                                        
3073   784D             sub_784D:                                  ; OLine=3073
3074   784D                                                        
3075   784D E6 08                        INC      8                ; OLine=3075 
3076   784F D0 02                        BNE      sub_7853         ; OLine=3076
3077   7851 E6 09                        INC      9                ; OLine=3077 
3078   7853                                                        ;  End of function sub_784D
3079   7853                                                        
3080   7853                                                        
3081   7853                                                        ;  ¦¦¦¦¦¦¦¦¦¦¦¦¦¦¦ S U B R O U T I N E ¦¦¦¦¦¦¦¦¦¦¦¦¦¦¦¦¦¦¦¦¦¦¦¦¦¦¦¦¦¦¦¦¦¦¦¦¦¦¦
3082   7853                                                        
3083   7853                                                        
3084   7853             sub_7853:                                  ; OLine=3084
3085   7853                                                        
3086   7853 29 3E                        AND      #$3E             ; OLine=3086 
3087   7855 D0 04                        BNE      loc_785B         ; OLine=3087
3088   7857 68                           PLA                       ; OLine=3088
3089   7858 68                           PLA                       ; OLine=3089 
3090   7859 D0 EE                        BNE      loc_7849         ; OLine=3090 
3091   785B                                                        
3092   785B             loc_785B:                                  ; OLine=3092
3093   785B C9 0A                        CMP      #$A              ; OLine=3093 
3094   785D 90 02                        BCC      loc_7861         ; OLine=3094
3095   785F 69 0D                        ADC      #$D              ; OLine=3095 
3096   7861                                                        
3097   7861             loc_7861:                                  ; OLine=3097
3098   7861 AA                           TAX                       ; OLine=3098 
3099   7862 BD D2 56                     LDA      $56D2,X          ; OLine=3099
3100   7865 91 02                        STA      (2),Y            ; OLine=3100
3101   7867 C8                           INY                       ; OLine=3101 
3102   7868 BD D3 56                     LDA      $56D3,X          ; OLine=3102
3103   786B 91 02                        STA      (2),Y            ; OLine=3103
3104   786D C8                           INY                       ; OLine=3104
3105   786E A2 00                        LDX      #0               ; OLine=3105 
3106   7870 60                           RTS                       ; OLine=3106 
3107   7871                                                        ;  End of function sub_7853
3108   7871                                                        
3109   7871                                                        ;  ---------------------------------------------------------------------------
3110   7871 64                           .BYTE    $64              ; OLine=3110
3111   7872 B6                           .BYTE    $B6              ; OLine=3111
3112   7873                                                        
3113   7873 64                           .BYTE    $64              ; OLine=3113
3114   7874 B6                           .BYTE    $B6              ; OLine=3114
3115   7875                                                        
3116   7875 0C                           .BYTE    $C               ; OLine=3116
3117   7876 AA                           .BYTE    $AA              ; OLine=3117
3118   7877                                                        
3119   7877 0C                           .BYTE    $C               ; OLine=3119
3120   7878 A2                           .BYTE    $A2              ; OLine=3120
3121   7879                                                        
3122   7879 0C                           .BYTE    $C               ; OLine=3122
3123   787A 9A                           .BYTE    $9A              ; OLine=3123
3124   787B                                                        
3125   787B 0C                           .BYTE    $C               ; OLine=3125
3126   787C 92                           .BYTE    $92              ; OLine=3126
3127   787D                                                        
3128   787D 64                           .BYTE    $64              ; OLine=3128
3129   787E C6                           .BYTE    $C6              ; OLine=3129
3130   787F                                                        
3131   787F 64                           .BYTE    $64              ; OLine=3131
3132   7880 9D                           .BYTE    $9D              ; OLine=3132
3133   7881                                                        
3134   7881 50                           .BYTE    $50              ; OLine=3134
3135   7882 39                           .BYTE    $39              ; OLine=3135
3136   7883                                                        
3137   7883 50                           .BYTE    $50              ; OLine=3137
3138   7884 39                           .BYTE    $39              ; OLine=3138
3139   7885                                                        
3140   7885 50                           .BYTE    $50              ; OLine=3140
3141   7886 39                           .BYTE    $39              ; OLine=3141
3142   7887                                                        
3143   7887                                                        
3144   7887 1E                           .BYTE    $1E              ; OLine=3144  English
3145   7888 57                           .BYTE    $57              ; OLine=3145
3146   7889                                                        
3147   7889 8F                           .BYTE    $8F              ; OLine=3147
3148   788A 78                           .BYTE    $78              ; OLine=3148
3149   788B                                                        
3150   788B 46                           .BYTE    $46              ; OLine=3150
3151   788C 79                           .BYTE    $79              ; OLine=3151
3152   788D                                                        
3153   788D F3                           .BYTE    $F3              ; OLine=3153
3154   788E 79                           .BYTE    $79              ; OLine=3154
3155   788F                                                        
3156   788F 0B                           .BYTE    $B               ; OLine=3156
3157   7890 15                           .BYTE    $15              ; OLine=3157
3158   7891 1B                           .BYTE    $1B              ; OLine=3158
3159   7892 35                           .BYTE    $35              ; OLine=3159
3160   7893 4D                           .BYTE    $4D              ; OLine=3160
3161   7894 65                           .BYTE    $65              ; OLine=3161
3162   7895 7F                           .BYTE    $7F              ; OLine=3162
3163   7896 8D                           .BYTE    $8D              ; OLine=3163
3164   7897 93                           .BYTE    $93              ; OLine=3164
3165   7898 9F                           .BYTE    $9F              ; OLine=3165
3166   7899 AB                           .BYTE    $AB              ; OLine=3166
3167   789A                                                        
3168   789A 64                           .BYTE    $64              ; OLine=3168
3169   789B D2                           .BYTE    $D2              ; OLine=3169
3170   789C 3B                           .BYTE    $3B              ; OLine=3170
3171   789D 2E                           .BYTE    $2E              ; OLine=3171
3172   789E C2                           .BYTE    $C2              ; OLine=3172
3173   789F 6C                           .BYTE    $6C              ; OLine=3173
3174   78A0 5A                           .BYTE    $5A              ; OLine=3174
3175   78A1 4C                           .BYTE    $4C              ; OLine=3175
3176   78A2 93                           .BYTE    $93              ; OLine=3176
3177   78A3 6F                           .BYTE    $6F              ; OLine=3177
3178   78A4 BD                           .BYTE    $BD              ; OLine=3178
3179   78A5 1A                           .BYTE    $1A              ; OLine=3179
3180   78A6 4C                           .BYTE    $4C              ; OLine=3180
3181   78A7 12                           .BYTE    $12              ; OLine=3181
3182   78A8 B0                           .BYTE    $B0              ; OLine=3182
3183   78A9 40                           .BYTE    $40              ; OLine=3183
3184   78AA 6B                           .BYTE    $6B              ; OLine=3184
3185   78AB 2C                           .BYTE    $2C              ; OLine=3185
3186   78AC 0A                           .BYTE    $A               ; OLine=3186
3187   78AD 6C                           .BYTE    $6C              ; OLine=3187
3188   78AE 5A                           .BYTE    $5A              ; OLine=3188
3189   78AF 4C                           .BYTE    $4C              ; OLine=3189
3190   78B0 93                           .BYTE    $93              ; OLine=3190
3191   78B1 6E                           .BYTE    $6E              ; OLine=3191
3192   78B2 0B                           .BYTE    $B               ; OLine=3192
3193   78B3 6E                           .BYTE    $6E              ; OLine=3193
3194   78B4 C0                           .BYTE    $C0              ; OLine=3194
3195   78B5 52                           .BYTE    $52              ; OLine=3195
3196   78B6 6C                           .BYTE    $6C              ; OLine=3196
3197   78B7 92                           .BYTE    $92              ; OLine=3197
3198   78B8 B8                           .BYTE    $B8              ; OLine=3198
3199   78B9 50                           .BYTE    $50              ; OLine=3199
3200   78BA 4D                           .BYTE    $4D              ; OLine=3200
3201   78BB 82                           .BYTE    $82              ; OLine=3201
3202   78BC F2                           .BYTE    $F2              ; OLine=3202
3203   78BD 58                           .BYTE    $58              ; OLine=3203
3204   78BE 90                           .BYTE    $90              ; OLine=3204
3205   78BF 4C                           .BYTE    $4C              ; OLine=3205
3206   78C0 4D                           .BYTE    $4D              ; OLine=3206
3207   78C1 F0                           .BYTE    $F0              ; OLine=3207
3208   78C2 4C                           .BYTE    $4C              ; OLine=3208
3209   78C3 80                           .BYTE    $80              ; OLine=3209
3210   78C4 33                           .BYTE    $33              ; OLine=3210
3211   78C5 70                           .BYTE    $70              ; OLine=3211
3212   78C6 C2                           .BYTE    $C2              ; OLine=3212
3213   78C7 42                           .BYTE    $42              ; OLine=3213
3214   78C8 5A                           .BYTE    $5A              ; OLine=3214
3215   78C9 4C                           .BYTE    $4C              ; OLine=3215
3216   78CA 4C                           .BYTE    $4C              ; OLine=3216
3217   78CB 82                           .BYTE    $82              ; OLine=3217
3218   78CC BB                           .BYTE    $BB              ; OLine=3218
3219   78CD 52                           .BYTE    $52              ; OLine=3219
3220   78CE 0B                           .BYTE    $B               ; OLine=3220
3221   78CF 58                           .BYTE    $58              ; OLine=3221
3222   78D0 B2                           .BYTE    $B2              ; OLine=3222
3223   78D1 42                           .BYTE    $42              ; OLine=3223
3224   78D2 6C                           .BYTE    $6C              ; OLine=3224
3225   78D3 9A                           .BYTE    $9A              ; OLine=3225
3226   78D4 C3                           .BYTE    $C3              ; OLine=3226
3227   78D5 4A                           .BYTE    $4A              ; OLine=3227
3228   78D6 82                           .BYTE    $82              ; OLine=3228
3229   78D7 64                           .BYTE    $64              ; OLine=3229
3230   78D8 0A                           .BYTE    $A               ; OLine=3230
3231   78D9 5A                           .BYTE    $5A              ; OLine=3231
3232   78DA 90                           .BYTE    $90              ; OLine=3232
3233   78DB 00                           .BYTE    0                ; OLine=3233
3234   78DC F6                           .BYTE    $F6              ; OLine=3234
3235   78DD 6C                           .BYTE    $6C              ; OLine=3235
3236   78DE 09                           .BYTE    9                ; OLine=3236
3237   78DF B2                           .BYTE    $B2              ; OLine=3237
3238   78E0 3B                           .BYTE    $3B              ; OLine=3238
3239   78E1 2E                           .BYTE    $2E              ; OLine=3239
3240   78E2 C1                           .BYTE    $C1              ; OLine=3240
3241   78E3 4C                           .BYTE    $4C              ; OLine=3241
3242   78E4 4C                           .BYTE    $4C              ; OLine=3242
3243   78E5 B6                           .BYTE    $B6              ; OLine=3243
3244   78E6 2B                           .BYTE    $2B              ; OLine=3244
3245   78E7 20                           .BYTE    $20              ; OLine=3245
3246   78E8 0D                           .BYTE    $D               ; OLine=3246
3247   78E9 A6                           .BYTE    $A6              ; OLine=3247
3248   78EA C1                           .BYTE    $C1              ; OLine=3248
3249   78EB 70                           .BYTE    $70              ; OLine=3249
3250   78EC 48                           .BYTE    $48              ; OLine=3250
3251   78ED 50                           .BYTE    $50              ; OLine=3251
3252   78EE B6                           .BYTE    $B6              ; OLine=3252
3253   78EF 52                           .BYTE    $52              ; OLine=3253
3254   78F0 3B                           .BYTE    $3B              ; OLine=3254
3255   78F1 D2                           .BYTE    $D2              ; OLine=3255
3256   78F2 90                           .BYTE    $90              ; OLine=3256
3257   78F3 00                           .BYTE    0                ; OLine=3257
3258   78F4 DA                           .BYTE    $DA              ; OLine=3258
3259   78F5 64                           .BYTE    $64              ; OLine=3259
3260   78F6 90                           .BYTE    $90              ; OLine=3260
3261   78F7 4C                           .BYTE    $4C              ; OLine=3261
3262   78F8 C9                           .BYTE    $C9              ; OLine=3262
3263   78F9 D8                           .BYTE    $D8              ; OLine=3263
3264   78FA BE                           .BYTE    $BE              ; OLine=3264
3265   78FB 0A                           .BYTE    $A               ; OLine=3265
3266   78FC 32                           .BYTE    $32              ; OLine=3266
3267   78FD 42                           .BYTE    $42              ; OLine=3267
3268   78FE 9B                           .BYTE    $9B              ; OLine=3268
3269   78FF C2                           .BYTE    $C2              ; OLine=3269
3270   7900 67                           .BYTE    $67              ; OLine=3270
3271   7901 68                           .BYTE    $68              ; OLine=3271
3272   7902 4D                           .BYTE    $4D              ; OLine=3272
3273   7903 AE                           .BYTE    $AE              ; OLine=3273
3274   7904 A1                           .BYTE    $A1              ; OLine=3274
3275   7905 4E                           .BYTE    $4E              ; OLine=3275
3276   7906 48                           .BYTE    $48              ; OLine=3276
3277   7907 50                           .BYTE    $50              ; OLine=3277
3278   7908 B6                           .BYTE    $B6              ; OLine=3278
3279   7909 52                           .BYTE    $52              ; OLine=3279
3280   790A 3B                           .BYTE    $3B              ; OLine=3280
3281   790B D2                           .BYTE    $D2              ; OLine=3281
3282   790C 90                           .BYTE    $90              ; OLine=3282
3283   790D 00                           .BYTE    0                ; OLine=3283
3284   790E BE                           .BYTE    $BE              ; OLine=3284
3285   790F 0A                           .BYTE    $A               ; OLine=3285
3286   7910 B6                           .BYTE    $B6              ; OLine=3286
3287   7911 1E                           .BYTE    $1E              ; OLine=3287
3288   7912 94                           .BYTE    $94              ; OLine=3288
3289   7913 D2                           .BYTE    $D2              ; OLine=3289
3290   7914 A2                           .BYTE    $A2              ; OLine=3290
3291   7915 92                           .BYTE    $92              ; OLine=3291
3292   7916 0A                           .BYTE    $A               ; OLine=3292
3293   7917 2C                           .BYTE    $2C              ; OLine=3293
3294   7918 CA                           .BYTE    $CA              ; OLine=3294
3295   7919 4E                           .BYTE    $4E              ; OLine=3295
3296   791A 7A                           .BYTE    $7A              ; OLine=3296
3297   791B 65                           .BYTE    $65              ; OLine=3297
3298   791C BD                           .BYTE    $BD              ; OLine=3298
3299   791D 1A                           .BYTE    $1A              ; OLine=3299
3300   791E 4C                           .BYTE    $4C              ; OLine=3300
3301   791F 12                           .BYTE    $12              ; OLine=3301
3302   7920 92                           .BYTE    $92              ; OLine=3302
3303   7921 13                           .BYTE    $13              ; OLine=3303
3304   7922 18                           .BYTE    $18              ; OLine=3304
3305   7923 62                           .BYTE    $62              ; OLine=3305
3306   7924 CA                           .BYTE    $CA              ; OLine=3306
3307   7925 64                           .BYTE    $64              ; OLine=3307
3308   7926 F2                           .BYTE    $F2              ; OLine=3308
3309   7927 42                           .BYTE    $42              ; OLine=3309
3310   7928 20                           .BYTE    $20              ; OLine=3310
3311   7929 6E                           .BYTE    $6E              ; OLine=3311
3312   792A A3                           .BYTE    $A3              ; OLine=3312
3313   792B 52                           .BYTE    $52              ; OLine=3313
3314   792C 82                           .BYTE    $82              ; OLine=3314
3315   792D 40                           .BYTE    $40              ; OLine=3315
3316   792E 18                           .BYTE    $18              ; OLine=3316
3317   792F 62                           .BYTE    $62              ; OLine=3317
3318   7930 CA                           .BYTE    $CA              ; OLine=3318
3319   7931 64                           .BYTE    $64              ; OLine=3319
3320   7932 F2                           .BYTE    $F2              ; OLine=3320
3321   7933 42                           .BYTE    $42              ; OLine=3321
3322   7934 18                           .BYTE    $18              ; OLine=3322
3323   7935 6E                           .BYTE    $6E              ; OLine=3323
3324   7936 A3                           .BYTE    $A3              ; OLine=3324
3325   7937 52                           .BYTE    $52              ; OLine=3325
3326   7938 80                           .BYTE    $80              ; OLine=3326
3327   7939 00                           .BYTE    0                ; OLine=3327
3328   793A 20                           .BYTE    $20              ; OLine=3328
3329   793B 62                           .BYTE    $62              ; OLine=3329
3330   793C CA                           .BYTE    $CA              ; OLine=3330
3331   793D 64                           .BYTE    $64              ; OLine=3331
3332   793E F2                           .BYTE    $F2              ; OLine=3332
3333   793F 64                           .BYTE    $64              ; OLine=3333
3334   7940 08                           .BYTE    8                ; OLine=3334
3335   7941 C2                           .BYTE    $C2              ; OLine=3335
3336   7942 BD                           .BYTE    $BD              ; OLine=3336
3337   7943 1A                           .BYTE    $1A              ; OLine=3337
3338   7944 4C                           .BYTE    $4C              ; OLine=3338
3339   7945 00                           .BYTE    0                ; OLine=3339
3340   7946                                                        
3341   7946 0B                           .BYTE    $B               ; OLine=3341
3342   7947 15                           .BYTE    $15              ; OLine=3342
3343   7948 19                           .BYTE    $19              ; OLine=3343
3344   7949 31                           .BYTE    $31              ; OLine=3344
3345   794A 41                           .BYTE    $41              ; OLine=3345
3346   794B 57                           .BYTE    $57              ; OLine=3346
3347   794C 73                           .BYTE    $73              ; OLine=3347
3348   794D 7F                           .BYTE    $7F              ; OLine=3348
3349   794E 89                           .BYTE    $89              ; OLine=3349
3350   794F 95                           .BYTE    $95              ; OLine=3350
3351   7950 A1                           .BYTE    $A1              ; OLine=3351
3352   7951                                                        
3353   7951 8A                           .BYTE    $8A              ; OLine=3353
3354   7952 5A                           .BYTE    $5A              ; OLine=3354
3355   7953 84                           .BYTE    $84              ; OLine=3355
3356   7954 12                           .BYTE    $12              ; OLine=3356
3357   7955 CD                           .BYTE    $CD              ; OLine=3357
3358   7956 82                           .BYTE    $82              ; OLine=3358
3359   7957 B9                           .BYTE    $B9              ; OLine=3359
3360   7958 E6                           .BYTE    $E6              ; OLine=3360
3361   7959 B2                           .BYTE    $B2              ; OLine=3361
3362   795A 40                           .BYTE    $40              ; OLine=3362
3363   795B 74                           .BYTE    $74              ; OLine=3363
3364   795C F2                           .BYTE    $F2              ; OLine=3364
3365   795D 4D                           .BYTE    $4D              ; OLine=3365
3366   795E 83                           .BYTE    $83              ; OLine=3366
3367   795F D4                           .BYTE    $D4              ; OLine=3367
3368   7960 F0                           .BYTE    $F0              ; OLine=3368
3369   7961 B2                           .BYTE    $B2              ; OLine=3369
3370   7962 42                           .BYTE    $42              ; OLine=3370
3371   7963 B9                           .BYTE    $B9              ; OLine=3371
3372   7964 E6                           .BYTE    $E6              ; OLine=3372
3373   7965 B2                           .BYTE    $B2              ; OLine=3373
3374   7966 42                           .BYTE    $42              ; OLine=3374
3375   7967 4D                           .BYTE    $4D              ; OLine=3375
3376   7968 F0                           .BYTE    $F0              ; OLine=3376
3377   7969 0E                           .BYTE    $E               ; OLine=3377
3378   796A 64                           .BYTE    $64              ; OLine=3378
3379   796B 0A                           .BYTE    $A               ; OLine=3379
3380   796C 12                           .BYTE    $12              ; OLine=3380
3381   796D B8                           .BYTE    $B8              ; OLine=3381
3382   796E 46                           .BYTE    $46              ; OLine=3382
3383   796F 10                           .BYTE    $10              ; OLine=3383
3384   7970 62                           .BYTE    $62              ; OLine=3384
3385   7971 4B                           .BYTE    $4B              ; OLine=3385
3386   7972 60                           .BYTE    $60              ; OLine=3386
3387   7973 82                           .BYTE    $82              ; OLine=3387
3388   7974 72                           .BYTE    $72              ; OLine=3388
3389   7975 B5                           .BYTE    $B5              ; OLine=3389
3390   7976 C0                           .BYTE    $C0              ; OLine=3390
3391   7977 BE                           .BYTE    $BE              ; OLine=3391
3392   7978 A8                           .BYTE    $A8              ; OLine=3392
3393   7979 0A                           .BYTE    $A               ; OLine=3393
3394   797A 64                           .BYTE    $64              ; OLine=3394
3395   797B C5                           .BYTE    $C5              ; OLine=3395
3396   797C 92                           .BYTE    $92              ; OLine=3396
3397   797D F0                           .BYTE    $F0              ; OLine=3397
3398   797E 74                           .BYTE    $74              ; OLine=3398
3399   797F 9D                           .BYTE    $9D              ; OLine=3399
3400   7980 C2                           .BYTE    $C2              ; OLine=3400
3401   7981 6C                           .BYTE    $6C              ; OLine=3401
3402   7982 9A                           .BYTE    $9A              ; OLine=3402
3403   7983 C3                           .BYTE    $C3              ; OLine=3403
3404   7984 4A                           .BYTE    $4A              ; OLine=3404
3405   7985 82                           .BYTE    $82              ; OLine=3405
3406   7986 6F                           .BYTE    $6F              ; OLine=3406
3407   7987 A4                           .BYTE    $A4              ; OLine=3407
3408   7988 F2                           .BYTE    $F2              ; OLine=3408
3409   7989 BD                           .BYTE    $BD              ; OLine=3409
3410   798A D2                           .BYTE    $D2              ; OLine=3410
3411   798B F0                           .BYTE    $F0              ; OLine=3411
3412   798C 6C                           .BYTE    $6C              ; OLine=3412
3413   798D 9E                           .BYTE    $9E              ; OLine=3413
3414   798E 0A                           .BYTE    $A               ; OLine=3414
3415   798F C2                           .BYTE    $C2              ; OLine=3415
3416   7990 42                           .BYTE    $42              ; OLine=3416
3417   7991 A4                           .BYTE    $A4              ; OLine=3417
3418   7992 F2                           .BYTE    $F2              ; OLine=3418
3419   7993 B0                           .BYTE    $B0              ; OLine=3419
3420   7994 74                           .BYTE    $74              ; OLine=3420
3421   7995 9D                           .BYTE    $9D              ; OLine=3421
3422   7996 C2                           .BYTE    $C2              ; OLine=3422
3423   7997 6C                           .BYTE    $6C              ; OLine=3423
3424   7998 9A                           .BYTE    $9A              ; OLine=3424
3425   7999 C3                           .BYTE    $C3              ; OLine=3425
3426   799A 4A                           .BYTE    $4A              ; OLine=3426
3427   799B 82                           .BYTE    $82              ; OLine=3427
3428   799C 6F                           .BYTE    $6F              ; OLine=3428
3429   799D A4                           .BYTE    $A4              ; OLine=3429
3430   799E F2                           .BYTE    $F2              ; OLine=3430
3431   799F BD                           .BYTE    $BD              ; OLine=3431
3432   79A0 D2                           .BYTE    $D2              ; OLine=3432
3433   79A1 F0                           .BYTE    $F0              ; OLine=3433
3434   79A2 58                           .BYTE    $58              ; OLine=3434
3435   79A3 ED                           .BYTE    $ED              ; OLine=3435
3436   79A4 12                           .BYTE    $12              ; OLine=3436
3437   79A5 B5                           .BYTE    $B5              ; OLine=3437
3438   79A6 E8                           .BYTE    $E8              ; OLine=3438
3439   79A7 29                           .BYTE    $29              ; OLine=3439
3440   79A8 D2                           .BYTE    $D2              ; OLine=3440
3441   79A9 0D                           .BYTE    $D               ; OLine=3441
3442   79AA 72                           .BYTE    $72              ; OLine=3442
3443   79AB 2C                           .BYTE    $2C              ; OLine=3443
3444   79AC 90                           .BYTE    $90              ; OLine=3444
3445   79AD 0C                           .BYTE    $C               ; OLine=3445
3446   79AE 12                           .BYTE    $12              ; OLine=3446
3447   79AF C6                           .BYTE    $C6              ; OLine=3447
3448   79B0 2C                           .BYTE    $2C              ; OLine=3448
3449   79B1 48                           .BYTE    $48              ; OLine=3449
3450   79B2 4E                           .BYTE    $4E              ; OLine=3450
3451   79B3 9D                           .BYTE    $9D              ; OLine=3451
3452   79B4 AC                           .BYTE    $AC              ; OLine=3452
3453   79B5 49                           .BYTE    $49              ; OLine=3453
3454   79B6 F0                           .BYTE    $F0              ; OLine=3454
3455   79B7 48                           .BYTE    $48              ; OLine=3455
3456   79B8 00                           .BYTE    0                ; OLine=3456
3457   79B9 2D                           .BYTE    $2D              ; OLine=3457
3458   79BA 28                           .BYTE    $28              ; OLine=3458
3459   79BB CF                           .BYTE    $CF              ; OLine=3459
3460   79BC 52                           .BYTE    $52              ; OLine=3460
3461   79BD B0                           .BYTE    $B0              ; OLine=3461
3462   79BE 6E                           .BYTE    $6E              ; OLine=3462
3463   79BF CD                           .BYTE    $CD              ; OLine=3463
3464   79C0 82                           .BYTE    $82              ; OLine=3464
3465   79C1 BE                           .BYTE    $BE              ; OLine=3465
3466   79C2 0A                           .BYTE    $A               ; OLine=3466
3467   79C3 B6                           .BYTE    $B6              ; OLine=3467
3468   79C4 00                           .BYTE    0                ; OLine=3468
3469   79C5 53                           .BYTE    $53              ; OLine=3469
3470   79C6 64                           .BYTE    $64              ; OLine=3470
3471   79C7 0A                           .BYTE    $A               ; OLine=3471
3472   79C8 12                           .BYTE    $12              ; OLine=3472
3473   79C9 0D                           .BYTE    $D               ; OLine=3473
3474   79CA 0A                           .BYTE    $A               ; OLine=3474
3475   79CB B6                           .BYTE    $B6              ; OLine=3475
3476   79CC 1A                           .BYTE    $1A              ; OLine=3476
3477   79CD 48                           .BYTE    $48              ; OLine=3477
3478   79CE 00                           .BYTE    0                ; OLine=3478
3479   79CF 18                           .BYTE    $18              ; OLine=3479
3480   79D0 68                           .BYTE    $68              ; OLine=3480
3481   79D1 6A                           .BYTE    $6A              ; OLine=3481
3482   79D2 4E                           .BYTE    $4E              ; OLine=3482
3483   79D3 48                           .BYTE    $48              ; OLine=3483
3484   79D4 48                           .BYTE    $48              ; OLine=3484
3485   79D5 0B                           .BYTE    $B               ; OLine=3485
3486   79D6 A6                           .BYTE    $A6              ; OLine=3486
3487   79D7 CA                           .BYTE    $CA              ; OLine=3487
3488   79D8 72                           .BYTE    $72              ; OLine=3488
3489   79D9 B5                           .BYTE    $B5              ; OLine=3489
3490   79DA C0                           .BYTE    $C0              ; OLine=3490
3491   79DB 18                           .BYTE    $18              ; OLine=3491
3492   79DC 68                           .BYTE    $68              ; OLine=3492
3493   79DD 6A                           .BYTE    $6A              ; OLine=3493
3494   79DE 4E                           .BYTE    $4E              ; OLine=3494
3495   79DF 48                           .BYTE    $48              ; OLine=3495
3496   79E0 46                           .BYTE    $46              ; OLine=3496
3497   79E1 0B                           .BYTE    $B               ; OLine=3497
3498   79E2 A6                           .BYTE    $A6              ; OLine=3498
3499   79E3 CA                           .BYTE    $CA              ; OLine=3499
3500   79E4 72                           .BYTE    $72              ; OLine=3500
3501   79E5 B0                           .BYTE    $B0              ; OLine=3501
3502   79E6 00                           .BYTE    0                ; OLine=3502
3503   79E7 20                           .BYTE    $20              ; OLine=3503
3504   79E8 68                           .BYTE    $68              ; OLine=3504
3505   79E9 6A                           .BYTE    $6A              ; OLine=3505
3506   79EA 4E                           .BYTE    $4E              ; OLine=3506
3507   79EB 4D                           .BYTE    $4D              ; OLine=3507
3508   79EC C2                           .BYTE    $C2              ; OLine=3508
3509   79ED 18                           .BYTE    $18              ; OLine=3509
3510   79EE 5C                           .BYTE    $5C              ; OLine=3510
3511   79EF 9E                           .BYTE    $9E              ; OLine=3511
3512   79F0 52                           .BYTE    $52              ; OLine=3512
3513   79F1 CD                           .BYTE    $CD              ; OLine=3513
3514   79F2 80                           .BYTE    $80              ; OLine=3514
3515   79F3                                                        
3516   79F3 0B                           .BYTE    $B               ; OLine=3516
3517   79F4 11                           .BYTE    $11              ; OLine=3517
3518   79F5 17                           .BYTE    $17              ; OLine=3518
3519   79F6 31                           .BYTE    $31              ; OLine=3519
3520   79F7 45                           .BYTE    $45              ; OLine=3520
3521   79F8 5F                           .BYTE    $5F              ; OLine=3521
3522   79F9 6B                           .BYTE    $6B              ; OLine=3522
3523   79FA 73                           .BYTE    $73              ; OLine=3523
3524   79FB 7D                           .BYTE    $7D              ; OLine=3524
3525   79FC 89                           .BYTE    $89              ; OLine=3525
3526   79FD 93                           .BYTE    $93              ; OLine=3526
3527   79FE                                                        
3528   79FE B2                           .BYTE    $B2              ; OLine=3528
3529   79FF 4E                           .BYTE    $4E              ; OLine=3529
3530   7A00 9D                           .BYTE    $9D              ; OLine=3530
3531   7A01 90                           .BYTE    $90              ; OLine=3531
3532   7A02 B8                           .BYTE    $B8              ; OLine=3532
3533   7A03 00                           .BYTE    0                ; OLine=3533
3534   7A04 76                           .BYTE    $76              ; OLine=3534
3535   7A05 56                           .BYTE    $56              ; OLine=3535
3536   7A06 2A                           .BYTE    $2A              ; OLine=3536
3537   7A07 26                           .BYTE    $26              ; OLine=3537
3538   7A08 B0                           .BYTE    $B0              ; OLine=3538
3539   7A09 40                           .BYTE    $40              ; OLine=3539
3540   7A0A BE                           .BYTE    $BE              ; OLine=3540
3541   7A0B 42                           .BYTE    $42              ; OLine=3541
3542   7A0C A6                           .BYTE    $A6              ; OLine=3542
3543   7A0D 64                           .BYTE    $64              ; OLine=3543
3544   7A0E C1                           .BYTE    $C1              ; OLine=3544
3545   7A0F 5C                           .BYTE    $5C              ; OLine=3545
3546   7A10 48                           .BYTE    $48              ; OLine=3546
3547   7A11 52                           .BYTE    $52              ; OLine=3547
3548   7A12 BE                           .BYTE    $BE              ; OLine=3548
3549   7A13 0A                           .BYTE    $A               ; OLine=3549
3550   7A14 0A                           .BYTE    $A               ; OLine=3550
3551   7A15 64                           .BYTE    $64              ; OLine=3551
3552   7A16 C5                           .BYTE    $C5              ; OLine=3552
3553   7A17 92                           .BYTE    $92              ; OLine=3553
3554   7A18 0C                           .BYTE    $C               ; OLine=3554
3555   7A19 26                           .BYTE    $26              ; OLine=3555
3556   7A1A B8                           .BYTE    $B8              ; OLine=3556
3557   7A1B 50                           .BYTE    $50              ; OLine=3557
3558   7A1C 6A                           .BYTE    $6A              ; OLine=3558
3559   7A1D 7C                           .BYTE    $7C              ; OLine=3559
3560   7A1E 0C                           .BYTE    $C               ; OLine=3560
3561   7A1F 52                           .BYTE    $52              ; OLine=3561
3562   7A20 74                           .BYTE    $74              ; OLine=3562
3563   7A21 EC                           .BYTE    $EC              ; OLine=3563
3564   7A22 4D                           .BYTE    $4D              ; OLine=3564
3565   7A23 C0                           .BYTE    $C0              ; OLine=3565
3566   7A24 A4                           .BYTE    $A4              ; OLine=3566
3567   7A25 EC                           .BYTE    $EC              ; OLine=3567
3568   7A26 0A                           .BYTE    $A               ; OLine=3568
3569   7A27 8A                           .BYTE    $8A              ; OLine=3569
3570   7A28 D4                           .BYTE    $D4              ; OLine=3570
3571   7A29 EC                           .BYTE    $EC              ; OLine=3571
3572   7A2A 0A                           .BYTE    $A               ; OLine=3572
3573   7A2B 64                           .BYTE    $64              ; OLine=3573
3574   7A2C C5                           .BYTE    $C5              ; OLine=3574
3575   7A2D 92                           .BYTE    $92              ; OLine=3575
3576   7A2E 0D                           .BYTE    $D               ; OLine=3576
3577   7A2F F2                           .BYTE    $F2              ; OLine=3577
3578   7A30 B8                           .BYTE    $B8              ; OLine=3578
3579   7A31 5A                           .BYTE    $5A              ; OLine=3579
3580   7A32 93                           .BYTE    $93              ; OLine=3580
3581   7A33 4E                           .BYTE    $4E              ; OLine=3581
3582   7A34 69                           .BYTE    $69              ; OLine=3582
3583   7A35 60                           .BYTE    $60              ; OLine=3583
3584   7A36 4D                           .BYTE    $4D              ; OLine=3584
3585   7A37 C0                           .BYTE    $C0              ; OLine=3585
3586   7A38 9D                           .BYTE    $9D              ; OLine=3586
3587   7A39 2C                           .BYTE    $2C              ; OLine=3587
3588   7A3A 6C                           .BYTE    $6C              ; OLine=3588
3589   7A3B 4A                           .BYTE    $4A              ; OLine=3589
3590   7A3C 0D                           .BYTE    $D               ; OLine=3590
3591   7A3D A6                           .BYTE    $A6              ; OLine=3591
3592   7A3E C1                           .BYTE    $C1              ; OLine=3592
3593   7A3F 70                           .BYTE    $70              ; OLine=3593
3594   7A40 48                           .BYTE    $48              ; OLine=3594
3595   7A41 68                           .BYTE    $68              ; OLine=3595
3596   7A42 2D                           .BYTE    $2D              ; OLine=3596
3597   7A43 8A                           .BYTE    $8A              ; OLine=3597
3598   7A44 0D                           .BYTE    $D               ; OLine=3598
3599   7A45 D2                           .BYTE    $D2              ; OLine=3599
3600   7A46 82                           .BYTE    $82              ; OLine=3600
3601   7A47 4E                           .BYTE    $4E              ; OLine=3601
3602   7A48 3B                           .BYTE    $3B              ; OLine=3602
3603   7A49 66                           .BYTE    $66              ; OLine=3603
3604   7A4A 91                           .BYTE    $91              ; OLine=3604
3605   7A4B 6C                           .BYTE    $6C              ; OLine=3605
3606   7A4C 0C                           .BYTE    $C               ; OLine=3606
3607   7A4D 0A                           .BYTE    $A               ; OLine=3607
3608   7A4E 0C                           .BYTE    $C               ; OLine=3608
3609   7A4F 12                           .BYTE    $12              ; OLine=3609
3610   7A50 C5                           .BYTE    $C5              ; OLine=3610
3611   7A51 8B                           .BYTE    $8B              ; OLine=3611
3612   7A52 9D                           .BYTE    $9D              ; OLine=3612
3613   7A53 2C                           .BYTE    $2C              ; OLine=3613
3614   7A54 6C                           .BYTE    $6C              ; OLine=3614
3615   7A55 4A                           .BYTE    $4A              ; OLine=3615
3616   7A56 0B                           .BYTE    $B               ; OLine=3616
3617   7A57 3A                           .BYTE    $3A              ; OLine=3617
3618   7A58 A2                           .BYTE    $A2              ; OLine=3618
3619   7A59 6C                           .BYTE    $6C              ; OLine=3619
3620   7A5A BD                           .BYTE    $BD              ; OLine=3620
3621   7A5B 0A                           .BYTE    $A               ; OLine=3621
3622   7A5C 3A                           .BYTE    $3A              ; OLine=3622
3623   7A5D 40                           .BYTE    $40              ; OLine=3623
3624   7A5E A6                           .BYTE    $A6              ; OLine=3624
3625   7A5F 60                           .BYTE    $60              ; OLine=3625
3626   7A60 B9                           .BYTE    $B9              ; OLine=3626
3627   7A61 6C                           .BYTE    $6C              ; OLine=3627
3628   7A62 0D                           .BYTE    $D               ; OLine=3628
3629   7A63 F0                           .BYTE    $F0              ; OLine=3629
3630   7A64 2D                           .BYTE    $2D              ; OLine=3630
3631   7A65 B1                           .BYTE    $B1              ; OLine=3631
3632   7A66 76                           .BYTE    $76              ; OLine=3632
3633   7A67 52                           .BYTE    $52              ; OLine=3633
3634   7A68 5C                           .BYTE    $5C              ; OLine=3634
3635   7A69 C2                           .BYTE    $C2              ; OLine=3635
3636   7A6A C2                           .BYTE    $C2              ; OLine=3636
3637   7A6B 6C                           .BYTE    $6C              ; OLine=3637
3638   7A6C 8B                           .BYTE    $8B              ; OLine=3638
3639   7A6D 64                           .BYTE    $64              ; OLine=3639
3640   7A6E 2A                           .BYTE    $2A              ; OLine=3640
3641   7A6F 27                           .BYTE    $27              ; OLine=3641
3642   7A70 18                           .BYTE    $18              ; OLine=3642
3643   7A71 54                           .BYTE    $54              ; OLine=3643
3644   7A72 69                           .BYTE    $69              ; OLine=3644
3645   7A73 D8                           .BYTE    $D8              ; OLine=3645
3646   7A74 28                           .BYTE    $28              ; OLine=3646
3647   7A75 48                           .BYTE    $48              ; OLine=3647
3648   7A76 0B                           .BYTE    $B               ; OLine=3648
3649   7A77 B2                           .BYTE    $B2              ; OLine=3649
3650   7A78 4A                           .BYTE    $4A              ; OLine=3650
3651   7A79 E6                           .BYTE    $E6              ; OLine=3651
3652   7A7A B8                           .BYTE    $B8              ; OLine=3652
3653   7A7B 00                           .BYTE    0                ; OLine=3653
3654   7A7C 18                           .BYTE    $18              ; OLine=3654
3655   7A7D 54                           .BYTE    $54              ; OLine=3655
3656   7A7E 69                           .BYTE    $69              ; OLine=3656
3657   7A7F D8                           .BYTE    $D8              ; OLine=3657
3658   7A80 28                           .BYTE    $28              ; OLine=3658
3659   7A81 46                           .BYTE    $46              ; OLine=3659
3660   7A82 0B                           .BYTE    $B               ; OLine=3660
3661   7A83 B2                           .BYTE    $B2              ; OLine=3661
3662   7A84 4A                           .BYTE    $4A              ; OLine=3662
3663   7A85 E7                           .BYTE    $E7              ; OLine=3663
3664   7A86 20                           .BYTE    $20              ; OLine=3664
3665   7A87 54                           .BYTE    $54              ; OLine=3665
3666   7A88 69                           .BYTE    $69              ; OLine=3666
3667   7A89 D8                           .BYTE    $D8              ; OLine=3667
3668   7A8A 2D                           .BYTE    $2D              ; OLine=3668
3669   7A8B C2                           .BYTE    $C2              ; OLine=3669
3670   7A8C 18                           .BYTE    $18              ; OLine=3670
3671   7A8D 5C                           .BYTE    $5C              ; OLine=3671
3672   7A8E CA                           .BYTE    $CA              ; OLine=3672
3673   7A8F 56                           .BYTE    $56              ; OLine=3673
3674   7A90 98                           .BYTE    $98              ; OLine=3674
3675   7A91 00                           .BYTE    0                ; OLine=3675
3676   7A92 52                           .BYTE    $52              ; OLine=3676
3677   7A93                                                        
3678   7A93                                                        
3679   7A93                                                        ;  ¦¦¦¦¦¦¦¦¦¦¦¦¦¦¦ S U B R O U T I N E ¦¦¦¦¦¦¦¦¦¦¦¦¦¦¦¦¦¦¦¦¦¦¦¦¦¦¦¦¦¦¦¦¦¦¦¦¦¦¦
3680   7A93                                                        
3681   7A93                                                        
3682   7A93             sub_7A93:                                  ; OLine=3682
3683   7A93 A2 02                        LDX      #2               ; OLine=3683
3684   7A95                                                        
3685   7A95             loc_7A95:                                  ; OLine=3685
3686   7A95 BD 00 24                     LDA      $2400,X          ; OLine=3686  Coin Switch
3687   7A98 0A                           ASL      A                ; OLine=3687  Shift High Bit To Carry
3688   7A99 B5 7A                        LDA      $7A,X            ; OLine=3688
3689   7A9B 29 1F                        AND      #$1F             ; OLine=3689  00011111
3690   7A9D 90 37                        BCC      loc_7AD6         ; OLine=3690  No Coin For This Slot, Branch
3691   7A9F F0 10                        BEQ      loc_7AB1         ; OLine=3691
3692   7AA1 C9 1B                        CMP      #$1B             ; OLine=3692
3693   7AA3 B0 0A                        BCS      loc_7AAF         ; OLine=3693 
3694   7AA5 A8                           TAY                       ; OLine=3694
3695   7AA6 A5 5E                        LDA      $5E              ; OLine=3695
3696   7AA8 29 07                        AND      #7               ; OLine=3696
3697   7AAA C9 07                        CMP      #7               ; OLine=3697 
3698   7AAC 98                           TYA                       ; OLine=3698
3699   7AAD 90 02                        BCC      loc_7AB1         ; OLine=3699 
3700   7AAF                                                        
3701   7AAF             loc_7AAF:                                  ; OLine=3701
3702   7AAF E9 01                        SBC      #1               ; OLine=3702 
3703   7AB1                                                        
3704   7AB1             loc_7AB1:                                  ; OLine=3704
3705   7AB1                                                        
3706   7AB1 95 7A                        STA      $7A,X            ; OLine=3706 
3707   7AB3 AD 06 20                     LDA      $2006            ; OLine=3707  Slam Switch
3708   7AB6 29 80                        AND      #$80             ; OLine=3708 
3709   7AB8 F0 04                        BEQ      loc_7ABE         ; OLine=3709  Valid Coin, Branch
3710   7ABA A9 F0                        LDA      #$F0             ; OLine=3710  Flag Ill Gotten Gain
3711   7ABC 85 72                        STA      $72              ; OLine=3711  Into Slam Switch Flag
3712   7ABE                                                        
3713   7ABE             loc_7ABE:                                  ; OLine=3713
3714   7ABE A5 72                        LDA      $72              ; OLine=3714  Honest Coin?
3715   7AC0 F0 08                        BEQ      loc_7ACA         ; OLine=3715  Yes, Branch
3716   7AC2 C6 72                        DEC      $72              ; OLine=3716
3717   7AC4 A9 00                        LDA      #0               ; OLine=3717
3718   7AC6 95 7A                        STA      $7A,X            ; OLine=3718
3719   7AC8 95 77                        STA      $77,X            ; OLine=3719 
3720   7ACA                                                        
3721   7ACA             loc_7ACA:                                  ; OLine=3721
3722   7ACA 18                           CLC                       ; OLine=3722 
3723   7ACB B5 77                        LDA      $77,X            ; OLine=3723
3724   7ACD F0 23                        BEQ      loc_7AF2         ; OLine=3724
3725   7ACF D6 77                        DEC      $77,X            ; OLine=3725 
3726   7AD1 D0 1F                        BNE      loc_7AF2         ; OLine=3726
3727   7AD3 38                           SEC                       ; OLine=3727 
3728   7AD4 B0 1C                        BCS      loc_7AF2         ; OLine=3728 
3729   7AD6                                                        
3730   7AD6             loc_7AD6:                                  ; OLine=3730
3731   7AD6 C9 1B                        CMP      #$1B             ; OLine=3731 
3732   7AD8 B0 09                        BCS      loc_7AE3         ; OLine=3732
3733   7ADA B5 7A                        LDA      $7A,X            ; OLine=3733 
3734   7ADC 69 20                        ADC      #$20             ; OLine=3734
3735   7ADE 90 D1                        BCC      loc_7AB1         ; OLine=3735
3736   7AE0 F0 01                        BEQ      loc_7AE3         ; OLine=3736 
3737   7AE2 18                           CLC                       ; OLine=3737
3738   7AE3                                                        
3739   7AE3             loc_7AE3:                                  ; OLine=3739
3740   7AE3                                                        
3741   7AE3 A9 1F                        LDA      #$1F             ; OLine=3741 
3742   7AE5 B0 CA                        BCS      loc_7AB1         ; OLine=3742
3743   7AE7 95 7A                        STA      $7A,X            ; OLine=3743 
3744   7AE9 B5 77                        LDA      $77,X            ; OLine=3744
3745   7AEB F0 01                        BEQ      loc_7AEE         ; OLine=3745
3746   7AED 38                           SEC                       ; OLine=3746 
3747   7AEE                                                        
3748   7AEE             loc_7AEE:                                  ; OLine=3748
3749   7AEE A9 78                        LDA      #$78             ; OLine=3749 
3750   7AF0 95 77                        STA      $77,X            ; OLine=3750 
3751   7AF2                                                        
3752   7AF2             loc_7AF2:                                  ; OLine=3752
3753   7AF2                                                        
3754   7AF2 90 23                        BCC      loc_7B17         ; OLine=3754 
3755   7AF4 A9 00                        LDA      #0               ; OLine=3755 
3756   7AF6 E0 01                        CPX      #1               ; OLine=3756 
3757   7AF8 90 16                        BCC      loc_7B10         ; OLine=3757 
3758   7AFA F0 0C                        BEQ      loc_7B08         ; OLine=3758 
3759   7AFC A5 71                        LDA      $71              ; OLine=3759  DIP Switch Bitmap
3760   7AFE 29 0C                        AND      #$C              ; OLine=3760  Mask Off Switches 5 & 6, Right Coin Slot Multiplier
3761   7B00 4A                           LSR      A                ; OLine=3761 
3762   7B01 4A                           LSR      A                ; OLine=3762 
3763   7B02 F0 0C                        BEQ      loc_7B10         ; OLine=3763  x1, Branch
3764   7B04 69 02                        ADC      #2               ; OLine=3764  2 + Set Bits From Settings = Total Coins After Multiplier
3765   7B06 D0 08                        BNE      loc_7B10         ; OLine=3765  Will Always Branch
3766   7B08                                                        
3767   7B08             loc_7B08:                                  ; OLine=3767
3768   7B08 A5 71                        LDA      $71              ; OLine=3768 
3769   7B0A 29 10                        AND      #$10             ; OLine=3769 
3770   7B0C F0 02                        BEQ      loc_7B10         ; OLine=3770 
3771   7B0E A9 01                        LDA      #1               ; OLine=3771 
3772   7B10                                                        
3773   7B10             loc_7B10:                                  ; OLine=3773
3774   7B10                                                        
3775   7B10 38                           SEC                       ; OLine=3775  Set Carry, This Will Add 1 To The Total
3776   7B11 65 73                        ADC      $73              ; OLine=3776 
3777   7B13 85 73                        STA      $73              ; OLine=3777 
3778   7B15 F6 74                        INC      $74,X            ; OLine=3778 
3779   7B17                                                        
3780   7B17             loc_7B17:                                  ; OLine=3780
3781   7B17 CA                           DEX                       ; OLine=3781
3782   7B18 30 03                        BMI      loc_7B1D         ; OLine=3782 
3783   7B1A 4C 95 7A                     JMP      loc_7A95         ; OLine=3783 
3784   7B1D                                                        ;  ---------------------------------------------------------------------------
3785   7B1D                                                        
3786   7B1D             loc_7B1D:                                  ; OLine=3786
3787   7B1D A5 71                        LDA      $71              ; OLine=3787  DIP Switch Settings
3788   7B1F 29 03                        AND      #3               ; OLine=3788  Mask Off Switches 7 & 8, Coins Per Play
3789   7B21 A8                           TAY                       ; OLine=3789 
3790   7B22 F0 12                        BEQ      loc_7B36         ; OLine=3790  Free Play, Branch
3791   7B24 4A                           LSR      A                ; OLine=3791 
3792   7B25 69 00                        ADC      #0               ; OLine=3792 
3793   7B27 49 FF                        EOR      #$FF             ; OLine=3793
3794   7B29 38                           SEC                       ; OLine=3794
3795   7B2A 65 73                        ADC      $73              ; OLine=3795 
3796   7B2C 90 0A                        BCC      loc_7B38         ; OLine=3796
3797   7B2E C0 02                        CPY      #2               ; OLine=3797
3798   7B30 B0 02                        BCS      loc_7B34         ; OLine=3798
3799   7B32 E6 70                        INC      $70              ; OLine=3799  Add Credit
3800   7B34                                                        
3801   7B34             loc_7B34:                                  ; OLine=3801
3802   7B34 E6 70                        INC      $70              ; OLine=3802  Add Credit
3803   7B36                                                        
3804   7B36             loc_7B36:                                  ; OLine=3804
3805   7B36 85 73                        STA      $73              ; OLine=3805 
3806   7B38                                                        
3807   7B38             loc_7B38:                                  ; OLine=3807
3808   7B38 A5 5E                        LDA      $5E              ; OLine=3808 
3809   7B3A 4A                           LSR      A                ; OLine=3809
3810   7B3B B0 27                        BCS      locret_7B64      ; OLine=3810
3811   7B3D A0 00                        LDY      #0               ; OLine=3811
3812   7B3F A2 02                        LDX      #2               ; OLine=3812 
3813   7B41                                                        
3814   7B41             loc_7B41:                                  ; OLine=3814
3815   7B41 B5 74                        LDA      $74,X            ; OLine=3815 
3816   7B43 F0 09                        BEQ      loc_7B4E         ; OLine=3816
3817   7B45 C9 10                        CMP      #$10             ; OLine=3817
3818   7B47 90 05                        BCC      loc_7B4E         ; OLine=3818
3819   7B49 69 EF                        ADC      #$EF             ; OLine=3819 
3820   7B4B C8                           INY                       ; OLine=3820
3821   7B4C 95 74                        STA      $74,X            ; OLine=3821 
3822   7B4E                                                        
3823   7B4E             loc_7B4E:                                  ; OLine=3823
3824   7B4E                                                        
3825   7B4E CA                           DEX                       ; OLine=3825 
3826   7B4F 10 F0                        BPL      loc_7B41         ; OLine=3826
3827   7B51 98                           TYA                       ; OLine=3827
3828   7B52 D0 10                        BNE      locret_7B64      ; OLine=3828
3829   7B54 A2 02                        LDX      #2               ; OLine=3829 
3830   7B56                                                        
3831   7B56             loc_7B56:                                  ; OLine=3831
3832   7B56 B5 74                        LDA      $74,X            ; OLine=3832 
3833   7B58 F0 07                        BEQ      loc_7B61         ; OLine=3833
3834   7B5A 18                           CLC                       ; OLine=3834
3835   7B5B 69 EF                        ADC      #$EF             ; OLine=3835
3836   7B5D 95 74                        STA      $74,X            ; OLine=3836 
3837   7B5F 30 03                        BMI      locret_7B64      ; OLine=3837 
3838   7B61                                                        
3839   7B61             loc_7B61:                                  ; OLine=3839
3840   7B61 CA                           DEX                       ; OLine=3840 
3841   7B62 10 F2                        BPL      loc_7B56         ; OLine=3841 
3842   7B64                                                        
3843   7B64             locret_7B64:                               ; OLine=3843
3844   7B64                                                        
3845   7B64 60                           RTS                       ; OLine=3845 
3846   7B65                                                        ;  End of function sub_7A93
3847   7B65                                                        
3848   7B65                                                        ;  ---------------------------------------------------------------------------
3849   7B65 48                           PHA                       ; OLine=3849 
3850   7B66 98                           TYA                       ; OLine=3850
3851   7B67 48                           PHA                       ; OLine=3851
3852   7B68 8A                           TXA                       ; OLine=3852
3853   7B69 48                           PHA                       ; OLine=3853 
3854   7B6A D8                           CLD                       ; OLine=3854
3855   7B6B AD FF 01                     LDA      $1FF             ; OLine=3855  Stack Space!
3856   7B6E 0D D0 01                     ORA      $1D0             ; OLine=3856 
3857   7B71                                                        
3858   7B71             loc_7B71:                                  ; OLine=3858
3859   7B71 D0 FE                        BNE      loc_7B71         ; OLine=3859  Endless Loop! Watchdog Will Time Out
3860   7B73 E6 5E                        INC      $5E              ; OLine=3860 
3861   7B75 A5 5E                        LDA      $5E              ; OLine=3861 
3862   7B77 29 03                        AND      #3               ; OLine=3862 
3863   7B79 D0 08                        BNE      loc_7B83         ; OLine=3863
3864   7B7B E6 5B                        INC      $5B              ; OLine=3864 
3865   7B7D A5 5B                        LDA      $5B              ; OLine=3865
3866   7B7F C9 04                        CMP      #4               ; OLine=3866 
3867   7B81                                                        
3868   7B81             loc_7B81:                                  ; OLine=3868
3869   7B81 B0 FE                        BCS      loc_7B81         ; OLine=3869  Endless Loop! Watchdog Will Time Out
3870   7B83                                                        
3871   7B83             loc_7B83:                                  ; OLine=3871
3872   7B83 20 93 7A                     JSR      sub_7A93         ; OLine=3872 
3873   7B86 A5 6F                        LDA      $6F              ; OLine=3873
3874   7B88 29 C7                        AND      #$C7             ; OLine=3874
3875   7B8A 24 74                        BIT      $74              ; OLine=3875
3876   7B8C 10 02                        BPL      loc_7B90         ; OLine=3876 
3877   7B8E 09 08                        ORA      #8               ; OLine=3877
3878   7B90                                                        
3879   7B90             loc_7B90:                                  ; OLine=3879
3880   7B90 24 75                        BIT      $75              ; OLine=3880 
3881   7B92 10 02                        BPL      loc_7B96         ; OLine=3881
3882   7B94 09 10                        ORA      #$10             ; OLine=3882 
3883   7B96                                                        
3884   7B96             loc_7B96:                                  ; OLine=3884
3885   7B96 24 76                        BIT      $76              ; OLine=3885 
3886   7B98 10 02                        BPL      loc_7B9C         ; OLine=3886
3887   7B9A 09 20                        ORA      #$20             ; OLine=3887 
3888   7B9C                                                        
3889   7B9C             loc_7B9C:                                  ; OLine=3889
3890   7B9C 85 6F                        STA      $6F              ; OLine=3890 
3891   7B9E 8D 00 32                     STA      $3200            ; OLine=3891 
3892   7BA1 A5 72                        LDA      $72              ; OLine=3892  Slam Switch Flag
3893   7BA3 F0 04                        BEQ      loc_7BA9         ; OLine=3893  Branch If Not Set
3894   7BA5 A9 80                        LDA      #$80             ; OLine=3894  Gonna Make Noise To Let 'Em Know They've Been Caught!
3895   7BA7 D0 0E                        BNE      loc_7BB7         ; OLine=3895  Will Always Branch
3896   7BA9                                                        
3897   7BA9             loc_7BA9:                                  ; OLine=3897
3898   7BA9 A5 68                        LDA      $68              ; OLine=3898  Bonus Ship Sound Timer
3899   7BAB F0 0A                        BEQ      loc_7BB7         ; OLine=3899 
3900   7BAD A5 5C                        LDA      $5C              ; OLine=3900  Fast Timer
3901   7BAF 6A                           ROR      A                ; OLine=3901
3902   7BB0 90 02                        BCC      loc_7BB4         ; OLine=3902 
3903   7BB2 C6 68                        DEC      $68              ; OLine=3903
3904   7BB4                                                        
3905   7BB4             loc_7BB4:                                  ; OLine=3905
3906   7BB4 6A                           ROR      A                ; OLine=3906 
3907   7BB5 6A                           ROR      A                ; OLine=3907
3908   7BB6 6A                           ROR      A                ; OLine=3908
3909   7BB7                                                        
3910   7BB7             loc_7BB7:                                  ; OLine=3910
3911   7BB7                                                        
3912   7BB7 8D 05 3C                     STA      $3C05            ; OLine=3912  Life Sound
3913   7BBA 68                           PLA                       ; OLine=3913
3914   7BBB AA                           TAX                       ; OLine=3914
3915   7BBC 68                           PLA                       ; OLine=3915
3916   7BBD A8                           TAY                       ; OLine=3916 
3917   7BBE 68                           PLA                       ; OLine=3917
3918   7BBF 40                           RTI                       ; OLine=3918
3919   7BC0                                                        
3920   7BC0                                                        ;  ¦¦¦¦¦¦¦¦¦¦¦¦¦¦¦ S U B R O U T I N E ¦¦¦¦¦¦¦¦¦¦¦¦¦¦¦¦¦¦¦¦¦¦¦¦¦¦¦¦¦¦¦¦¦¦¦¦¦¦¦
3921   7BC0                                                        
3922   7BC0                                                        
3923   7BC0             sub_7BC0:                                  ; OLine=3923
3924   7BC0                                                        
3925   7BC0 A9 B0                        LDA      #$B0             ; OLine=3925
3926   7BC2 A0 00                        LDY      #0               ; OLine=3926
3927   7BC4 91 02                        STA      (2),Y            ; OLine=3927
3928   7BC6 C8                           INY                       ; OLine=3928
3929   7BC7 91 02                        STA      (2),Y            ; OLine=3929
3930   7BC9 D0 6E                        BNE      sub_7C39         ; OLine=3930
3931   7BCB                                                        
3932   7BCB             loc_7BCB:                                  ; OLine=3932
3933   7BCB 90 04                        BCC      sub_7BD1         ; OLine=3933
3934   7BCD 29 0F                        AND      #$F              ; OLine=3934
3935   7BCF F0 05                        BEQ      loc_7BD6         ; OLine=3935
3936   7BD1                                                        ;  End of function sub_7BC0
3937   7BD1                                                        
3938   7BD1                                                        
3939   7BD1                                                        ;  ¦¦¦¦¦¦¦¦¦¦¦¦¦¦¦ S U B R O U T I N E ¦¦¦¦¦¦¦¦¦¦¦¦¦¦¦¦¦¦¦¦¦¦¦¦¦¦¦¦¦¦¦¦¦¦¦¦¦¦¦
3940   7BD1                                                        
3941   7BD1                                                        
3942   7BD1             sub_7BD1:                                  ; OLine=3942
3943   7BD1                                                        
3944   7BD1 29 0F                        AND      #$F              ; OLine=3944
3945   7BD3 18                           CLC                       ; OLine=3945
3946   7BD4 69 01                        ADC      #1               ; OLine=3946
3947   7BD6                                                        
3948   7BD6             loc_7BD6:                                  ; OLine=3948
3949   7BD6 08                           PHP                       ; OLine=3949
3950   7BD7 0A                           ASL      A                ; OLine=3950
3951   7BD8 A0 00                        LDY      #0               ; OLine=3951
3952   7BDA AA                           TAX                       ; OLine=3952
3953   7BDB BD D4 56                     LDA      $56D4,X          ; OLine=3953
3954   7BDE 91 02                        STA      (2),Y            ; OLine=3954
3955   7BE0 BD D5 56                     LDA      $56D5,X          ; OLine=3955
3956   7BE3 C8                           INY                       ; OLine=3956
3957   7BE4 91 02                        STA      (2),Y            ; OLine=3957
3958   7BE6 20 39 7C                     JSR      sub_7C39         ; OLine=3958
3959   7BE9 28                           PLP                       ; OLine=3959
3960   7BEA 60                           RTS                       ; OLine=3960
3961   7BEB                                                        ;  End of function sub_7BD1
3962   7BEB                                                        
3963   7BEB                                                        ;  ---------------------------------------------------------------------------
3964   7BEB 4A                           .BYTE    $4A              ; OLine=3964
3965   7BEC 29                           .BYTE    $29              ; OLine=3965
3966   7BED 0F                           .BYTE    $F               ; OLine=3966
3967   7BEE 09                           .BYTE    9                ; OLine=3967
3968   7BEF E0                           .BYTE    $E0              ; OLine=3968
3969   7BF0                                                        ;  ---------------------------------------------------------------------------
3970   7BF0                                                        
3971   7BF0             loc_7BF0:                                  ; OLine=3971
3972   7BF0 A0 01                        LDY      #1               ; OLine=3972
3973   7BF2 91 02                        STA      (2),Y            ; OLine=3973
3974   7BF4 88                           DEY                       ; OLine=3974
3975   7BF5 8A                           TXA                       ; OLine=3975
3976   7BF6 6A                           ROR      A                ; OLine=3976
3977   7BF7 91 02                        STA      (2),Y            ; OLine=3977
3978   7BF9 C8                           INY                       ; OLine=3978
3979   7BFA D0 3D                        BNE      sub_7C39         ; OLine=3979
3980   7BFC                                                        
3981   7BFC                                                        ;  ¦¦¦¦¦¦¦¦¦¦¦¦¦¦¦ S U B R O U T I N E ¦¦¦¦¦¦¦¦¦¦¦¦¦¦¦¦¦¦¦¦¦¦¦¦¦¦¦¦¦¦¦¦¦¦¦¦¦¦¦
3982   7BFC                                                        
3983   7BFC                                                        
3984   7BFC             sub_7BFC:                                  ; OLine=3984
3985   7BFC                                                        
3986   7BFC 4A                           LSR      A                ; OLine=3986
3987   7BFD 29 0F                        AND      #$F              ; OLine=3987
3988   7BFF 09 C0                        ORA      #$C0             ; OLine=3988
3989   7C01 D0 ED                        BNE      loc_7BF0         ; OLine=3989
3990   7C03                                                        ;  End of function sub_7BFC
3991   7C03                                                        
3992   7C03                                                        
3993   7C03                                                        ;  ¦¦¦¦¦¦¦¦¦¦¦¦¦¦¦ S U B R O U T I N E ¦¦¦¦¦¦¦¦¦¦¦¦¦¦¦¦¦¦¦¦¦¦¦¦¦¦¦¦¦¦¦¦¦¦¦¦¦¦¦
3994   7C03                                                        
3995   7C03                                                        
3996   7C03             sub_7C03:                                  ; OLine=3996
3997   7C03                                                        
3998   7C03 A0 00                        LDY      #0               ; OLine=3998
3999   7C05 84 05                        STY      5                ; OLine=3999
4000   7C07 84 07                        STY      7                ; OLine=4000
4001   7C09 0A                           ASL      A                ; OLine=4001
4002   7C0A 26 05                        ROL      5                ; OLine=4002
4003   7C0C 0A                           ASL      A                ; OLine=4003
4004   7C0D 26 05                        ROL      5                ; OLine=4004
4005   7C0F 85 04                        STA      4                ; OLine=4005
4006   7C11 8A                           TXA                       ; OLine=4006
4007   7C12 0A                           ASL      A                ; OLine=4007
4008   7C13 26 07                        ROL      7                ; OLine=4008
4009   7C15 0A                           ASL      A                ; OLine=4009
4010   7C16 26 07                        ROL      7                ; OLine=4010
4011   7C18 85 06                        STA      6                ; OLine=4011
4012   7C1A A2 04                        LDX      #4               ; OLine=4012
4013   7C1C                                                        ;  End of function sub_7C03
4014   7C1C                                                        
4015   7C1C                                                        
4016   7C1C                                                        ;  ¦¦¦¦¦¦¦¦¦¦¦¦¦¦¦ S U B R O U T I N E ¦¦¦¦¦¦¦¦¦¦¦¦¦¦¦¦¦¦¦¦¦¦¦¦¦¦¦¦¦¦¦¦¦¦¦¦¦¦¦
4017   7C1C                                                        
4018   7C1C                                                        
4019   7C1C             sub_7C1C:                                  ; OLine=4019
4020   7C1C B5 02                        LDA      2,X              ; OLine=4020
4021   7C1E A0 00                        LDY      #0               ; OLine=4021
4022   7C20 91 02                        STA      (2),Y            ; OLine=4022
4023   7C22 B5 03                        LDA      3,X              ; OLine=4023
4024   7C24 29 0F                        AND      #$F              ; OLine=4024
4025   7C26 09 A0                        ORA      #$A0             ; OLine=4025
4026   7C28 C8                           INY                       ; OLine=4026
4027   7C29 91 02                        STA      (2),Y            ; OLine=4027
4028   7C2B B5 00                        LDA      0,X              ; OLine=4028
4029   7C2D C8                           INY                       ; OLine=4029
4030   7C2E 91 02                        STA      (2),Y            ; OLine=4030
4031   7C30 B5 01                        LDA      1,X              ; OLine=4031
4032   7C32 29 0F                        AND      #$F              ; OLine=4032
4033   7C34 05 00                        ORA      0                ; OLine=4033
4034   7C36 C8                           INY                       ; OLine=4034
4035   7C37 91 02                        STA      (2),Y            ; OLine=4035
4036   7C39                                                        ;  End of function sub_7C1C
4037   7C39                                                        
4038   7C39                                                        
4039   7C39                                                        ;  ¦¦¦¦¦¦¦¦¦¦¦¦¦¦¦ S U B R O U T I N E ¦¦¦¦¦¦¦¦¦¦¦¦¦¦¦¦¦¦¦¦¦¦¦¦¦¦¦¦¦¦¦¦¦¦¦¦¦¦¦
4040   7C39                                                        
4041   7C39                                                        
4042   7C39             sub_7C39:                                  ; OLine=4042
4043   7C39                                                        
4044   7C39 98                           TYA                       ; OLine=4044
4045   7C3A 38                           SEC                       ; OLine=4045
4046   7C3B 65 02                        ADC      2                ; OLine=4046
4047   7C3D 85 02                        STA      2                ; OLine=4047
4048   7C3F 90 02                        BCC      locret_7C43      ; OLine=4048
4049   7C41 E6 03                        INC      3                ; OLine=4049
4050   7C43                                                        
4051   7C43             locret_7C43:                               ; OLine=4051
4052   7C43 60                           RTS                       ; OLine=4052
4053   7C44                                                        ;  End of function sub_7C39
4054   7C44                                                        
4055   7C44                                                        ;  ---------------------------------------------------------------------------
4056   7C44 A9                           .BYTE    $A9              ; OLine=4056
4057   7C45 D0                           .BYTE    $D0              ; OLine=4057
4058   7C46 4C                           .BYTE    $4C              ; OLine=4058
4059   7C47 C2                           .BYTE    $C2              ; OLine=4059
4060   7C48 7B                           .BYTE    $7B              ; OLine=4060
4061   7C49                                                        
4062   7C49                                                        ;  ¦¦¦¦¦¦¦¦¦¦¦¦¦¦¦ S U B R O U T I N E ¦¦¦¦¦¦¦¦¦¦¦¦¦¦¦¦¦¦¦¦¦¦¦¦¦¦¦¦¦¦¦¦¦¦¦¦¦¦¦
4063   7C49                                                        
4064   7C49                                                        
4065   7C49             sub_7C49:                                  ; OLine=4065
4066   7C49 A5 05                        LDA      5                ; OLine=4066
4067   7C4B C9 80                        CMP      #$80             ; OLine=4067
4068   7C4D 90 11                        BCC      loc_7C60         ; OLine=4068
4069   7C4F 49 FF                        EOR      #$FF             ; OLine=4069
4070   7C51 85 05                        STA      5                ; OLine=4070
4071   7C53 A5 04                        LDA      4                ; OLine=4071
4072   7C55 49 FF                        EOR      #$FF             ; OLine=4072
4073   7C57 69 00                        ADC      #0               ; OLine=4073
4074   7C59 85 04                        STA      4                ; OLine=4074
4075   7C5B 90 02                        BCC      loc_7C5F         ; OLine=4075
4076   7C5D E6 05                        INC      5                ; OLine=4076
4077   7C5F                                                        
4078   7C5F             loc_7C5F:                                  ; OLine=4078
4079   7C5F 38                           SEC                       ; OLine=4079
4080   7C60                                                        
4081   7C60             loc_7C60:                                  ; OLine=4081
4082   7C60 26 08                        ROL      8                ; OLine=4082
4083   7C62 A5 07                        LDA      7                ; OLine=4083
4084   7C64 C9 80                        CMP      #$80             ; OLine=4084
4085   7C66 90 11                        BCC      loc_7C79         ; OLine=4085
4086   7C68 49 FF                        EOR      #$FF             ; OLine=4086
4087   7C6A 85 07                        STA      7                ; OLine=4087
4088   7C6C A5 06                        LDA      6                ; OLine=4088
4089   7C6E 49 FF                        EOR      #$FF             ; OLine=4089
4090   7C70 69 00                        ADC      #0               ; OLine=4090
4091   7C72 85 06                        STA      6                ; OLine=4091
4092   7C74 90 02                        BCC      loc_7C78         ; OLine=4092
4093   7C76 E6 07                        INC      7                ; OLine=4093
4094   7C78                                                        
4095   7C78             loc_7C78:                                  ; OLine=4095
4096   7C78 38                           SEC                       ; OLine=4096
4097   7C79                                                        
4098   7C79             loc_7C79:                                  ; OLine=4098
4099   7C79 26 08                        ROL      8                ; OLine=4099
4100   7C7B A5 05                        LDA      5                ; OLine=4100
4101   7C7D 05 07                        ORA      7                ; OLine=4101
4102   7C7F F0 0A                        BEQ      loc_7C8B         ; OLine=4102
4103   7C81 A2 00                        LDX      #0               ; OLine=4103
4104   7C83 C9 02                        CMP      #2               ; OLine=4104
4105   7C85 B0 24                        BCS      loc_7CAB         ; OLine=4105
4106   7C87 A0 01                        LDY      #1               ; OLine=4106
4107   7C89 D0 10                        BNE      loc_7C9B         ; OLine=4107
4108   7C8B                                                        
4109   7C8B             loc_7C8B:                                  ; OLine=4109
4110   7C8B A0 02                        LDY      #2               ; OLine=4110
4111   7C8D A2 09                        LDX      #9               ; OLine=4111
4112   7C8F A5 04                        LDA      4                ; OLine=4112
4113   7C91 05 06                        ORA      6                ; OLine=4113
4114   7C93 F0 16                        BEQ      loc_7CAB         ; OLine=4114
4115   7C95 30 04                        BMI      loc_7C9B         ; OLine=4115
4116   7C97                                                        
4117   7C97             loc_7C97:                                  ; OLine=4117
4118   7C97 C8                           INY                       ; OLine=4118
4119   7C98 0A                           ASL      A                ; OLine=4119
4120   7C99 10 FC                        BPL      loc_7C97         ; OLine=4120
4121   7C9B                                                        
4122   7C9B             loc_7C9B:                                  ; OLine=4122
4123   7C9B                                                        
4124   7C9B 98                           TYA                       ; OLine=4124
4125   7C9C AA                           TAX                       ; OLine=4125
4126   7C9D A5 05                        LDA      5                ; OLine=4126
4127   7C9F                                                        
4128   7C9F             loc_7C9F:                                  ; OLine=4128
4129   7C9F 06 04                        ASL      4                ; OLine=4129
4130   7CA1 2A                           ROL      A                ; OLine=4130
4131   7CA2 06 06                        ASL      6                ; OLine=4131
4132   7CA4 26 07                        ROL      7                ; OLine=4132
4133   7CA6 88                           DEY                       ; OLine=4133
4134   7CA7 D0 F6                        BNE      loc_7C9F         ; OLine=4134
4135   7CA9 85 05                        STA      5                ; OLine=4135
4136   7CAB                                                        
4137   7CAB             loc_7CAB:                                  ; OLine=4137
4138   7CAB                                                        
4139   7CAB 8A                           TXA                       ; OLine=4139
4140   7CAC 38                           SEC                       ; OLine=4140
4141   7CAD E9 0A                        SBC      #$A              ; OLine=4141
4142   7CAF 49 FF                        EOR      #$FF             ; OLine=4142
4143   7CB1 0A                           ASL      A                ; OLine=4143
4144   7CB2 66 08                        ROR      8                ; OLine=4144
4145   7CB4 2A                           ROL      A                ; OLine=4145
4146   7CB5 66 08                        ROR      8                ; OLine=4146
4147   7CB7 2A                           ROL      A                ; OLine=4147
4148   7CB8 0A                           ASL      A                ; OLine=4148
4149   7CB9 85 08                        STA      8                ; OLine=4149
4150   7CBB A0 00                        LDY      #0               ; OLine=4150
4151   7CBD A5 06                        LDA      6                ; OLine=4151
4152   7CBF 91 02                        STA      (2),Y            ; OLine=4152
4153   7CC1 A5 08                        LDA      8                ; OLine=4153
4154   7CC3 29 F4                        AND      #$F4             ; OLine=4154
4155   7CC5 05 07                        ORA      7                ; OLine=4155
4156   7CC7 C8                           INY                       ; OLine=4156
4157   7CC8 91 02                        STA      (2),Y            ; OLine=4157
4158   7CCA A5 04                        LDA      4                ; OLine=4158
4159   7CCC C8                           INY                       ; OLine=4159
4160   7CCD 91 02                        STA      (2),Y            ; OLine=4160
4161   7CCF A5 08                        LDA      8                ; OLine=4161
4162   7CD1 29 02                        AND      #2               ; OLine=4162
4163   7CD3 0A                           ASL      A                ; OLine=4163
4164   7CD4 05 01                        ORA      1                ; OLine=4164
4165   7CD6 05 05                        ORA      5                ; OLine=4165
4166   7CD8 C8                           INY                       ; OLine=4166
4167   7CD9 91 02                        STA      (2),Y            ; OLine=4167
4168   7CDB 4C 39 7C                     JMP      sub_7C39         ; OLine=4168
4169   7CDE                                                        ;  End of function sub_7C49
4170   7CDE                                                        
4171   7CDE                                                        
4172   7CDE                                                        ;  ¦¦¦¦¦¦¦¦¦¦¦¦¦¦¦ S U B R O U T I N E ¦¦¦¦¦¦¦¦¦¦¦¦¦¦¦¦¦¦¦¦¦¦¦¦¦¦¦¦¦¦¦¦¦¦¦¦¦¦¦
4173   7CDE                                                        
4174   7CDE                                                        
4175   7CDE             sub_7CDE:                                  ; OLine=4175
4176   7CDE                                                        
4177   7CDE A2 00                        LDX      #0               ; OLine=4177
4178   7CE0                                                        ;  End of function sub_7CDE
4179   7CE0                                                        
4180   7CE0                                                        
4181   7CE0                                                        ;  ¦¦¦¦¦¦¦¦¦¦¦¦¦¦¦ S U B R O U T I N E ¦¦¦¦¦¦¦¦¦¦¦¦¦¦¦¦¦¦¦¦¦¦¦¦¦¦¦¦¦¦¦¦¦¦¦¦¦¦¦
4182   7CE0                                                        
4183   7CE0                                                        
4184   7CE0             sub_7CE0:                                  ; OLine=4184
4185   7CE0                                                        
4186   7CE0 A0 01                        LDY      #1               ; OLine=4186
4187   7CE2 91 02                        STA      (2),Y            ; OLine=4187
4188   7CE4 88                           DEY                       ; OLine=4188
4189   7CE5 98                           TYA                       ; OLine=4189
4190   7CE6 91 02                        STA      (2),Y            ; OLine=4190
4191   7CE8 C8                           INY                       ; OLine=4191
4192   7CE9 C8                           INY                       ; OLine=4192
4193   7CEA 91 02                        STA      (2),Y            ; OLine=4193
4194   7CEC C8                           INY                       ; OLine=4194
4195   7CED 8A                           TXA                       ; OLine=4195
4196   7CEE 91 02                        STA      (2),Y            ; OLine=4196
4197   7CF0 4C 39 7C                     JMP      sub_7C39         ; OLine=4197
4198   7CF3                                                        ;  End of function sub_7CE0
4199   7CF3                                                        
4200   7CF3                                                        ;  ---------------------------------------------------------------------------
4201   7CF3                                                        
4202   7CF3             loc_7CF3:                                  ; OLine=4202
4203   7CF3 A2 FE                        LDX      #$FE             ; OLine=4203
4204   7CF5 9A                           TXS                       ; OLine=4204
4205   7CF6 D8                           CLD                       ; OLine=4205
4206   7CF7 A9 00                        LDA      #0               ; OLine=4206
4207   7CF9 AA                           TAX                       ; OLine=4207
4208   7CFA                                                        
4209   7CFA             loc_7CFA:                                  ; OLine=4209
4210   7CFA CA                           DEX                       ; OLine=4210
4211   7CFB 9D 00 03                     STA      $300,X           ; OLine=4211
4212   7CFE 9D 00 02                     STA      $200,X           ; OLine=4212
4213   7D01 9D 00 01                     STA      $100,X           ; OLine=4213
4214   7D04 95 00                        STA      0,X              ; OLine=4214
4215   7D06 D0 F2                        BNE      loc_7CFA         ; OLine=4215 
4216   7D08 AC 07 20                     LDY      $2007            ; OLine=4216  Self test switch
4217   7D0B 30 43                        BMI      loc_7D50         ; OLine=4217
4218   7D0D E8                           INX                       ; OLine=4218
4219   7D0E 8E 00 40                     STX      $4000            ; OLine=4219
4220   7D11 A9 E2                        LDA      #$E2             ; OLine=4220
4221   7D13 8D 01 40                     STA      $4001            ; OLine=4221
4222   7D16 A9 B0                        LDA      #$B0             ; OLine=4222
4223   7D18 8D 03 40                     STA      $4003            ; OLine=4223
4224   7D1B 85 32                        STA      $32              ; OLine=4224
4225   7D1D 85 33                        STA      $33              ; OLine=4225
4226   7D1F A9 03                        LDA      #3               ; OLine=4226
4227   7D21 85 6F                        STA      $6F              ; OLine=4227
4228   7D23 8D 00 32                     STA      $3200            ; OLine=4228
4229   7D26 2D 00 28                     AND      $2800            ; OLine=4229  DIP switches 8 & 7: # Of Coins For Play
4230   7D29 85 71                        STA      $71              ; OLine=4230
4231   7D2B AD 01 28                     LDA      $2801            ; OLine=4231  DIP switches 6 & 5: Coin Multiplier, Right Slot
4232   7D2E 29 03                        AND      #3               ; OLine=4232
4233   7D30 0A                           ASL      A                ; OLine=4233
4234   7D31 0A                           ASL      A                ; OLine=4234
4235   7D32 05 71                        ORA      $71              ; OLine=4235
4236   7D34 85 71                        STA      $71              ; OLine=4236
4237   7D36 AD 02 28                     LDA      $2802            ; OLine=4237  DIP switches 4 & 3: 3 - # Of Starting Ships
4238   7D39 29 02                        AND      #2               ; OLine=4238  4 - Coin Multiplier Center/Left Slot
4239   7D3B 0A                           ASL      A                ; OLine=4239
4240   7D3C 0A                           ASL      A                ; OLine=4240
4241   7D3D 0A                           ASL      A                ; OLine=4241
4242   7D3E 05 71                        ORA      $71              ; OLine=4242
4243   7D40 85 71                        STA      $71              ; OLine=4243
4244   7D42 4C 03 68                     JMP      loc_6803         ; OLine=4244
4245   7D45                                                        
4246   7D45                                                        ;  ¦¦¦¦¦¦¦¦¦¦¦¦¦¦¦ S U B R O U T I N E ¦¦¦¦¦¦¦¦¦¦¦¦¦¦¦¦¦¦¦¦¦¦¦¦¦¦¦¦¦¦¦¦¦¦¦¦¦¦¦
4247   7D45                                                        
4248   7D45                                                        
4249   7D45             sub_7D45:                                  ; OLine=4249
4250   7D45                                                        
4251   7D45 A0 00                        LDY      #0               ; OLine=4251
4252   7D47 91 02                        STA      (2),Y            ; OLine=4252
4253   7D49 C8                           INY                       ; OLine=4253
4254   7D4A 8A                           TXA                       ; OLine=4254
4255   7D4B 91 02                        STA      (2),Y            ; OLine=4255
4256   7D4D 4C 39 7C                     JMP      sub_7C39         ; OLine=4256
4257   7D50                                                        ;  End of function sub_7D45
4258   7D50                                                        
4259   7D50                                                        ;  ---------------------------------------------------------------------------
4260   7D50                                                        
4261   7D50             loc_7D50:                                  ; OLine=4261
4262   7D50                                                        
4263   7D50 9D 00 40                     STA      $4000,X          ; OLine=4263
4264   7D53 9D 00 41                     STA      $4100,X          ; OLine=4264
4265   7D56 9D 00 42                     STA      $4200,X          ; OLine=4265
4266   7D59 9D 00 43                     STA      $4300,X          ; OLine=4266
4267   7D5C 9D 00 44                     STA      $4400,X          ; OLine=4267
4268   7D5F 9D 00 45                     STA      $4500,X          ; OLine=4268
4269   7D62 9D 00 46                     STA      $4600,X          ; OLine=4269
4270   7D65 9D 00 47                     STA      $4700,X          ; OLine=4270
4271   7D68 E8                           INX                       ; OLine=4271
4272   7D69 D0 E5                        BNE      loc_7D50         ; OLine=4272
4273   7D6B 8D 00 34                     STA      $3400            ; OLine=4273
4274   7D6E A2 00                        LDX      #0               ; OLine=4274
4275   7D70                                                        
4276   7D70             loc_7D70:                                  ; OLine=4276
4277   7D70 B5 00                        LDA      0,X              ; OLine=4277
4278   7D72 D0 47                        BNE      loc_7DBB         ; OLine=4278
4279   7D74 A9 11                        LDA      #$11             ; OLine=4279
4280   7D76                                                        
4281   7D76             loc_7D76:                                  ; OLine=4281
4282   7D76 95 00                        STA      0,X              ; OLine=4282
4283   7D78 A8                           TAY                       ; OLine=4283
4284   7D79 55 00                        EOR      0,X              ; OLine=4284
4285   7D7B D0 3E                        BNE      loc_7DBB         ; OLine=4285
4286   7D7D 98                           TYA                       ; OLine=4286
4287   7D7E 0A                           ASL      A                ; OLine=4287
4288   7D7F 90 F5                        BCC      loc_7D76         ; OLine=4288
4289   7D81 E8                           INX                       ; OLine=4289
4290   7D82 D0 EC                        BNE      loc_7D70         ; OLine=4290
4291   7D84 8D 00 34                     STA      $3400            ; OLine=4291
4292   7D87 8A                           TXA                       ; OLine=4292
4293   7D88 85 00                        STA      0                ; OLine=4293
4294   7D8A 2A                           ROL      A                ; OLine=4294
4295   7D8B                                                        
4296   7D8B             loc_7D8B:                                  ; OLine=4296
4297   7D8B 85 01                        STA      1                ; OLine=4297
4298   7D8D A0 00                        LDY      #0               ; OLine=4298
4299   7D8F                                                        
4300   7D8F             loc_7D8F:                                  ; OLine=4300
4301   7D8F                                                        
4302   7D8F A2 11                        LDX      #$11             ; OLine=4302
4303   7D91 B1 00                        LDA      (0),Y            ; OLine=4303
4304   7D93 D0 2A                        BNE      loc_7DBF         ; OLine=4304
4305   7D95                                                        
4306   7D95             loc_7D95:                                  ; OLine=4306
4307   7D95 8A                           TXA                       ; OLine=4307
4308   7D96 91 00                        STA      (0),Y            ; OLine=4308
4309   7D98 51 00                        EOR      (0),Y            ; OLine=4309
4310   7D9A D0 23                        BNE      loc_7DBF         ; OLine=4310
4311   7D9C 8A                           TXA                       ; OLine=4311
4312   7D9D 0A                           ASL      A                ; OLine=4312
4313   7D9E AA                           TAX                       ; OLine=4313
4314   7D9F 90 F4                        BCC      loc_7D95         ; OLine=4314
4315   7DA1 C8                           INY                       ; OLine=4315
4316   7DA2 D0 EB                        BNE      loc_7D8F         ; OLine=4316
4317   7DA4 8D 00 34                     STA      $3400            ; OLine=4317
4318   7DA7 E6 01                        INC      1                ; OLine=4318
4319   7DA9 A6 01                        LDX      1                ; OLine=4319
4320   7DAB E0 04                        CPX      #4               ; OLine=4320
4321   7DAD 90 E0                        BCC      loc_7D8F         ; OLine=4321
4322   7DAF A9 40                        LDA      #$40             ; OLine=4322
4323   7DB1 E0 40                        CPX      #$40             ; OLine=4323
4324   7DB3 90 D6                        BCC      loc_7D8B         ; OLine=4324
4325   7DB5 E0 48                        CPX      #$48             ; OLine=4325
4326   7DB7 90 D6                        BCC      loc_7D8F         ; OLine=4326
4327   7DB9 B0 69                        BCS      loc_7E24         ; OLine=4327
4328   7DBB                                                        
4329   7DBB             loc_7DBB:                                  ; OLine=4329
4330   7DBB                                                        
4331   7DBB A0 00                        LDY      #0               ; OLine=4331
4332   7DBD F0 0E                        BEQ      loc_7DCD         ; OLine=4332
4333   7DBF                                                        
4334   7DBF             loc_7DBF:                                  ; OLine=4334
4335   7DBF                                                        
4336   7DBF A0 00                        LDY      #0               ; OLine=4336
4337   7DC1 A6 01                        LDX      1                ; OLine=4337
4338   7DC3 E0 04                        CPX      #4               ; OLine=4338
4339   7DC5 90 06                        BCC      loc_7DCD         ; OLine=4339
4340   7DC7 C8                           INY                       ; OLine=4340
4341   7DC8 E0 44                        CPX      #$44             ; OLine=4341
4342   7DCA 90 01                        BCC      loc_7DCD         ; OLine=4342
4343   7DCC C8                           INY                       ; OLine=4343
4344   7DCD                                                        
4345   7DCD             loc_7DCD:                                  ; OLine=4345
4346   7DCD                                                        
4347   7DCD C9 10                        CMP      #$10             ; OLine=4347
4348   7DCF 2A                           ROL      A                ; OLine=4348
4349   7DD0 29 1F                        AND      #$1F             ; OLine=4349
4350   7DD2 C9 02                        CMP      #2               ; OLine=4350
4351   7DD4 2A                           ROL      A                ; OLine=4351
4352   7DD5 29 03                        AND      #3               ; OLine=4352
4353   7DD7                                                        
4354   7DD7             loc_7DD7:                                  ; OLine=4354
4355   7DD7 88                           DEY                       ; OLine=4355
4356   7DD8 30 04                        BMI      loc_7DDE         ; OLine=4356
4357   7DDA 0A                           ASL      A                ; OLine=4357
4358   7DDB 0A                           ASL      A                ; OLine=4358
4359   7DDC 90 F9                        BCC      loc_7DD7         ; OLine=4359
4360   7DDE                                                        
4361   7DDE             loc_7DDE:                                  ; OLine=4361
4362   7DDE                                                        
4363   7DDE 4A                           LSR      A                ; OLine=4363
4364   7DDF A2 14                        LDX      #$14             ; OLine=4364
4365   7DE1 90 02                        BCC      loc_7DE5         ; OLine=4365
4366   7DE3 A2 1D                        LDX      #$1D             ; OLine=4366
4367   7DE5                                                        
4368   7DE5             loc_7DE5:                                  ; OLine=4368
4369   7DE5 8E 00 3A                     STX      $3A00            ; OLine=4369
4370   7DE8 A2 00                        LDX      #0               ; OLine=4370
4371   7DEA A0 08                        LDY      #8               ; OLine=4371
4372   7DEC                                                        
4373   7DEC             loc_7DEC:                                  ; OLine=4373
4374   7DEC                                                        
4375   7DEC 2C 01 20                     BIT      $2001            ; OLine=4375
4376   7DEF 10 FB                        BPL      loc_7DEC         ; OLine=4376
4377   7DF1                                                        
4378   7DF1             loc_7DF1:                                  ; OLine=4378
4379   7DF1 2C 01 20                     BIT      $2001            ; OLine=4379
4380   7DF4 30 FB                        BMI      loc_7DF1         ; OLine=4380
4381   7DF6 CA                           DEX                       ; OLine=4381
4382   7DF7 8D 00 34                     STA      $3400            ; OLine=4382
4383   7DFA D0 F0                        BNE      loc_7DEC         ; OLine=4383
4384   7DFC 88                           DEY                       ; OLine=4384
4385   7DFD D0 ED                        BNE      loc_7DEC         ; OLine=4385
4386   7DFF 8E 00 3A                     STX      $3A00            ; OLine=4386
4387   7E02 A0 08                        LDY      #8               ; OLine=4387
4388   7E04                                                        
4389   7E04             loc_7E04:                                  ; OLine=4389
4390   7E04                                                        
4391   7E04 2C 01 20                     BIT      $2001            ; OLine=4391
4392   7E07 10 FB                        BPL      loc_7E04         ; OLine=4392
4393   7E09                                                        
4394   7E09             loc_7E09:                                  ; OLine=4394
4395   7E09 2C 01 20                     BIT      $2001            ; OLine=4395
4396   7E0C 30 FB                        BMI      loc_7E09         ; OLine=4396
4397   7E0E CA                           DEX                       ; OLine=4397
4398   7E0F 8D 00 34                     STA      $3400            ; OLine=4398
4399   7E12 D0 F0                        BNE      loc_7E04         ; OLine=4399
4400   7E14 88                           DEY                       ; OLine=4400
4401   7E15 D0 ED                        BNE      loc_7E04         ; OLine=4401
4402   7E17 AA                           TAX                       ; OLine=4402
4403   7E18 D0 C4                        BNE      loc_7DDE         ; OLine=4403
4404   7E1A                                                        
4405   7E1A             loc_7E1A:                                  ; OLine=4405
4406   7E1A 8D 00 34                     STA      $3400            ; OLine=4406
4407   7E1D AD 07 20                     LDA      $2007            ; OLine=4407
4408   7E20 30 F8                        BMI      loc_7E1A         ; OLine=4408
4409   7E22                                                        
4410   7E22             loc_7E22:                                  ; OLine=4410
4411   7E22 10 FE                        BPL      loc_7E22         ; OLine=4411
4412   7E24                                                        
4413   7E24             loc_7E24:                                  ; OLine=4413
4414   7E24 A9 00                        LDA      #0               ; OLine=4414
4415   7E26 A8                           TAY                       ; OLine=4415
4416   7E27 AA                           TAX                       ; OLine=4416
4417   7E28 85 08                        STA      8                ; OLine=4417
4418   7E2A A9 50                        LDA      #$50             ; OLine=4418
4419   7E2C                                                        
4420   7E2C             loc_7E2C:                                  ; OLine=4420
4421   7E2C                                                        
4422   7E2C 85 09                        STA      9                ; OLine=4422
4423   7E2E A9 04                        LDA      #4               ; OLine=4423
4424   7E30 85 0B                        STA      $B               ; OLine=4424
4425   7E32 A9 FF                        LDA      #$FF             ; OLine=4425
4426   7E34                                                        
4427   7E34             loc_7E34:                                  ; OLine=4427
4428   7E34                                                        
4429   7E34 51 08                        EOR      (8),Y            ; OLine=4429
4430   7E36 C8                           INY                       ; OLine=4430
4431   7E37 D0 FB                        BNE      loc_7E34         ; OLine=4431
4432   7E39 E6 09                        INC      9                ; OLine=4432
4433   7E3B C6 0B                        DEC      $B               ; OLine=4433
4434   7E3D D0 F5                        BNE      loc_7E34         ; OLine=4434
4435   7E3F 95 0D                        STA      $D,X             ; OLine=4435
4436   7E41 E8                           INX                       ; OLine=4436
4437   7E42 8D 00 34                     STA      $3400            ; OLine=4437
4438   7E45 A5 09                        LDA      9                ; OLine=4438
4439   7E47 C9 58                        CMP      #$58             ; OLine=4439
4440   7E49 90 E1                        BCC      loc_7E2C         ; OLine=4440
4441   7E4B D0 02                        BNE      loc_7E4F         ; OLine=4441
4442   7E4D A9 68                        LDA      #$68             ; OLine=4442
4443   7E4F                                                        
4444   7E4F             loc_7E4F:                                  ; OLine=4444
4445   7E4F C9 80                        CMP      #$80             ; OLine=4445
4446   7E51 90 D9                        BCC      loc_7E2C         ; OLine=4446
4447   7E53 8D 00 03                     STA      $300             ; OLine=4447
4448   7E56 A2 04                        LDX      #4               ; OLine=4448
4449   7E58 8E 00 32                     STX      $3200            ; OLine=4449
4450   7E5B 86 15                        STX      $15              ; OLine=4450
4451   7E5D A2 00                        LDX      #0               ; OLine=4451
4452   7E5F CD 00 02                     CMP      $200             ; OLine=4452
4453   7E62 F0 01                        BEQ      loc_7E65         ; OLine=4453
4454   7E64 E8                           INX                       ; OLine=4454
4455   7E65                                                        
4456   7E65             loc_7E65:                                  ; OLine=4456
4457   7E65 AD 00 03                     LDA      $300             ; OLine=4457
4458   7E68 C9 88                        CMP      #$88             ; OLine=4458
4459   7E6A F0 01                        BEQ      loc_7E6D         ; OLine=4459
4460   7E6C E8                           INX                       ; OLine=4460
4461   7E6D                                                        
4462   7E6D             loc_7E6D:                                  ; OLine=4462
4463   7E6D 86 16                        STX      $16              ; OLine=4463
4464   7E6F A9 10                        LDA      #$10             ; OLine=4464
4465   7E71 85 00                        STA      0                ; OLine=4465
4466   7E73                                                        
4467   7E73             loc_7E73:                                  ; OLine=4467
4468   7E73 A2 24                        LDX      #$24             ; OLine=4468
4469   7E75                                                        
4470   7E75             loc_7E75:                                  ; OLine=4470
4471   7E75                                                        
4472   7E75 AD 01 20                     LDA      $2001            ; OLine=4472
4473   7E78 10 FB                        BPL      loc_7E75         ; OLine=4473
4474   7E7A                                                        
4475   7E7A             loc_7E7A:                                  ; OLine=4475
4476   7E7A AD 01 20                     LDA      $2001            ; OLine=4476
4477   7E7D 30 FB                        BMI      loc_7E7A         ; OLine=4477
4478   7E7F CA                           DEX                       ; OLine=4478
4479   7E80 10 F3                        BPL      loc_7E75         ; OLine=4479
4480   7E82                                                        
4481   7E82             loc_7E82:                                  ; OLine=4481
4482   7E82 2C 02 20                     BIT      $2002            ; OLine=4482
4483   7E85 30 FB                        BMI      loc_7E82         ; OLine=4483
4484   7E87 8D 00 34                     STA      $3400            ; OLine=4484
4485   7E8A A9 00                        LDA      #0               ; OLine=4485
4486   7E8C 85 02                        STA      2                ; OLine=4486
4487   7E8E A9 40                        LDA      #$40             ; OLine=4487
4488   7E90 85 03                        STA      3                ; OLine=4488
4489   7E92 AD 05 20                     LDA      $2005            ; OLine=4489
4490   7E95 10 5B                        BPL      loc_7EF2         ; OLine=4490
4491   7E97 A6 15                        LDX      $15              ; OLine=4491
4492   7E99 AD 03 20                     LDA      $2003            ; OLine=4492
4493   7E9C 10 0A                        BPL      loc_7EA8         ; OLine=4493
4494   7E9E                                                        ; EOR     $0009
4495   7E9E 4D 09 00                     .BYTE    $4D,$09,$00      ; OLine=4495
4496   7EA1 10 05                        BPL      loc_7EA8         ; OLine=4496
4497   7EA3 CA                           DEX                       ; OLine=4497
4498   7EA4 F0 02                        BEQ      loc_7EA8         ; OLine=4498
4499   7EA6 86 15                        STX      $15              ; OLine=4499
4500   7EA8                                                        
4501   7EA8             loc_7EA8:                                  ; OLine=4501
4502   7EA8                                                        
4503   7EA8 BC BB 7E                     LDY      $7EBB,X          ; OLine=4503
4504   7EAB A9 B0                        LDA      #$B0             ; OLine=4504
4505   7EAD 91 02                        STA      (2),Y            ; OLine=4505
4506   7EAF 88                           DEY                       ; OLine=4506
4507   7EB0 88                           DEY                       ; OLine=4507
4508   7EB1                                                        
4509   7EB1             loc_7EB1:                                  ; OLine=4509
4510   7EB1 B9 C0 7E                     LDA      $7EC0,Y          ; OLine=4510
4511   7EB4 91 02                        STA      (2),Y            ; OLine=4511
4512   7EB6 88                           DEY                       ; OLine=4512
4513   7EB7 10 F8                        BPL      loc_7EB1         ; OLine=4513
4514   7EB9 4C 9D 7F                     JMP      loc_7F9D         ; OLine=4514
4515   7EBC                                                        ;  ---------------------------------------------------------------------------
4516   7EBC 33                           .BYTE    $33              ; OLine=4516
4517   7EBD 1D                           .BYTE    $1D              ; OLine=4517
4518   7EBE 17                           .BYTE    $17              ; OLine=4518
4519   7EBF 0D                           .BYTE    $D               ; OLine=4519
4520   7EC0 80                           .BYTE    $80              ; OLine=4520
4521   7EC1 A0                           .BYTE    $A0              ; OLine=4521
4522   7EC2 00                           .BYTE    0                ; OLine=4522
4523   7EC3 00                           .BYTE    0                ; OLine=4523
4524   7EC4 00                           .BYTE    0                ; OLine=4524
4525   7EC5 70                           .BYTE    $70              ; OLine=4525
4526   7EC6 00                           .BYTE    0                ; OLine=4526
4527   7EC7 00                           .BYTE    0                ; OLine=4527
4528   7EC8 FF                           .BYTE    $FF              ; OLine=4528
4529   7EC9 92                           .BYTE    $92              ; OLine=4529
4530   7ECA FF                           .BYTE    $FF              ; OLine=4530
4531   7ECB 73                           .BYTE    $73              ; OLine=4531
4532   7ECC D0                           .BYTE    $D0              ; OLine=4532
4533   7ECD A1                           .BYTE    $A1              ; OLine=4533
4534   7ECE 30                           .BYTE    $30              ; OLine=4534
4535   7ECF 02                           .BYTE    2                ; OLine=4535
4536   7ED0 00                           .BYTE    0                ; OLine=4536
4537   7ED1 70                           .BYTE    $70              ; OLine=4537
4538   7ED2 00                           .BYTE    0                ; OLine=4538
4539   7ED3 00                           .BYTE    0                ; OLine=4539
4540   7ED4 7F                           .BYTE    $7F              ; OLine=4540
4541   7ED5 FB                           .BYTE    $FB              ; OLine=4541
4542   7ED6 0D                           .BYTE    $D               ; OLine=4542
4543   7ED7 E0                           .BYTE    $E0              ; OLine=4543
4544   7ED8 00                           .BYTE    0                ; OLine=4544
4545   7ED9 B0                           .BYTE    $B0              ; OLine=4545
4546   7EDA 7E                           .BYTE    $7E              ; OLine=4546
4547   7EDB FA                           .BYTE    $FA              ; OLine=4547
4548   7EDC 11                           .BYTE    $11              ; OLine=4548
4549   7EDD C0                           .BYTE    $C0              ; OLine=4549
4550   7EDE 78                           .BYTE    $78              ; OLine=4550
4551   7EDF FE                           .BYTE    $FE              ; OLine=4551
4552   7EE0 00                           .BYTE    0                ; OLine=4552
4553   7EE1 B0                           .BYTE    $B0              ; OLine=4553
4554   7EE2 13                           .BYTE    $13              ; OLine=4554
4555   7EE3 C0                           .BYTE    $C0              ; OLine=4555
4556   7EE4 00                           .BYTE    0                ; OLine=4556
4557   7EE5 D0                           .BYTE    $D0              ; OLine=4557
4558   7EE6 15                           .BYTE    $15              ; OLine=4558
4559   7EE7 C0                           .BYTE    $C0              ; OLine=4559
4560   7EE8 00                           .BYTE    0                ; OLine=4560
4561   7EE9 D0                           .BYTE    $D0              ; OLine=4561
4562   7EEA 17                           .BYTE    $17              ; OLine=4562
4563   7EEB C0                           .BYTE    $C0              ; OLine=4563
4564   7EEC 00                           .BYTE    0                ; OLine=4564
4565   7EED D0                           .BYTE    $D0              ; OLine=4565
4566   7EEE 7A                           .BYTE    $7A              ; OLine=4566
4567   7EEF F8                           .BYTE    $F8              ; OLine=4567
4568   7EF0 00                           .BYTE    0                ; OLine=4568
4569   7EF1 D0                           .BYTE    $D0              ; OLine=4569
4570   7EF2                                                        ;  ---------------------------------------------------------------------------
4571   7EF2                                                        
4572   7EF2             loc_7EF2:                                  ; OLine=4572
4573   7EF2 A9 50                        LDA      #$50             ; OLine=4573
4574   7EF4 A2 00                        LDX      #0               ; OLine=4574
4575   7EF6 20 FC 7B                     JSR      sub_7BFC         ; OLine=4575
4576   7EF9 A9 69                        LDA      #$69             ; OLine=4576
4577   7EFB A2 93                        LDX      #$93             ; OLine=4577
4578   7EFD 20 03 7C                     JSR      sub_7C03         ; OLine=4578
4579   7F00 A9 30                        LDA      #$30             ; OLine=4579
4580   7F02 20 DE 7C                     JSR      sub_7CDE         ; OLine=4580
4581   7F05 A2 03                        LDX      #3               ; OLine=4581
4582   7F07                                                        
4583   7F07             loc_7F07:                                  ; OLine=4583
4584   7F07 BD 00 28                     LDA      $2800,X          ; OLine=4584
4585   7F0A 29 01                        AND      #1               ; OLine=4585
4586   7F0C 86 0B                        STX      $B               ; OLine=4586
4587   7F0E 20 D1 7B                     JSR      sub_7BD1         ; OLine=4587
4588   7F11 A6 0B                        LDX      $B               ; OLine=4588
4589   7F13 BD 00 28                     LDA      $2800,X          ; OLine=4589
4590   7F16 29 02                        AND      #2               ; OLine=4590
4591   7F18 4A                           LSR      A                ; OLine=4591
4592   7F19 20 D1 7B                     JSR      sub_7BD1         ; OLine=4592
4593   7F1C A6 0B                        LDX      $B               ; OLine=4593
4594   7F1E CA                           DEX                       ; OLine=4594
4595   7F1F 10 E6                        BPL      loc_7F07         ; OLine=4595
4596   7F21 A9 7A                        LDA      #$7A             ; OLine=4596
4597   7F23 A2 9D                        LDX      #$9D             ; OLine=4597
4598   7F25 20 03 7C                     JSR      sub_7C03         ; OLine=4598
4599   7F28 A9 10                        LDA      #$10             ; OLine=4599
4600   7F2A 20 DE 7C                     JSR      sub_7CDE         ; OLine=4600
4601   7F2D AD 02 28                     LDA      $2802            ; OLine=4601
4602   7F30 29 02                        AND      #2               ; OLine=4602
4603   7F32 4A                           LSR      A                ; OLine=4603
4604   7F33 69 01                        ADC      #1               ; OLine=4604
4605   7F35 20 D1 7B                     JSR      sub_7BD1         ; OLine=4605
4606   7F38 AD 01 28                     LDA      $2801            ; OLine=4606
4607   7F3B 29 03                        AND      #3               ; OLine=4607
4608   7F3D AA                           TAX                       ; OLine=4608
4609   7F3E BD F5 7F                     LDA      $7FF5,X          ; OLine=4609
4610   7F41 20 D1 7B                     JSR      sub_7BD1         ; OLine=4610
4611   7F44 A5 16                        LDA      $16              ; OLine=4611
4612   7F46 F0 07                        BEQ      loc_7F4F         ; OLine=4612
4613   7F48 A2 88                        LDX      #$88             ; OLine=4613
4614   7F4A A9 50                        LDA      #$50             ; OLine=4614
4615   7F4C 20 FC 7B                     JSR      sub_7BFC         ; OLine=4615
4616   7F4F                                                        
4617   7F4F             loc_7F4F:                                  ; OLine=4617
4618   7F4F A2 96                        LDX      #$96             ; OLine=4618
4619   7F51                                                        ;  STX     $C
4620   7F51 8E 0C 00                     .byte    $8E,$C,$00       ; OLine=4620
4621   7F54 A2 07                        LDX      #7               ; OLine=4621
4622   7F56                                                        
4623   7F56             loc_7F56:                                  ; OLine=4623
4624   7F56 B5 0D                        LDA      $D,X             ; OLine=4624
4625   7F58 F0 37                        BEQ      loc_7F91         ; OLine=4625
4626   7F5A 48                           PHA                       ; OLine=4626
4627   7F5B                                                        ; STX     $B
4628   7F5B 8E 0B 00                     .byte    $8E,$B,$00       ; OLine=4628
4629   7F5E                                                        ; LDX     $C
4630   7F5E AE 0C 00                     .byte    $AE,$C,$00       ; OLine=4630
4631   7F61 8A                           TXA                       ; OLine=4631
4632   7F62 38                           SEC                       ; OLine=4632
4633   7F63 E9 08                        SBC      #8               ; OLine=4633
4634   7F65                                                        ; STA     $C
4635   7F65 8D 0C 00                     .byte    $8D,$0C,$00      ; OLine=4635
4636   7F68 A9 20                        LDA      #$20             ; OLine=4636
4637   7F6A 20 03 7C                     JSR      sub_7C03         ; OLine=4637
4638   7F6D A9 70                        LDA      #$70             ; OLine=4638
4639   7F6F 20 DE 7C                     JSR      sub_7CDE         ; OLine=4639
4640   7F72                                                        ; LDA     $B
4641   7F72 AD 0B 00                     .byte    $AD,$0B,$00      ; OLine=4641
4642   7F75 20 D1 7B                     JSR      sub_7BD1         ; OLine=4642
4643   7F78 AD D4 56                     LDA      $56D4            ; OLine=4643
4644   7F7B AE D5 56                     LDX      $56D5            ; OLine=4644
4645   7F7E 20 45 7D                     JSR      sub_7D45         ; OLine=4645
4646   7F81 68                           PLA                       ; OLine=4646
4647   7F82 48                           PHA                       ; OLine=4647
4648   7F83 4A                           LSR      A                ; OLine=4648
4649   7F84 4A                           LSR      A                ; OLine=4649
4650   7F85 4A                           LSR      A                ; OLine=4650
4651   7F86 4A                           LSR      A                ; OLine=4651
4652   7F87 20 D1 7B                     JSR      sub_7BD1         ; OLine=4652
4653   7F8A 68                           PLA                       ; OLine=4653
4654   7F8B 20 D1 7B                     JSR      sub_7BD1         ; OLine=4654
4655   7F8E                                                        ; LDX     $B
4656   7F8E AE 0B 00                     .byte    $AE,$0B,$ 00     ; OLine=4656
4657   7F91                                                        
4658   7F91             loc_7F91:                                  ; OLine=4658
4659   7F91 CA                           DEX                       ; OLine=4659
4660   7F92 10 C2                        BPL      loc_7F56         ; OLine=4660
4661   7F94 A9 7F                        LDA      #$7F             ; OLine=4661
4662   7F96 AA                           TAX                       ; OLine=4662
4663   7F97 20 03 7C                     JSR      sub_7C03         ; OLine=4663
4664   7F9A 20 C0 7B                     JSR      sub_7BC0         ; OLine=4664
4665   7F9D                                                        
4666   7F9D             loc_7F9D:                                  ; OLine=4666
4667   7F9D A9 00                        LDA      #0               ; OLine=4667
4668   7F9F A2 04                        LDX      #4               ; OLine=4668
4669   7FA1                                                        
4670   7FA1             loc_7FA1:                                  ; OLine=4670
4671   7FA1 3E 03 20                     ROL      $2003,X          ; OLine=4671
4672   7FA4 6A                           ROR      A                ; OLine=4672
4673   7FA5 CA                           DEX                       ; OLine=4673
4674   7FA6 10 F9                        BPL      loc_7FA1         ; OLine=4674
4675   7FA8 A8                           TAY                       ; OLine=4675
4676   7FA9 A2 07                        LDX      #7               ; OLine=4676
4677   7FAB                                                        
4678   7FAB             loc_7FAB:                                  ; OLine=4678
4679   7FAB 3E 00 24                     ROL      $2400,X          ; OLine=4679
4680   7FAE 2A                           ROL      A                ; OLine=4680
4681   7FAF CA                           DEX                       ; OLine=4681
4682   7FB0 10 F9                        BPL      loc_7FAB         ; OLine=4682
4683   7FB2 AA                           TAX                       ; OLine=4683
4684   7FB3 45 08                        EOR      8                ; OLine=4684
4685   7FB5 86 08                        STX      8                ; OLine=4685
4686   7FB7 08                           PHP                       ; OLine=4686
4687   7FB8 A9 04                        LDA      #4               ; OLine=4687
4688   7FBA 8D 00 32                     STA      $3200            ; OLine=4688
4689   7FBD 2E 03 20                     ROL      $2003            ; OLine=4689
4690   7FC0 2A                           ROL      A                ; OLine=4690
4691   7FC1 2E 04 20                     ROL      $2004            ; OLine=4691
4692   7FC4 2A                           ROL      A                ; OLine=4692
4693   7FC5 2E 07 24                     ROL      $2407            ; OLine=4693
4694   7FC8 2A                           ROL      A                ; OLine=4694
4695   7FC9 2E 06 24                     ROL      $2406            ; OLine=4695
4696   7FCC 2A                           ROL      A                ; OLine=4696
4697   7FCD 2E 05 24                     ROL      $2405            ; OLine=4697
4698   7FD0 2A                           ROL      A                ; OLine=4698
4699   7FD1 AA                           TAX                       ; OLine=4699
4700   7FD2 28                           PLP                       ; OLine=4700
4701   7FD3 D0 09                        BNE      loc_7FDE         ; OLine=4701
4702   7FD5 45 0A                        EOR      $A               ; OLine=4702
4703   7FD7 D0 05                        BNE      loc_7FDE         ; OLine=4703
4704   7FD9 98                           TYA                       ; OLine=4704
4705   7FDA 45 09                        EOR      9                ; OLine=4705
4706   7FDC F0 02                        BEQ      loc_7FE0         ; OLine=4706
4707   7FDE                                                        
4708   7FDE             loc_7FDE:                                  ; OLine=4708
4709   7FDE                                                        
4710   7FDE A9 80                        LDA      #$80             ; OLine=4710
4711   7FE0                                                        
4712   7FE0             loc_7FE0:                                  ; OLine=4712
4713   7FE0 8D 05 3C                     STA      $3C05            ; OLine=4713
4714   7FE3 8D 00 32                     STA      $3200            ; OLine=4714
4715   7FE6 8D 00 30                     STA      $3000            ; OLine=4715
4716   7FE9 86 0A                        STX      $A               ; OLine=4716
4717   7FEB 84 09                        STY      9                ; OLine=4717
4718   7FED AD 07 20                     LDA      $2007            ; OLine=4718
4719   7FF0                                                        
4720   7FF0             loc_7FF0:                                  ; OLine=4720
4721   7FF0 10 FE                        BPL      loc_7FF0         ; OLine=4721
4722   7FF2 4C 73 7E                     JMP      loc_7E73         ; OLine=4722
4723   7FF5                                                        ;  ---------------------------------------------------------------------------
4724   7FF5 01                           .BYTE    1                ; OLine=4724
4725   7FF6 04                           .BYTE    4                ; OLine=4725
4726   7FF7 05                           .BYTE    5                ; OLine=4726
4727   7FF8 06                           .BYTE    6                ; OLine=4727
4728   7FF9 4E                           .BYTE    $4E              ; OLine=4728
4729   7FFA                                                        
4730   7FFA 65                           .BYTE    $65              ; OLine=4730  NMI
4731   7FFB 7B                           .BYTE    $7B              ; OLine=4731
4732   7FFC                                                        
4733   7FFC F3                           .BYTE    $F3              ; OLine=4733  RESET
4734   7FFD 7C                           .BYTE    $7C              ; OLine=4734
4735   7FFE                                                        
4736   7FFE F3                           .BYTE    $F3              ; OLine=4736  IRQ
4737   7FFF 7C                           .BYTE    $7C              ; OLine=4737
4738   8000                                                        ;  end of 'ROM'
4739   8000                                                        
4740   8000                              .END                      ; OLine=4740
4741   8000                                                        
tasm: Number of errors = 0
