Starting address: 16896
  Ending address: 32816
     Output file: (none)
Pass 1 of 1
4200  31bf47    ld      sp,#47bf
4203  3e0e      ld      a,#0e
4205  cd3300    call    #0033
4208  218247    ld      hl,#4782
420b  cdd045    call    #45d0
420e  cdee45    call    #45ee
4211  3e01      ld      a,#01
4213  323f50    ld      (#503f),a
4216  cd4552    call    #5245
4219  97        sub     a
421a  327b46    ld      (#467b),a
421d  327c46    ld      (#467c),a
4220  327d46    ld      (#467d),a
4223  cdcf43    call    #43cf
4226  3a3f50    ld      a,(#503f)
4229  218848    ld      hl,#4888
422c  cd6b43    call    #436b
422f  23        inc     hl
4230  23        inc     hl
4231  7e        ld      a,(hl)
4232  23        inc     hl
4233  66        ld      h,(hl)
4234  6f        ld      l,a
4235  cd7d43    call    #437d
4238  c24a43    jp      nz,#434a
423b  21b059    ld      hl,#59b0
423e  cd7d43    call    #437d
4241  c24a43    jp      nz,#434a
4244  217174    ld      hl,#7471
4247  cdae45    call    #45ae
424a  cdd950    call    #50d9
424d  c31943    jp      #4319
4250  21e74f    ld      hl,#4fe7
4253  cd6143    call    #4361
4256  7e        ld      a,(hl)
4257  e680      and     #80
4259  23        inc     hl
425a  7e        ld      a,(hl)
425b  c25043    jp      nz,#4350
425e  2b        dec     hl
425f  bb        cp      e
4260  c9        ret     

4261  d5        push    de
4262  eb        ex      de,hl
4263  6f        ld      l,a
4264  2d        dec     l
4265  2600      ld      h,#00
4267  29        add     hl,hl
4268  19        add     hl,de
4269  d1        pop     de
426a  c9        ret     

426b  d5        push    de
426c  eb        ex      de,hl
426d  6f        ld      l,a
426e  2d        dec     l
426f  2600      ld      h,#00
4271  29        add     hl,hl
4272  29        add     hl,hl
4273  19        add     hl,de
4274  d1        pop     de
4275  c9        ret     

4276  cd5043    call    #4350
4279  23        inc     hl
427a  73        ld      (hl),e
427b  2b        dec     hl
427c  c9        ret     

427d  7e        ld      a,(hl)
427e  a7        and     a
427f  c8        ret     z

4280  3a7c46    ld      a,(#467c)
4283  be        cp      (hl)
4284  23        inc     hl
4285  ca8f43    jp      z,#438f
4288  4e        ld      c,(hl)
4289  0600      ld      b,#00
428b  09        add     hl,bc
428c  c37d43    jp      #437d
428f  cd9643    call    #4396
4292  c0        ret     nz

4293  c37d43    jp      #437d
4296  e5        push    hl
4297  4e        ld      c,(hl)
4298  0600      ld      b,#00
429a  09        add     hl,bc
429b  e3        ex      (sp),hl
429c  23        inc     hl
429d  7e        ld      a,(hl)
429e  23        inc     hl
429f  e5        push    hl
42a0  219f50    ld      hl,#509f
42a3  cd6143    call    #4361
42a6  7e        ld      a,(hl)
42a7  23        inc     hl
42a8  66        ld      h,(hl)
42a9  6f        ld      l,a
42aa  e9        jp      (hl)
42ab  e1        pop     hl
42ac  d1        pop     de
42ad  7c        ld      a,h
42ae  ba        cp      d
42af  c2ba43    jp      nz,#43ba
42b2  7d        ld      a,l
42b3  bb        cp      e
42b4  c2ba43    jp      nz,#43ba
42b7  f601      or      #01
42b9  c9        ret     

42ba  d5        push    de
42bb  c39d43    jp      #439d
42be  e1        pop     hl
42bf  e1        pop     hl
42c0  af        xor     a
42c1  c9        ret     

42c2  e1        pop     hl
42c3  cd9643    call    #4396
42c6  e5        push    hl
42c7  caab43    jp      z,#43ab
42ca  e1        pop     hl
42cb  e1        pop     hl
42cc  f601      or      #01
42ce  c9        ret     

42cf  cd0546    call    #4605
42d2  cda244    call    #44a2
42d5  2aaa45    ld      hl,(#45aa)
42d8  3aa845    ld      a,(#45a8)
42db  47        ld      b,a
42dc  3a7d46    ld      a,(#467d)
42df  fe03      cp      #03
42e1  cacf43    jp      z,#43cf
42e4  3a7b46    ld      a,(#467b)
42e7  a7        and     a
42e8  c21c44    jp      nz,#441c
42eb  3a7c46    ld      a,(#467c)
42ee  a7        and     a
42ef  c20d44    jp      nz,#440d
42f2  3a7e46    ld      a,(#467e)
42f5  3c        inc     a
42f6  e603      and     #03
42f8  327e46    ld      (#467e),a
42fb  217f46    ld      hl,#467f
42fe  07        rlca    
42ff  4f        ld      c,a
4300  a4        and     h
4301  3c        inc     a
4302  00        nop     
4303  00        nop     
4304  44        ld      b,h
4305  0600      ld      b,#00
4307  09        add     hl,bc
4308  7e        ld      a,(hl)
4309  23        inc     hl
430a  66        ld      h,(hl)
430b  6f        ld      l,a
430c  cdd045    call    #45d0
430f  c3cf43    jp      #43cf
4312  3a7d46    ld      a,(#467d)
4315  fec0      cp      #c0
4317  c8        ret     z

4318  21fd46    ld      hl,#46fd
431b  cdd045    call    #45d0
431e  c3cf43    jp      #43cf
4321  22aa45    ld      (#45aa),hl
4324  3aa144    ld      a,(#44a1)
4327  a7        and     a
4328  c28e44    jp      nz,#448e
432b  7e        ld      a,(hl)
432c  23        inc     hl
432d  22aa45    ld      (#45aa),hl
4330  1eff      ld      e,#ff
4332  c5        push    bc
4333  cd5043    call    #4350
4336  c1        pop     bc
4337  ca8644    jp      z,#4486
433a  3a7d46    ld      a,(#467d)
433d  fe40      cp      #40
433f  ca4e44    jp      z,#444e
4342  2aaa45    ld      hl,(#45aa)
4345  2b        dec     hl
4346  3a3f50    ld      a,(#503f)
4349  5f        ld      e,a
434a  7e        ld      a,(hl)
434b  c5        push    bc
434c  cd5043    call    #4350
434f  c1        pop     bc
4350  ca8644    jp      z,#4486
4353  2aaa45    ld      hl,(#45aa)
4356  05        dec     b
4357  c22644    jp      nz,#4426
435a  3a7d46    ld      a,(#467d)
435d  fe40      cp      #40
435f  c26344    jp      nz,#4463
4362  219846    ld      hl,#4698
4365  c37c44    jp      #447c
4368  218746    ld      hl,#4687
436b  cdd045    call    #45d0
436e  3e01      ld      a,#01
4370  32fb46    ld      (#46fb),a
4373  21d346    ld      hl,#46d3
4376  cdd045    call    #45d0
4379  3e3f      ld      a,#3f
437b  32fb46    ld      (#46fb),a
437e  219146    ld      hl,#4691
4381  cdd045    call    #45d0
4384  97        sub     a
4385  327b46    ld      (#467b),a
4388  c3cf43    jp      #43cf
438b  2aaa45    ld      hl,(#45aa)
438e  2b        dec     hl
438f  7e        ld      a,(hl)
4390  327b46    ld      (#467b),a
4393  3a7c46    ld      a,(#467c)
4396  a7        and     a
4397  c0        ret     nz

4398  21b046    ld      hl,#46b0
439b  cdd045    call    #45d0
439e  3e01      ld      a,#01
43a0  32a144    ld      (#44a1),a
43a3  c3cf43    jp      #43cf
43a6  00        nop     
43a7  215a46    ld      hl,#465a
43aa  97        sub     a
43ab  32a945    ld      (#45a9),a
43ae  327d46    ld      (#467d),a
43b1  11ce56    ld      de,#56ce
43b4  eb        ex      de,hl
43b5  227947    ld      (#4779),hl
43b8  eb        ex      de,hl
43b9  7e        ld      a,(hl)
43ba  fe20      cp      #20
43bc  c2be44    jp      nz,#44be
43bf  23        inc     hl
43c0  c3b444    jp      #44b4
43c3  227b47    ld      (#477b),hl
43c6  a7        and     a
43c7  ca5c45    jp      z,#455c
43ca  3e01      ld      a,#01
43cc  32a945    ld      (#45a9),a
43cf  e5        push    hl
43d0  1a        ld      a,(de)
43d1  a7        and     a
43d2  ca6745    jp      z,#4567
43d5  328147    ld      (#4781),a
43d8  e607      and     #07
43da  4f        ld      c,a
43db  327d47    ld      (#477d),a
43de  3a8147    ld      a,(#4781)
43e1  e638      and     #38
43e3  0f        rrca    
43e4  0f        rrca    
43e5  0f        rrca    
43e6  47        ld      b,a
43e7  eb        ex      de,hl
43e8  227947    ld      (#4779),hl
43eb  eb        ex      de,hl
43ec  13        inc     de
43ed  1a        ld      a,(de)
43ee  be        cp      (hl)
43ef  c24e45    jp      nz,#454e
43f2  23        inc     hl
43f3  13        inc     de
43f4  0d        dec     c
43f5  c2e844    jp      nz,#44e8
43f8  3a7d47    ld      a,(#477d)
43fb  fe06      cp      #06
43fd  ca0545    jp      z,#4505
4400  7e        ld      a,(hl)
4401  fe20      cp      #20
4403  ca13c1    jp      z,#c113
4406  3c        inc     a
4407  00        nop     
4408  00        nop     
4409  45        ld      b,l
440a  45        ld      b,l
440b  a7        and     a
440c  c25345    jp      nz,#4553
440f  7e        ld      a,(hl)
4410  fe20      cp      #20
4412  ca1345    jp      z,#4513
4415  a7        and     a
4416  ca1345    jp      z,#4513
4419  23        inc     hl
441a  c30545    jp      #4505
441d  3a8147    ld      a,(#4781)
4420  e6c0      and     #c0
4422  ca2d45    jp      z,#452d
4425  327d46    ld      (#467d),a
4428  1a        ld      a,(de)
4429  327c46    ld      (#467c),a
442c  e5        push    hl
442d  21fd46    ld      hl,#46fd
4430  cd8545    call    #4585
4433  e1        pop     hl
4434  c34645    jp      #4546
4437  1a        ld      a,(de)
4438  327b46    ld      (#467b),a
443b  eb        ex      de,hl
443c  22aa45    ld      (#45aa),hl
443f  eb        ex      de,hl
4440  78        ld      a,b
4441  32a845    ld      (#45a8),a
4444  97        sub     a
4445  32a144    ld      (#44a1),a
4448  e5        push    hl
4449  21d346    ld      hl,#46d3
444c  cd8545    call    #4585
444f  e1        pop     hl
4450  7e        ld      a,(hl)
4451  fe20      cp      #20
4453  d1        pop     de
4454  caac44    jp      z,#44ac
4457  c9        ret     

4458  13        inc     de
4459  0d        dec     c
445a  c24e45    jp      nz,#454e
445d  13        inc     de
445e  05        dec     b
445f  c25345    jp      nz,#4553
4462  e1        pop     hl
4463  c3b444    jp      #44b4
4466  3aa945    ld      a,(#45a9)
4469  a7        and     a
446a  c0        ret     nz

446b  3e03      ld      a,#03
446d  327d46    ld      (#467d),a
4470  c9        ret     

4471  e1        pop     hl
4472  97        sub     a
4473  327c46    ld      (#467c),a
4476  327b46    ld      (#467b),a
4479  7e        ld      a,(hl)
447a  fe20      cp      #20
447c  c27945    jp      nz,#4579
447f  23        inc     hl
4480  c36f45    jp      #456f
4483  7e        ld      a,(hl)
4484  a7        and     a
4485  c8        ret     z

4486  fe20      cp      #20
4488  caac44    jp      z,#44ac
448b  23        inc     hl
448c  c37945    jp      #4579
448f  eb        ex      de,hl
4490  2a7b47    ld      hl,(#477b)
4493  0628      ld      b,#28
4495  7e        ld      a,(hl)
4496  a7        and     a
4497  ca9f45    jp      z,#459f
449a  fe20      cp      #20
449c  ca9f45    jp      z,#459f
449f  12        ld      (de),a
44a0  23        inc     hl
44a1  13        inc     de
44a2  05        dec     b
44a3  78        ld      a,b
44a4  fe01      cp      #01
44a6  c28b45    jp      nz,#458b
44a9  3e40      ld      a,#40
44ab  12        ld      (de),a
44ac  13        inc     de
44ad  05        dec     b
44ae  c29f45    jp      nz,#459f
44b1  c9        ret     

44b2  00        nop     
44b3  00        nop     
44b4  00        nop     
44b5  00        nop     
44b6  00        nop     
44b7  00        nop     
44b8  7e        ld      a,(hl)
44b9  a7        and     a
44ba  c8        ret     z

44bb  23        inc     hl
44bc  115a46    ld      de,#465a
44bf  cdc247    call    #47c2
44c2  7e        ld      a,(hl)
44c3  a7        and     a
44c4  cae745    jp      z,#45e7
44c7  fe01      cp      #01
44c9  c8        ret     z

44ca  47        ld      b,a
44cb  e5        push    hl
44cc  cdff45    call    #45ff
44cf  e1        pop     hl
44d0  7e        ld      a,(hl)
44d1  fe0a      cp      #0a
44d3  23        inc     hl
44d4  caae45    jp      z,#45ae
44d7  c3b845    jp      #45b8
44da  7e        ld      a,(hl)
44db  a7        and     a
44dc  cae745    jp      z,#45e7
44df  fe01      cp      #01
44e1  c8        ret     z

44e2  fe40      cp      #40
44e4  cae345    jp      z,#45e3
44e7  47        ld      b,a
44e8  e5        push    hl
44e9  cdff45    call    #45ff
44ec  e1        pop     hl
44ed  23        inc     hl
44ee  c3d045    jp      #45d0
44f1  060d      ld      b,#0d
44f3  78        ld      a,b
44f4  cdff45    call    #45ff
44f7  c9        ret     

44f8  d5        push    de
44f9  3a7447    ld      a,(#4774)
44fc  3c        inc     a
44fd  327447    ld      (#4774),a
4500  cd2b00    call    #002b
4503  a7        and     a
4504  caef45    jp      z,#45ef
4507  d1        pop     de
4508  c9        ret     

4509  d5        push    de
450a  e43c00    call    po,#003c
450d  00        nop     
450e  46        ld      b,(hl)
450f  cd3300    call    #0033
4512  d1        pop     de
4513  c9        ret     

4514  063a      ld      b,#3a
4516  78        ld      a,b
4517  cdff45    call    #45ff
451a  215a46    ld      hl,#465a
451d  0e00      ld      c,#00
451f  e5        push    hl
4520  c5        push    bc
4521  d5        push    de
4522  cdee45    call    #45ee
4525  d1        pop     de
4526  c1        pop     bc
4527  e1        pop     hl
4528  47        ld      b,a
4529  fe08      cp      #08
452b  ca4146    jp      z,#4641
452e  77        ld      (hl),a
452f  cdff45    call    #45ff
4532  fe0d      cp      #0d
4534  ca5746    jp      z,#4657
4537  0c        inc     c
4538  23        inc     hl
4539  117a46    ld      de,#467a
453c  7c        ld      a,h
453d  ba        cp      d
453e  da1046    jp      c,#4610
4541  7d        ld      a,l
4542  bb        cp      e
4543  da1046    jp      c,#4610
4546  0608      ld      b,#08
4548  78        ld      a,b
4549  cdff45    call    #45ff
454c  2b        dec     hl
454d  c31046    jp      #4610
4550  2b        dec     hl
4551  3e46      ld      a,#46
4553  bc        cp      h
4554  da4e46    jp      c,#464e
4557  7d        ld      a,l
4558  fe5a      cp      #5a
455a  da0b46    jp      c,#460b
455d  3e08      ld      a,#08
455f  47        ld      b,a
4560  cdff45    call    #45ff
4563  c31046    jp      #4610
4566  3600      ld      (hl),#00
4568  c9        ret     

4569  41        ld      b,c
456a  4e        ld      c,(hl)
456b  54        ld      d,h
456c  204d      jr      nz,#45bb        ; (77)
456e  45        ld      b,l
456f  2054      jr      nz,#45c5        ; (84)
4571  4f        ld      c,a
4572  2044      jr      nz,#45b8        ; (68)
4574  4f        ld      c,a
4575  2057      jr      nz,#45ce        ; (87)
4577  49        ld      c,c
4578  54        ld      d,h
4579  48        ld      c,b
457a  2054      jr      nz,#45d0        ; (84)
457c  48        ld      c,b
457d  45        ld      b,l
457e  202c      jr      nz,#45ac        ; (44)
4580  41        ld      b,c
4581  0d        dec     c
4582  12        ld      (de),a
4583  3030      jr      nc,#45b5        ; (48)
4585  3030      jr      nc,#45b7        ; (48)
4587  2020      jr      nz,#45a9        ; (32)
4589  00        nop     
458a  00        nop     
458b  00        nop     
458c  00        nop     
458d  00        nop     
458e  25        dec     h
458f  47        ld      b,a
4590  2c        inc     l
4591  47        ld      b,a
4592  44        ld      b,h
4593  47        ld      b,a
4594  58        ld      e,b
4595  47        ld      b,a
4596  49        ld      c,c
4597  2053      jr      nz,#45ec        ; (83)
4599  45        ld      b,l
459a  45        ld      b,l
459b  204e      jr      nz,#45eb        ; (78)
459d  4f        ld      c,a
459e  2001      jr      nz,#45a1        ; (1)
45a0  2048      jr      nz,#45ea        ; (72)
45a2  45        ld      b,l
45a3  52        ld      d,d
45a4  45        ld      b,l
45a5  2e00      ld      l,#00
45a7  59        ld      e,c
45a8  4f        ld      c,a
45a9  55        ld      d,l
45aa  2041      jr      nz,#45ed        ; (65)
45ac  52        ld      d,d
45ad  45        ld      b,l
45ae  4e        ld      c,(hl)
45af  27        daa     
45b0  54        ld      d,h
45b1  2043      jr      nz,#45f6        ; (67)
45b3  41        ld      b,c
45b4  52        ld      d,d
45b5  52        ld      d,d
45b6  59        ld      e,c
45b7  49        ld      c,c
45b8  4e        ld      c,(hl)
45b9  47        ld      b,a
45ba  2049      jr      nz,#4605        ; (73)
45bc  54        ld      d,h
45bd  2e00      ld      l,#00
45bf  57        ld      d,a
45c0  48        ld      c,b
45c1  41        ld      b,c
45c2  54        ld      d,h
45c3  2044      jr      nz,#4609        ; (68)
45c5  4f        ld      c,a
45c6  2059      jr      nz,#4621        ; (89)
45c8  4f        ld      c,a
45c9  55        ld      d,l
45ca  2057      jr      nz,#4623        ; (87)
45cc  41        ld      b,c
45cd  4e        ld      c,(hl)
45ce  54        ld      d,h
45cf  204d      jr      nz,#461e        ; (77)
45d1  45        ld      b,l
45d2  2054      jr      nz,#4628        ; (84)
45d4  4f        ld      c,a
45d5  2044      jr      nz,#461b        ; (68)
45d7  4f        ld      c,a
45d8  2057      jr      nz,#4631        ; (87)
45da  49        ld      c,c
45db  54        ld      d,h
45dc  48        ld      c,b
45dd  2054      jr      nz,#4633        ; (84)
45df  48        ld      c,b
45e0  45        ld      b,l
45e1  204f      jr      nz,#4632        ; (79)
45e3  57        ld      d,a
45e4  2054      jr      nz,#463a        ; (84)
45e6  48        ld      c,b
45e7  41        ld      b,c
45e8  54        ld      d,h
45e9  2057      jr      nz,#4642        ; (87)
45eb  4f        ld      c,a
45ec  52        ld      d,d
45ed  44        ld      b,h
45ee  2e00      ld      l,#00
45f0  49        ld      c,c
45f1  2044      jr      nz,#4637        ; (68)
45f3  4f        ld      c,a
45f4  4e        ld      c,(hl)
45f5  27        daa     
45f6  54        ld      d,h
45f7  2055      jr      nz,#464e        ; (85)
45f9  4e        ld      c,(hl)
45fa  44        ld      b,h
45fb  45        ld      b,l
45fc  52        ld      d,d
45fd  53        ld      d,e
45fe  54        ld      d,h
45ff  41        ld      b,c
4600  4e        ld      c,(hl)
4601  44        ld      b,h
4602  2e00      ld      l,#00
4604  49        ld      c,c
4605  2044      jr      nz,#464b        ; (68)
4607  4f        ld      c,a
4608  4e        ld      c,(hl)
4609  27        daa     
460a  3f        ccf     
460b  00        nop     
460c  4b        ld      c,e
460d  4e        ld      c,(hl)
460e  4f        ld      c,a
460f  3c        inc     a
4610  3c        inc     a
4611  00        nop     
4612  00        nop     
4613  47        ld      b,a
4614  57        ld      d,a
4615  2057      jr      nz,#466e        ; (87)
4617  48        ld      c,b
4618  41        ld      b,c
4619  54        ld      d,h
461a  2059      jr      nz,#4675        ; (89)
461c  4f        ld      c,a
461d  55        ld      d,l
461e  204d      jr      nz,#466d        ; (77)
4620  45        ld      b,l
4621  41        ld      b,c
4622  4e        ld      c,(hl)
4623  2e00      ld      l,#00
4625  00        nop     
4626  00        nop     
4627  00        nop     
4628  00        nop     
4629  00        nop     
462a  00        nop     
462b  00        nop     
462c  00        nop     
462d  00        nop     
462e  00        nop     
462f  00        nop     
4630  00        nop     
4631  00        nop     
4632  00        nop     
4633  57        ld      d,a
4634  45        ld      b,l
4635  4c        ld      c,h
4636  43        ld      b,e
4637  4f        ld      c,a
4638  4d        ld      c,l
4639  2057      jr      nz,#4692        ; (87)
463b  48        ld      c,b
463c  41        ld      b,c
463d  54        ld      d,h
463e  3f        ccf     
463f  00        nop     
4640  49        ld      c,c
4641  2044      jr      nz,#4687        ; (68)
4643  4f        ld      c,a
4644  4e        ld      c,(hl)
4645  27        daa     
4646  54        ld      d,h
4647  204b      jr      nz,#4694        ; (75)
4649  4e        ld      c,(hl)
464a  4f        ld      c,a
464b  57        ld      d,a
464c  2054      jr      nz,#46a2        ; (84)
464e  48        ld      c,b
464f  41        ld      b,c
4650  54        ld      d,h
4651  2057      jr      nz,#46aa        ; (87)
4653  4f        ld      c,a
4654  52        ld      d,d
4655  44        ld      b,h
4656  2e00      ld      l,#00
4658  49        ld      c,c
4659  2044      jr      nz,#469f        ; (68)
465b  4f        ld      c,a
465c  4e        ld      c,(hl)
465d  27        daa     
465e  54        ld      d,h
465f  2055      jr      nz,#46b6        ; (85)
4661  4e        ld      c,(hl)
4662  44        ld      b,h
4663  45        ld      b,l
4664  52        ld      d,d
4665  53        ld      d,e
4666  54        ld      d,h
4667  41        ld      b,c
4668  4e        ld      c,(hl)
4669  44        ld      b,h
466a  2e00      ld      l,#00
466c  49        ld      c,c
466d  2044      jr      nz,#46b3        ; (68)
466f  4f        ld      c,a
4670  4e        ld      c,(hl)
4671  27        daa     
4672  54        ld      d,h
4673  204b      jr      nz,#46c0        ; (75)
4675  4e        ld      c,(hl)
4676  4f        ld      c,a
4677  57        ld      d,a
4678  2057      jr      nz,#46d1        ; (87)
467a  48        ld      c,b
467b  41        ld      b,c
467c  54        ld      d,h
467d  2059      jr      nz,#46d8        ; (89)
467f  4f        ld      c,a
4680  55        ld      d,l
4681  204d      jr      nz,#46d0        ; (77)
4683  45        ld      b,l
4684  41        ld      b,c
4685  4e        ld      c,(hl)
4686  2e00      ld      l,#00
4688  00        nop     
4689  00        nop     
468a  00        nop     
468b  00        nop     
468c  00        nop     
468d  00        nop     
468e  00        nop     
468f  00        nop     
4690  00        nop     
4691  00        nop     
4692  00        nop     
4693  00        nop     
4694  00        nop     
4695  00        nop     
4696  57        ld      d,a
4697  45        ld      b,l
4698  4c        ld      c,h
4699  43        ld      b,e
469a  4f        ld      c,a
469b  4d        ld      c,l
469c  45        ld      b,l
469d  2054      jr      nz,#46f3        ; (84)
469f  4f        ld      c,a
46a0  2050      jr      nz,#46f2        ; (80)
46a2  59        ld      e,c
46a3  52        ld      d,d
46a4  41        ld      b,c
46a5  4d        ld      c,l
46a6  49        ld      c,c
46a7  44        ld      b,h
46a8  212100    ld      hl,#0021
46ab  e1        pop     hl
46ac  cab847    jp      z,#47b8
46af  3e00      ld      a,#00
46b1  ce00      adc     a,#00
46b3  29        add     hl,hl
46b4  44        ld      b,h
46b5  85        add     a,l
46b6  2a2248    ld      hl,(#4822)
46b9  95        sub     l
46ba  4f        ld      c,a
46bb  78        ld      a,b
46bc  9c        sbc     a,h
46bd  47        ld      b,a
46be  c5        push    bc
46bf  d2b047    jp      nc,#47b0
46c2  09        add     hl,bc
46c3  e3        ex      (sp),hl
46c4  21b747    ld      hl,#47b7
46c7  3f        ccf     
46c8  c39047    jp      #4790
46cb  00        nop     
46cc  01f947    ld      bc,#47f9
46cf  09        add     hl,bc
46d0  7e        ld      a,(hl)
46d1  c1        pop     bc
46d2  e1        pop     hl
46d3  00        nop     
46d4  00        nop     
46d5  00        nop     
46d6  328448    ld      (#4884),a
46d9  3e01      ld      a,#01
46db  328748    ld      (#4887),a
46de  c3d447    jp      #47d4
46e1  328448    ld      (#4884),a
46e4  97        sub     a
46e5  328748    ld      (#4887),a
46e8  e5        push    hl
46e9  0603      ld      b,#03
46eb  e1        pop     hl
46ec  7e        ld      a,(hl)
46ed  23        inc     hl
46ee  4e        ld      c,(hl)
46ef  23        inc     hl
46f0  e5        push    hl
46f1  61        ld      h,c
46f2  6f        ld      l,a
46f3  13        inc     de
46f4  13        inc     de
46f5  eb        ex      de,hl
46f6  e5        push    hl
46f7  c5        push    bc
46f8  212800    ld      hl,#0028
46fb  228548    ld      (#4885),hl
46fe  211a48    ld      hl,#481a
4701  3611      ld      (hl),#11
4703  010000    ld      bc,#0000
4706  c5        push    bc
4707  7b        ld      a,e
4708  17        rla     
4709  5f        ld      e,a
470a  7a        ld      a,d
470b  17        rla     
470c  57        ld      d,a
470d  35        dec     (hl)
470e  e1        pop     hl
470f  ca1b48    jp      z,#481b
4712  3e00      ld      a,#00
4714  a9        xor     c
4715  3c        inc     a
4716  00        nop     
4717  00        nop     
4718  48        ld      c,b
4719  ce00      adc     a,#00
471b  29        add     hl,hl
471c  44        ld      b,h
471d  85        add     a,l
471e  2a8548    ld      hl,(#4885)
4721  95        sub     l
4722  4f        ld      c,a
4723  78        ld      a,b
4724  9c        sbc     a,h
4725  47        ld      b,a
4726  c5        push    bc
4727  d21348    jp      nc,#4813
472a  09        add     hl,bc
472b  e3        ex      (sp),hl
472c  211a48    ld      hl,#481a
472f  3f        ccf     
4730  c3f347    jp      #47f3
4733  00        nop     
4734  015c48    ld      bc,#485c
4737  09        add     hl,bc
4738  7e        ld      a,(hl)
4739  c1        pop     bc
473a  e1        pop     hl
473b  77        ld      (hl),a
473c  2b        dec     hl
473d  05        dec     b
473e  c2e247    jp      nz,#47e2
4741  3a8748    ld      a,(#4887)
4744  a7        and     a
4745  ca4448    jp      z,#4844
4748  e5        push    hl
4749  c5        push    bc
474a  d5        push    de
474b  1e03      ld      e,#03
474d  23        inc     hl
474e  46        ld      b,(hl)
474f  e5        push    hl
4750  78        ld      a,b
4751  cdff45    call    #45ff
4754  e1        pop     hl
4755  23        inc     hl
4756  1d        dec     e
4757  c23548    jp      nz,#4835
475a  d1        pop     de
475b  c1        pop     bc
475c  e1        pop     hl
475d  eb        ex      de,hl
475e  13        inc     de
475f  3a8748    ld      a,(#4887)
4762  a7        and     a
4763  c25048    jp      nz,#4850
4766  13        inc     de
4767  13        inc     de
4768  13        inc     de
4769  3a8448    ld      a,(#4884)
476c  3d        dec     a
476d  328448    ld      (#4884),a
4770  c2d547    jp      nz,#47d5
4773  e1        pop     hl
4774  c9        ret     

4775  3f        ccf     
4776  213220    ld      hl,#2032
4779  22273c    ld      (#3c27),hl
477c  3e2f      ld      a,#2f
477e  3033      jr      nc,#47b3        ; (51)
4780  41        ld      b,c
4781  42        ld      b,d
4782  43        ld      b,e
4783  44        ld      b,h
4784  45        ld      b,l
4785  46        ld      b,(hl)
4786  47        ld      b,a
4787  48        ld      c,b
4788  49        ld      c,c
4789  4a        ld      c,d
478a  4b        ld      c,e
478b  4c        ld      c,h
478c  4d        ld      c,l
478d  4e        ld      c,(hl)
478e  4f        ld      c,a
478f  50        ld      d,b
4790  51        ld      d,c
4791  52        ld      d,d
4792  53        ld      d,e
4793  54        ld      d,h
4794  55        ld      d,l
4795  56        ld      d,(hl)
4796  57        ld      d,a
4797  58        ld      e,b
4798  59        ld      e,c
4799  5a        ld      e,d
479a  2d        dec     l
479b  2c        inc     l
479c  2e00      ld      l,#00
479e  00        nop     
479f  00        nop     
47a0  00        nop     
47a1  db5b      in      a,(#5b)
47a3  cc4910    call    z,#1049
47a6  5c        ld      e,h
47a7  e1        pop     hl
47a8  49        ld      c,c
47a9  57        ld      d,a
47aa  5c        ld      e,h
47ab  f24957    jp      p,#5749
47ae  5c        ld      e,h
47af  03        inc     bc
47b0  4a        ld      c,d
47b1  57        ld      d,a
47b2  5c        ld      e,h
47b3  14        inc     d
47b4  4a        ld      c,d
47b5  57        ld      d,a
47b6  5c        ld      e,h
47b7  25        dec     h
47b8  4a        ld      c,d
47b9  68        ld      l,b
47ba  5c        ld      e,h
47bb  364a      ld      (hl),#4a
47bd  e25c47    jp      po,#475c
47c0  4a        ld      c,d
47c1  285d      jr      z,#4820         ; (93)
47c3  58        ld      e,b
47c4  4a        ld      c,d
47c5  7d        ld      a,l
47c6  5d        ld      e,l
47c7  69        ld      l,c
47c8  4a        ld      c,d
47c9  a0        and     b
47ca  5d        ld      e,l
47cb  7e        ld      a,(hl)
47cc  4a        ld      c,d
47cd  1e5e      ld      e,#5e
47cf  87        add     a,a
47d0  4a        ld      c,d
47d1  8e        adc     a,(hl)
47d2  5e        ld      e,(hl)
47d3  9d        sbc     a,l
47d4  4a        ld      c,d
47d5  69        ld      l,c
47d6  5f        ld      e,a
47d7  c8        ret     z

47d8  4a        ld      c,d
47d9  ab        xor     e
47da  5f        ld      e,a
47db  d1        pop     de
47dc  4a        ld      c,d
47dd  08        ex      af,af'
47de  60        ld      h,b
47df  0d        dec     c
47e0  4b        ld      c,e
47e1  3c        inc     a
47e2  60        ld      h,b
47e3  48        ld      c,b
47e4  4b        ld      c,e
47e5  55        ld      d,l
47e6  60        ld      h,b
47e7  51        ld      d,c
47e8  4b        ld      c,e
47e9  85        add     a,l
47ea  60        ld      h,b
47eb  90        sub     b
47ec  4b        ld      c,e
47ed  f1        pop     af
47ee  60        ld      h,b
47ef  a9        xor     c
47f0  4b        ld      c,e
47f1  5f        ld      e,a
47f2  61        ld      h,c
47f3  be        cp      (hl)
47f4  4b        ld      c,e
47f5  ac        xor     h
47f6  61        ld      h,c
47f7  c7        rst     #0
47f8  4b        ld      c,e
47f9  d8        ret     c

47fa  61        ld      h,c
47fb  d8        ret     c

47fc  4b        ld      c,e
47fd  e0        ret     po

47fe  61        ld      h,c
47ff  e1        pop     hl
4800  4b        ld      c,e
4801  1862      jr      #4865           ; (98)
4803  f24b58    jp      p,#584b
4806  62        ld      h,d
4807  07        rlca    
4808  4c        ld      c,h
4809  b0        or      b
480a  62        ld      h,d
480b  14        inc     d
480c  4c        ld      c,h
480d  c8        ret     z

480e  62        ld      h,d
480f  214cc8    ld      hl,#c84c
4812  62        ld      h,d
4813  364c      ld      (hl),#4c
4815  c8        ret     z

4816  62        ld      h,d
4817  47        ld      b,a
4818  4c        ld      c,h
4819  db3c      in      a,(#3c)
481b  00        nop     
481c  00        nop     
481d  49        ld      c,c
481e  c8        ret     z

481f  62        ld      h,d
4820  60        ld      h,b
4821  4c        ld      c,h
4822  c8        ret     z

4823  62        ld      h,d
4824  69        ld      l,c
4825  4c        ld      c,h
4826  c8        ret     z

4827  62        ld      h,d
4828  76        halt    
4829  4c        ld      c,h
482a  c8        ret     z

482b  62        ld      h,d
482c  87        add     a,a
482d  4c        ld      c,h
482e  c8        ret     z

482f  62        ld      h,d
4830  98        sbc     a,b
4831  4c        ld      c,h
4832  c8        ret     z

4833  62        ld      h,d
4834  b1        or      c
4835  4c        ld      c,h
4836  c8        ret     z

4837  62        ld      h,d
4838  c24cc8    jp      nz,#c84c
483b  62        ld      h,d
483c  cb4c      bit     1,h
483e  c8        ret     z

483f  62        ld      h,d
4840  dc4cc8    call    c,#c84c
4843  62        ld      h,d
4844  e9        jp      (hl)
4845  4c        ld      c,h
4846  c8        ret     z

4847  62        ld      h,d
4848  f64c      or      #4c
484a  d8        ret     c

484b  61        ld      h,c
484c  03        inc     bc
484d  4d        ld      c,l
484e  d8        ret     c

484f  61        ld      h,c
4850  08        ex      af,af'
4851  4d        ld      c,l
4852  d8        ret     c

4853  61        ld      h,c
4854  0d        dec     c
4855  4d        ld      c,l
4856  d8        ret     c

4857  61        ld      h,c
4858  12        ld      (de),a
4859  4d        ld      c,l
485a  d8        ret     c

485b  61        ld      h,c
485c  17        rla     
485d  4d        ld      c,l
485e  d8        ret     c

485f  61        ld      h,c
4860  1c        inc     e
4861  4d        ld      c,l
4862  d8        ret     c

4863  61        ld      h,c
4864  214dd8    ld      hl,#d84d
4867  61        ld      h,c
4868  264d      ld      h,#4d
486a  d8        ret     c

486b  61        ld      h,c
486c  2b        dec     hl
486d  4d        ld      c,l
486e  d8        ret     c

486f  61        ld      h,c
4870  304d      jr      nc,#48bf        ; (77)
4872  ea6241    jp      pe,#4162
4875  4d        ld      c,l
4876  d8        ret     c

4877  61        ld      h,c
4878  56        ld      d,(hl)
4879  4d        ld      c,l
487a  49        ld      c,c
487b  63        ld      h,e
487c  5b        ld      e,e
487d  4d        ld      c,l
487e  a6        and     (hl)
487f  63        ld      h,e
4880  68        ld      l,b
4881  4d        ld      c,l
4882  da6375    jp      c,#7563
4885  4d        ld      c,l
4886  1f        rra     
4887  64        ld      h,h
4888  93        sub     e
4889  4d        ld      c,l
488a  7a        ld      a,d
488b  64        ld      h,h
488c  9c        sbc     a,h
488d  4d        ld      c,l
488e  0a        ld      a,(bc)
488f  65        ld      h,l
4890  b1        or      c
4891  4d        ld      c,l
4892  a1        and     c
4893  65        ld      h,l
4894  be        cp      (hl)
4895  4d        ld      c,l
4896  d5        push    de
4897  65        ld      h,l
4898  064e      ld      b,#4e
489a  82        add     a,d
489b  66        ld      h,(hl)
489c  214ee0    ld      hl,#e04e
489f  66        ld      h,(hl)
48a0  2a4e07    ld      hl,(#074e)
48a3  67        ld      h,a
48a4  33        inc     sp
48a5  4e        ld      c,(hl)
48a6  29        add     hl,hl
48a7  67        ld      h,a
48a8  3c        inc     a
48a9  4e        ld      c,(hl)
48aa  89        adc     a,c
48ab  67        ld      h,a
48ac  65        ld      h,l
48ad  4e        ld      c,(hl)
48ae  00        nop     
48af  00        nop     
48b0  00        nop     
48b1  00        nop     
48b2  d26b3b    jp      nc,#3b6b
48b5  4f        ld      c,a
48b6  00        nop     
48b7  00        nop     
48b8  00        nop     
48b9  00        nop     
48ba  b1        or      c
48bb  6b        ld      l,e
48bc  324f5c    ld      (#5c4f),a
48bf  6b        ld      l,e
48c0  25        dec     h
48c1  4f        ld      c,a
48c2  25        dec     h
48c3  68        ld      l,b
48c4  6e        ld      l,(hl)
48c5  4e        ld      c,(hl)
48c6  82        add     a,d
48c7  68        ld      l,b
48c8  77        ld      (hl),a
48c9  4e        ld      c,(hl)
48ca  00        nop     
48cb  00        nop     
48cc  00        nop     
48cd  00        nop     
48ce  00        nop     
48cf  00        nop     
48d0  00        nop     
48d1  00        nop     
48d2  f668      or      #68
48d4  86        add     a,(hl)
48d5  4e        ld      c,(hl)
48d6  f3        di      
48d7  6a        ld      l,d
48d8  0e4f      ld      c,#4f
48da  3f        ccf     
48db  69        ld      l,c
48dc  9b        sbc     a,e
48dd  4e        ld      c,(hl)
48de  216aa8    ld      hl,#a86a
48e1  4e        ld      c,(hl)
48e2  4b        ld      c,e
48e3  6a        ld      l,d
48e4  b1        or      c
48e5  4e        ld      c,(hl)
48e6  9d        sbc     a,l
48e7  6a        ld      l,d
48e8  be        cp      (hl)
48e9  4e        ld      c,(hl)
48ea  010301    ld      bc,#0103
48ed  02        ld      (bc),a
48ee  02        ld      (bc),a
48ef  03        inc     bc
48f0  010303    ld      bc,#0303
48f3  03        inc     bc
48f4  010404    ld      bc,#0404
48f7  03        inc     bc
48f8  01050b    ld      bc,#0b05
48fb  03        inc     bc
48fc  010200    ld      bc,#0002
48ff  03        inc     bc
4900  03        inc     bc
4901  01010a    ld      bc,#0a01
4904  03        inc     bc
4905  01070c    ld      bc,#0c07
4908  03        inc     bc
4909  010112    ld      bc,#1201
490c  03        inc     bc
490d  011a00    ld      bc,#001a
4910  010301    ld      bc,#0103
4913  0602      ld      b,#02
4915  03        inc     bc
4916  010303    ld      bc,#0303
4919  03        inc     bc
491a  010404    ld      bc,#0404
491d  03        inc     bc
491e  c43c00    call    nz,#003c
4921  00        nop     
4922  4a        ld      c,d
4923  010100    ld      bc,#0001
4926  010301    ld      bc,#0103
4929  010203    ld      bc,#0302
492c  010303    ld      bc,#0303
492f  03        inc     bc
4930  010404    ld      bc,#0404
4933  03        inc     bc
4934  010500    ld      bc,#0005
4937  010301    ld      bc,#0103
493a  0602      ld      b,#02
493c  03        inc     bc
493d  010103    ld      bc,#0301
4940  03        inc     bc
4941  010404    ld      bc,#0404
4944  03        inc     bc
4945  010500    ld      bc,#0005
4948  010301    ld      bc,#0103
494b  0602      ld      b,#02
494d  03        inc     bc
494e  010303    ld      bc,#0303
4951  03        inc     bc
4952  010104    ld      bc,#0401
4955  03        inc     bc
4956  010500    ld      bc,#0005
4959  09        add     hl,bc
495a  03        inc     bc
495b  01020c    ld      bc,#0c02
495e  03        inc     bc
495f  010204    ld      bc,#0402
4962  03        inc     bc
4963  01080b    ld      bc,#0b08
4966  03        inc     bc
4967  010800    ld      bc,#0008
496a  02        ld      (bc),a
496b  03        inc     bc
496c  01070c    ld      bc,#0c07
496f  03        inc     bc
4970  010704    ld      bc,#0407
4973  03        inc     bc
4974  01090b    ld      bc,#0b09
4977  03        inc     bc
4978  010900    ld      bc,#0009
497b  02        ld      (bc),a
497c  03        inc     bc
497d  01080b    ld      bc,#0b08
4980  03        inc     bc
4981  010a09    ld      bc,#090a
4984  03        inc     bc
4985  010a04    ld      bc,#040a
4988  03        inc     bc
4989  010a00    ld      bc,#000a
498c  0a        ld      a,(bc)
498d  03        inc     bc
498e  010902    ld      bc,#0209
4991  03        inc     bc
4992  01090b    ld      bc,#0b09
4995  03        inc     bc
4996  010b04    ld      bc,#040b
4999  03        inc     bc
499a  010b09    ld      bc,#090b
499d  03        inc     bc
499e  010b00    ld      bc,#000b
49a1  02        ld      (bc),a
49a2  03        inc     bc
49a3  010a04    ld      bc,#040a
49a6  03        inc     bc
49a7  010c00    ld      bc,#000c
49aa  02        ld      (bc),a
49ab  03        inc     bc
49ac  010b0a    ld      bc,#0a0b
49af  0b        dec     bc
49b0  07        rlca    
49b1  07        rlca    
49b2  02        ld      (bc),a
49b3  25        dec     h
49b4  04        inc     b
49b5  71        ld      (hl),c
49b6  71        ld      (hl),c
49b7  05        dec     b
49b8  010d04    ld      bc,#040d
49bb  04        inc     b
49bc  04        inc     b
49bd  96        sub     (hl)
49be  71        ld      (hl),c
49bf  00        nop     
49c0  03        inc     bc
49c1  03        inc     bc
49c2  010e04    ld      bc,#040e
49c5  03        inc     bc
49c6  010f0a    ld      bc,#0a0f
49c9  03        inc     bc
49ca  011001    ld      bc,#0110
49cd  03        inc     bc
49ce  011009    ld      bc,#0910
49d1  0a        ld      a,(bc)
49d2  07        rlca    
49d3  0602      ld      b,#02
49d5  25        dec     h
49d6  04        inc     b
49d7  b6        or      (hl)
49d8  71        ld      (hl),c
49d9  010c02    ld      bc,#020c
49dc  0a        ld      a,(bc)
49dd  07        rlca    
49de  0602      ld      b,#02
49e0  25        dec     h
49e1  04        inc     b
49e2  b6        or      (hl)
49e3  71        ld      (hl),c
49e4  010c20    ld      bc,#200c
49e7  03        inc     bc
49e8  011a00    ld      bc,#001a
49eb  0c        inc     c
49ec  03        inc     bc
49ed  010d01    ld      bc,#010d
49f0  03        inc     bc
49f1  010d00    ld      bc,#000d
49f4  02        ld      (bc),a
49f5  03        inc     bc
49f6  010d10    ld      bc,#100d
49f9  0c        inc     c
49fa  07        rlca    
49fb  0603      ld      b,#03
49fd  0104c8    ld      bc,#c804
4a00  71        ld      (hl),c
4a01  04        inc     b
4a02  fa7105    jp      m,#0571
4a05  04        inc     b
4a06  0a        ld      a,(bc)
4a07  07        rlca    
4a08  05        dec     b
4a09  03        inc     bc
4a0a  010112    ld      bc,#1201
4a0d  04        inc     b
4a0e  09        add     hl,bc
4a0f  72        ld      (hl),d
4a10  0d        dec     c
4a11  05        dec     b
4a12  03        inc     bc
4a13  010112    ld      bc,#1201
4a16  23        inc     hl
4a17  1811      jr      #4a2a           ; (17)
4a19  11070c    ld      de,#0c07
4a1c  03        inc     bc
4a1d  011501    ld      bc,#0115
4a20  00        nop     
4a21  15        dec     d
4a22  02        ld      (bc),a
4a23  cf        rst     #8
4a24  3c        inc     a
4a25  00        nop     
4a26  00        nop     
4a27  4b        ld      c,e
4a28  00        nop     
4a29  04        inc     b
4a2a  de7b      sbc     a,#7b
4a2c  1801      jr      #4a2f           ; (1)
4a2e  15        dec     d
4a2f  02        ld      (bc),a
4a30  12        ld      (de),a
4a31  04        inc     b
4a32  f5        push    af
4a33  7b        ld      a,e
4a34  00        nop     
4a35  09        add     hl,bc
4a36  03        inc     bc
4a37  010d02    ld      bc,#020d
4a3a  03        inc     bc
4a3b  010d03    ld      bc,#030d
4a3e  0a        ld      a,(bc)
4a3f  07        rlca    
4a40  0603      ld      b,#03
4a42  0b        dec     bc
4a43  04        inc     b
4a44  27        daa     
4a45  72        ld      (hl),d
4a46  011101    ld      bc,#0111
4a49  0a        ld      a,(bc)
4a4a  07        rlca    
4a4b  0603      ld      b,#03
4a4d  0b        dec     bc
4a4e  04        inc     b
4a4f  27        daa     
4a50  72        ld      (hl),d
4a51  011904    ld      bc,#0419
4a54  0a        ld      a,(bc)
4a55  07        rlca    
4a56  0603      ld      b,#03
4a58  0b        dec     bc
4a59  04        inc     b
4a5a  27        daa     
4a5b  72        ld      (hl),d
4a5c  011826    ld      bc,#2618
4a5f  1011      djnz    #4a72           ; (17)
4a61  14        inc     d
4a62  03        inc     bc
4a63  0b        dec     bc
4a64  15        dec     d
4a65  0b        dec     bc
4a66  00        nop     
4a67  1813      jr      #4a7c           ; (19)
4a69  15        dec     d
4a6a  14        inc     d
4a6b  00        nop     
4a6c  04        inc     b
4a6d  a1        and     c
4a6e  7c        ld      a,h
4a6f  00        nop     
4a70  010301    ld      bc,#0103
4a73  100c      djnz    #4a81           ; (12)
4a75  03        inc     bc
4a76  011000    ld      bc,#0010
4a79  100c      djnz    #4a87           ; (12)
4a7b  07        rlca    
4a7c  0603      ld      b,#03
4a7e  02        ld      (bc),a
4a7f  04        inc     b
4a80  c8        ret     z

4a81  71        ld      (hl),c
4a82  04        inc     b
4a83  fa7105    jp      m,#0571
4a86  02        ld      (bc),a
4a87  0a        ld      a,(bc)
4a88  07        rlca    
4a89  05        dec     b
4a8a  03        inc     bc
4a8b  02        ld      (bc),a
4a8c  010f04    ld      bc,#040f
4a8f  09        add     hl,bc
4a90  72        ld      (hl),d
4a91  010604    ld      bc,#0406
4a94  3d        dec     a
4a95  72        ld      (hl),d
4a96  01130d    ld      bc,#0d13
4a99  05        dec     b
4a9a  03        inc     bc
4a9b  02        ld      (bc),a
4a9c  010f23    ld      bc,#230f
4a9f  1811      jr      #4ab2           ; (17)
4aa1  11070c    ld      de,#0c07
4aa4  03        inc     bc
4aa5  02        ld      (bc),a
4aa6  15        dec     d
4aa7  02        ld      (bc),a
4aa8  00        nop     
4aa9  15        dec     d
4aaa  010004    ld      bc,#0400
4aad  de7b      sbc     a,#7b
4aaf  1802      jr      #4ab3           ; (2)
4ab1  15        dec     d
4ab2  010f04    ld      bc,#040f
4ab5  f5        push    af
4ab6  7b        ld      a,e
4ab7  00        nop     
4ab8  03        inc     bc
4ab9  03        inc     bc
4aba  011c09    ld      bc,#091c
4abd  03        inc     bc
4abe  011c11    ld      bc,#111c
4ac1  03        inc     bc
4ac2  011c02    ld      bc,#021c
4ac5  03        inc     bc
4ac6  011201    ld      bc,#0112
4ac9  03        inc     bc
4aca  011204    ld      bc,#0412
4acd  03        inc     bc
4ace  011400    ld      bc,#0014
4ad1  02        ld      (bc),a
4ad2  03        inc     bc
4ad3  011309    ld      bc,#0913
4ad6  03        inc     bc
4ad7  011304    ld      bc,#0413
4ada  03        inc     bc
4adb  011501    ld      bc,#0115
4ade  03        inc     bc
4adf  01160a    ld      bc,#0a16
4ae2  03        inc     bc
4ae3  011600    ld      bc,#0016
4ae6  02        ld      (bc),a
4ae7  03        inc     bc
4ae8  011401    ld      bc,#0114
4aeb  03        inc     bc
4aec  011600    ld      bc,#0016
4aef  04        inc     b
4af0  03        inc     bc
4af1  011401    ld      bc,#0114
4af4  03        inc     bc
4af5  011702    ld      bc,#0217
4af8  03        inc     bc
4af9  011803    ld      bc,#0318
4afc  03        inc     bc
4afd  011500    ld      bc,#0015
4b00  03        inc     bc
4b01  03        inc     bc
4b02  01160c    ld      bc,#0c16
4b05  03        inc     bc
4b06  011600    ld      bc,#0016
4b09  02        ld      (bc),a
4b0a  03        inc     bc
4b0b  01100c    ld      bc,#0c10
4b0e  03        inc     bc
4b0f  011004    ld      bc,#0410
4b12  03        inc     bc
4b13  011609    ld      bc,#0916
4b16  03        inc     bc
4b17  011600    ld      bc,#0016
4b1a  0c        inc     c
4b1b  03        inc     bc
4b1c  011003    ld      bc,#0310
4b1f  03        inc     bc
4b20  011001    ld      bc,#0110
4b23  03        inc     bc
4b24  011a20    ld      bc,#201a
4b27  03        inc     bc
4b28  ba        cp      d
4b29  3c        inc     a
4b2a  00        nop     
4b2b  00        nop     
4b2c  4c        ld      c,h
4b2d  011a0a    ld      bc,#0a1a
4b30  03        inc     bc
4b31  013600    ld      bc,#0036
4b34  12        ld      (de),a
4b35  03        inc     bc
4b36  010203    ld      bc,#0302
4b39  03        inc     bc
4b3a  011902    ld      bc,#0219
4b3d  03        inc     bc
4b3e  011b00    ld      bc,#001b
4b41  0a        ld      a,(bc)
4b42  03        inc     bc
4b43  011a20    ld      bc,#201a
4b46  03        inc     bc
4b47  011a09    ld      bc,#091a
4b4a  03        inc     bc
4b4b  010d00    ld      bc,#000d
4b4e  010301    ld      bc,#0103
4b51  1c        inc     e
4b52  02        ld      (bc),a
4b53  03        inc     bc
4b54  012003    ld      bc,#0320
4b57  03        inc     bc
4b58  011e04    ld      bc,#041e
4b5b  03        inc     bc
4b5c  011d09    ld      bc,#091d
4b5f  03        inc     bc
4b60  011300    ld      bc,#0013
4b63  010301    ld      bc,#0103
4b66  1c        inc     e
4b67  02        ld      (bc),a
4b68  03        inc     bc
4b69  013303    ld      bc,#0333
4b6c  03        inc     bc
4b6d  011d04    ld      bc,#041d
4b70  03        inc     bc
4b71  011d00    ld      bc,#001d
4b74  010301    ld      bc,#0103
4b77  2002      jr      nz,#4b7b        ; (2)
4b79  03        inc     bc
4b7a  012a03    ld      bc,#032a
4b7d  03        inc     bc
4b7e  012b04    ld      bc,#042b
4b81  03        inc     bc
4b82  011c09    ld      bc,#091c
4b85  03        inc     bc
4b86  011f0a    ld      bc,#0a1f
4b89  03        inc     bc
4b8a  011f00    ld      bc,#001f
4b8d  09        add     hl,bc
4b8e  03        inc     bc
4b8f  011e0a    ld      bc,#0a1e
4b92  03        inc     bc
4b93  011e00    ld      bc,#001e
4b96  02        ld      (bc),a
4b97  03        inc     bc
4b98  011e03    ld      bc,#031e
4b9b  03        inc     bc
4b9c  012104    ld      bc,#0421
4b9f  03        inc     bc
4ba0  011c00    ld      bc,#001c
4ba3  010301    ld      bc,#0103
4ba6  2c        inc     l
4ba7  02        ld      (bc),a
4ba8  03        inc     bc
4ba9  012003    ld      bc,#0320
4bac  03        inc     bc
4bad  01220a    ld      bc,#0a22
4bb0  03        inc     bc
4bb1  012d00    ld      bc,#002d
4bb4  02        ld      (bc),a
4bb5  03        inc     bc
4bb6  012103    ld      bc,#0321
4bb9  03        inc     bc
4bba  012304    ld      bc,#0423
4bbd  03        inc     bc
4bbe  01250a    ld      bc,#0a25
4bc1  03        inc     bc
4bc2  012600    ld      bc,#0026
4bc5  010301    ld      bc,#0103
4bc8  24        inc     h
4bc9  02        ld      (bc),a
4bca  03        inc     bc
4bcb  012603    ld      bc,#0326
4bce  03        inc     bc
4bcf  012304    ld      bc,#0423
4bd2  03        inc     bc
4bd3  012209    ld      bc,#0922
4bd6  03        inc     bc
4bd7  01270a    ld      bc,#0a27
4bda  03        inc     bc
4bdb  012f00    ld      bc,#002f
4bde  010301    ld      bc,#0103
4be1  24        inc     h
4be2  02        ld      (bc),a
4be3  03        inc     bc
4be4  013404    ld      bc,#0434
4be7  03        inc     bc
4be8  01230a    ld      bc,#0a23
4beb  03        inc     bc
4bec  013000    ld      bc,#0030
4bef  02        ld      (bc),a
4bf0  03        inc     bc
4bf1  012204    ld      bc,#0422
4bf4  03        inc     bc
4bf5  012600    ld      bc,#0026
4bf8  02        ld      (bc),a
4bf9  03        inc     bc
4bfa  012303    ld      bc,#0323
4bfd  03        inc     bc
4bfe  012704    ld      bc,#0427
4c01  03        inc     bc
4c02  012509    ld      bc,#0925
4c05  03        inc     bc
4c06  012200    ld      bc,#0022
4c09  010301    ld      bc,#0103
4c0c  23        inc     hl
4c0d  03        inc     bc
4c0e  03        inc     bc
4c0f  012e04    ld      bc,#042e
4c12  03        inc     bc
4c13  012600    ld      bc,#0026
4c16  010301    ld      bc,#0103
4c19  34        inc     (hl)
4c1a  04        inc     b
4c1b  03        inc     bc
4c1c  012908    ld      bc,#0829
4c1f  03        inc     bc
4c20  013500    ld      bc,#0035
4c23  02        ld      (bc),a
4c24  03        inc     bc
4c25  012803    ld      bc,#0328
4c28  03        inc     bc
4c29  013404    ld      bc,#0434
4c2c  03        inc     bc
4c2d  a5        and     l
4c2e  3c        inc     a
4c2f  00        nop     
4c30  00        nop     
4c31  4d        ld      c,l
4c32  013200    ld      bc,#0032
4c35  04        inc     b
4c36  03        inc     bc
4c37  011e00    ld      bc,#001e
4c3a  02        ld      (bc),a
4c3b  03        inc     bc
4c3c  011e00    ld      bc,#001e
4c3f  03        inc     bc
4c40  03        inc     bc
4c41  012100    ld      bc,#0021
4c44  09        add     hl,bc
4c45  03        inc     bc
4c46  012100    ld      bc,#0021
4c49  04        inc     b
4c4a  03        inc     bc
4c4b  012700    ld      bc,#0027
4c4e  09        add     hl,bc
4c4f  03        inc     bc
4c50  012300    ld      bc,#0023
4c53  09        add     hl,bc
4c54  03        inc     bc
4c55  012400    ld      bc,#0024
4c58  02        ld      (bc),a
4c59  03        inc     bc
4c5a  013400    ld      bc,#0034
4c5d  02        ld      (bc),a
4c5e  03        inc     bc
4c5f  012900    ld      bc,#0029
4c62  04        inc     b
4c63  03        inc     bc
4c64  011d21    ld      bc,#211d
4c67  0b        dec     bc
4c68  112915    ld      de,#1529
4c6b  29        add     hl,hl
4c6c  00        nop     
4c6d  1823      jr      #4c92           ; (35)
4c6f  04        inc     b
4c70  58        ld      e,b
4c71  7c        ld      a,h
4c72  00        nop     
4c73  010301    ld      bc,#0103
4c76  29        add     hl,hl
4c77  02        ld      (bc),a
4c78  03        inc     bc
4c79  012803    ld      bc,#0328
4c7c  03        inc     bc
4c7d  013104    ld      bc,#0431
4c80  03        inc     bc
4c81  01240a    ld      bc,#0a24
4c84  03        inc     bc
4c85  010b00    ld      bc,#000b
4c88  0603      ld      b,#03
4c8a  012800    ld      bc,#0028
4c8d  02        ld      (bc),a
4c8e  03        inc     bc
4c8f  013704    ld      bc,#0437
4c92  03        inc     bc
4c93  013909    ld      bc,#0939
4c96  03        inc     bc
4c97  011900    ld      bc,#0019
4c9a  04        inc     b
4c9b  03        inc     bc
4c9c  01360a    ld      bc,#0a36
4c9f  03        inc     bc
4ca0  013811    ld      bc,#1138
4ca3  03        inc     bc
4ca4  013800    ld      bc,#0038
4ca7  09        add     hl,bc
4ca8  03        inc     bc
4ca9  01370c    ld      bc,#0c37
4cac  03        inc     bc
4cad  013711    ld      bc,#1137
4cb0  03        inc     bc
4cb1  01370a    ld      bc,#0a37
4cb4  04        inc     b
4cb5  04        inc     b
4cb6  7b        ld      a,e
4cb7  72        ld      (hl),d
4cb8  27        daa     
4cb9  0b        dec     bc
4cba  07        rlca    
4cbb  0602      ld      b,#02
4cbd  1c        inc     e
4cbe  04        inc     b
4cbf  37        scf     
4cc0  7b        ld      a,e
4cc1  19        add     hl,de
4cc2  1c        inc     e
4cc3  1b        dec     de
4cc4  00        nop     
4cc5  02        ld      (bc),a
4cc6  03        inc     bc
4cc7  01360a    ld      bc,#0a36
4cca  03        inc     bc
4ccb  013a00    ld      bc,#003a
4cce  010301    ld      bc,#0103
4cd1  3d        dec     a
4cd2  02        ld      (bc),a
4cd3  03        inc     bc
4cd4  013b04    ld      bc,#043b
4cd7  03        inc     bc
4cd8  014109    ld      bc,#0941
4cdb  03        inc     bc
4cdc  013911    ld      bc,#1139
4cdf  03        inc     bc
4ce0  013900    ld      bc,#0039
4ce3  02        ld      (bc),a
4ce4  03        inc     bc
4ce5  013c04    ld      bc,#043c
4ce8  03        inc     bc
4ce9  014109    ld      bc,#0941
4cec  03        inc     bc
4ced  013a00    ld      bc,#003a
4cf0  010707    ld      bc,#0707
4cf3  03        inc     bc
4cf4  0a        ld      a,(bc)
4cf5  f0        ret     p

4cf6  013b02    ld      bc,#023b
4cf9  07        rlca    
4cfa  07        rlca    
4cfb  03        inc     bc
4cfc  0a        ld      a,(bc)
4cfd  f0        ret     p

4cfe  013b03    ld      bc,#033b
4d01  07        rlca    
4d02  07        rlca    
4d03  03        inc     bc
4d04  0a        ld      a,(bc)
4d05  f0        ret     p

4d06  013b05    ld      bc,#053b
4d09  07        rlca    
4d0a  07        rlca    
4d0b  03        inc     bc
4d0c  0a        ld      a,(bc)
4d0d  f0        ret     p

4d0e  013b06    ld      bc,#063b
4d11  07        rlca    
4d12  07        rlca    
4d13  03        inc     bc
4d14  0a        ld      a,(bc)
4d15  f0        ret     p

4d16  013b07    ld      bc,#073b
4d19  07        rlca    
4d1a  07        rlca    
4d1b  03        inc     bc
4d1c  0a        ld      a,(bc)
4d1d  f0        ret     p

4d1e  013b08    ld      bc,#083b
4d21  07        rlca    
4d22  07        rlca    
4d23  03        inc     bc
4d24  0a        ld      a,(bc)
4d25  f0        ret     p

4d26  013b09    ld      bc,#093b
4d29  07        rlca    
4d2a  07        rlca    
4d2b  03        inc     bc
4d2c  0a        ld      a,(bc)
4d2d  f0        ret     p

4d2e  013b04    ld      bc,#043b
4d31  06cf      ld      b,#cf
4d33  3c        inc     a
4d34  00        nop     
4d35  00        nop     
4d36  4e        ld      c,(hl)
4d37  04        inc     b
4d38  cf        rst     #8
4d39  72        ld      (hl),d
4d3a  013c00    ld      bc,#003c
4d3d  03        inc     bc
4d3e  110706    ld      de,#0607
4d41  02        ld      (bc),a
4d42  17        rla     
4d43  04        inc     b
4d44  27        daa     
4d45  73        ld      (hl),e
4d46  07        rlca    
4d47  0602      ld      b,#02
4d49  1804      jr      #4d4f           ; (4)
4d4b  27        daa     
4d4c  73        ld      (hl),e
4d4d  013a09    ld      bc,#093a
4d50  03        inc     bc
4d51  013e0a    ld      bc,#0a3e
4d54  03        inc     bc
4d55  013f00    ld      bc,#003f
4d58  0a        ld      a,(bc)
4d59  03        inc     bc
4d5a  013d0c    ld      bc,#0c3d
4d5d  03        inc     bc
4d5e  013d00    ld      bc,#003d
4d61  09        add     hl,bc
4d62  03        inc     bc
4d63  013d0a    ld      bc,#0a3d
4d66  03        inc     bc
4d67  014000    ld      bc,#0040
4d6a  09        add     hl,bc
4d6b  03        inc     bc
4d6c  013f0c    ld      bc,#0c3f
4d6f  03        inc     bc
4d70  013f00    ld      bc,#003f
4d73  02        ld      (bc),a
4d74  03        inc     bc
4d75  013a04    ld      bc,#043a
4d78  03        inc     bc
4d79  014e09    ld      bc,#094e
4d7c  07        rlca    
4d7d  07        rlca    
4d7e  03        inc     bc
4d7f  0a        ld      a,(bc)
4d80  cc0148    call    z,#4801
4d83  010707    ld      bc,#0707
4d86  03        inc     bc
4d87  0a        ld      a,(bc)
4d88  cc0149    call    z,#4901
4d8b  03        inc     bc
4d8c  07        rlca    
4d8d  07        rlca    
4d8e  03        inc     bc
4d8f  0a        ld      a,(bc)
4d90  cc0142    call    z,#4201
4d93  0a        ld      a,(bc)
4d94  07        rlca    
4d95  07        rlca    
4d96  03        inc     bc
4d97  0a        ld      a,(bc)
4d98  cc013b    call    z,#3b01
4d9b  00        nop     
4d9c  010301    ld      bc,#0103
4d9f  41        ld      b,c
4da0  03        inc     bc
4da1  03        inc     bc
4da2  015000    ld      bc,#0050
4da5  04        inc     b
4da6  03        inc     bc
4da7  01410c    ld      bc,#0c41
4daa  03        inc     bc
4dab  014100    ld      bc,#0041
4dae  04        inc     b
4daf  09        add     hl,bc
4db0  07        rlca    
4db1  04        inc     b
4db2  0d        dec     c
4db3  014c04    ld      bc,#044c
4db6  53        ld      d,e
4db7  73        ld      (hl),e
4db8  0603      ld      b,#03
4dba  014100    ld      bc,#0041
4dbd  02        ld      (bc),a
4dbe  09        add     hl,bc
4dbf  07        rlca    
4dc0  04        inc     b
4dc1  0d        dec     c
4dc2  014904    ld      bc,#0449
4dc5  53        ld      d,e
4dc6  73        ld      (hl),e
4dc7  0c        inc     c
4dc8  09        add     hl,bc
4dc9  07        rlca    
4dca  04        inc     b
4dcb  0d        dec     c
4dcc  014904    ld      bc,#0449
4dcf  53        ld      d,e
4dd0  73        ld      (hl),e
4dd1  00        nop     
4dd2  02        ld      (bc),a
4dd3  03        inc     bc
4dd4  014104    ld      bc,#0441
4dd7  03        inc     bc
4dd8  01500a    ld      bc,#0a50
4ddb  03        inc     bc
4ddc  014f00    ld      bc,#004f
4ddf  09        add     hl,bc
4de0  03        inc     bc
4de1  014e0c    ld      bc,#0c4e
4de4  03        inc     bc
4de5  014e00    ld      bc,#004e
4de8  02        ld      (bc),a
4de9  03        inc     bc
4dea  014e04    ld      bc,#044e
4ded  03        inc     bc
4dee  01420a    ld      bc,#0a42
4df1  03        inc     bc
4df2  015100    ld      bc,#0051
4df5  09        add     hl,bc
4df6  03        inc     bc
4df7  01500c    ld      bc,#0c50
4dfa  03        inc     bc
4dfb  015011    ld      bc,#1150
4dfe  1607      ld      d,#07
4e00  08        ex      af,af'
4e01  03        inc     bc
4e02  09        add     hl,bc
4e03  04        inc     b
4e04  9e        sbc     a,(hl)
4e05  73        ld      (hl),e
4e06  014d07    ld      bc,#074d
4e09  0603      ld      b,#03
4e0b  08        ex      af,af'
4e0c  04        inc     b
4e0d  cb73      bit     6,e
4e0f  015004    ld      bc,#0450
4e12  7d        ld      a,l
4e13  7d        ld      a,l
4e14  24        inc     h
4e15  2f        cpl     
4e16  111c15    ld      de,#151c
4e19  1c        inc     e
4e1a  00        nop     
4e1b  07        rlca    
4e1c  0e03      ld      c,#03
4e1e  07        rlca    
4e1f  15        dec     d
4e20  07        rlca    
4e21  00        nop     
4e22  1808      jr      #4e2c           ; (8)
4e24  04        inc     b
4e25  02        ld      (bc),a
4e26  7d        ld      a,l
4e27  04        inc     b
4e28  71        ld      (hl),c
4e29  6e        ld      l,(hl)
4e2a  07        rlca    
4e2b  0e03      ld      c,#03
4e2d  08        ex      af,af'
4e2e  15        dec     d
4e2f  08        ex      af,af'
4e30  00        nop     
4e31  1809      jr      #4e3c           ; (9)
4e33  04        inc     b
4e34  29        add     hl,hl
4e35  7d        ld      a,l
4e36  04        inc     b
4e37  d7        rst     #10
4e38  3c        inc     a
4e39  00        nop     
4e3a  00        nop     
4e3b  4f        ld      c,a
4e3c  b1        or      c
4e3d  6e        ld      l,(hl)
4e3e  15        dec     d
4e3f  09        add     hl,bc
4e40  00        nop     
4e41  1807      jr      #4e4a           ; (7)
4e43  04        inc     b
4e44  59        ld      e,c
4e45  7d        ld      a,l
4e46  04        inc     b
4e47  45        ld      b,l
4e48  6e        ld      l,(hl)
4e49  00        nop     
4e4a  02        ld      (bc),a
4e4b  03        inc     bc
4e4c  01510a    ld      bc,#0a51
4e4f  03        inc     bc
4e50  015111    ld      bc,#1151
4e53  03        inc     bc
4e54  015110    ld      bc,#1051
4e57  05        dec     b
4e58  04        inc     b
4e59  71        ld      (hl),c
4e5a  71        ld      (hl),c
4e5b  05        dec     b
4e5c  04        inc     b
4e5d  03        inc     bc
4e5e  014700    ld      bc,#0047
4e61  010301    ld      bc,#0103
4e64  44        ld      b,h
4e65  02        ld      (bc),a
4e66  03        inc     bc
4e67  014603    ld      bc,#0346
4e6a  03        inc     bc
4e6b  014d00    ld      bc,#004d
4e6e  03        inc     bc
4e6f  03        inc     bc
4e70  01470c    ld      bc,#0c47
4e73  03        inc     bc
4e74  014700    ld      bc,#0047
4e77  03        inc     bc
4e78  03        inc     bc
4e79  01470c    ld      bc,#0c47
4e7c  03        inc     bc
4e7d  014700    ld      bc,#0047
4e80  ff        rst     #38
4e81  40        ld      b,b
4e82  00        nop     
4e83  40        ld      b,b
4e84  00        nop     
4e85  40        ld      b,b
4e86  00        nop     
4e87  40        ld      b,b
4e88  00        nop     
4e89  40        ld      b,b
4e8a  00        nop     
4e8b  40        ld      b,b
4e8c  00        nop     
4e8d  40        ld      b,b
4e8e  00        nop     
4e8f  00        nop     
4e90  00        nop     
4e91  00        nop     
4e92  00        nop     
4e93  00        nop     
4e94  00        nop     
4e95  00        nop     
4e96  00        nop     
4e97  00        nop     
4e98  00        nop     
4e99  00        nop     
4e9a  00        nop     
4e9b  00        nop     
4e9c  00        nop     
4e9d  00        nop     
4e9e  00        nop     
4e9f  00        nop     
4ea0  00        nop     
4ea1  00        nop     
4ea2  00        nop     
4ea3  00        nop     
4ea4  00        nop     
4ea5  00        nop     
4ea6  00        nop     
4ea7  00        nop     
4ea8  00        nop     
4ea9  00        nop     
4eaa  00        nop     
4eab  00        nop     
4eac  00        nop     
4ead  00        nop     
4eae  00        nop     
4eaf  00        nop     
4eb0  00        nop     
4eb1  00        nop     
4eb2  00        nop     
4eb3  00        nop     
4eb4  00        nop     
4eb5  00        nop     
4eb6  00        nop     
4eb7  00        nop     
4eb8  00        nop     
4eb9  00        nop     
4eba  00        nop     
4ebb  00        nop     
4ebc  00        nop     
4ebd  00        nop     
4ebe  00        nop     
4ebf  00        nop     
4ec0  00        nop     
4ec1  00        nop     
4ec2  00        nop     
4ec3  00        nop     
4ec4  00        nop     
4ec5  00        nop     
4ec6  00        nop     
4ec7  00        nop     
4ec8  00        nop     
4ec9  00        nop     
4eca  00        nop     
4ecb  00        nop     
4ecc  00        nop     
4ecd  00        nop     
4ece  00        nop     
4ecf  00        nop     
4ed0  00        nop     
4ed1  00        nop     
4ed2  00        nop     
4ed3  00        nop     
4ed4  00        nop     
4ed5  00        nop     
4ed6  00        nop     
4ed7  00        nop     
4ed8  00        nop     
4ed9  00        nop     
4eda  00        nop     
4edb  00        nop     
4edc  00        nop     
4edd  00        nop     
4ede  00        nop     
4edf  00        nop     
4ee0  00        nop     
4ee1  00        nop     
4ee2  00        nop     
4ee3  00        nop     
4ee4  00        nop     
4ee5  00        nop     
4ee6  00        nop     
4ee7  00        nop     
4ee8  00        nop     
4ee9  00        nop     
4eea  00        nop     
4eeb  00        nop     
4eec  00        nop     
4eed  00        nop     
4eee  00        nop     
4eef  00        nop     
4ef0  00        nop     
4ef1  00        nop     
4ef2  00        nop     
4ef3  00        nop     
4ef4  00        nop     
4ef5  00        nop     
4ef6  00        nop     
4ef7  00        nop     
4ef8  00        nop     
4ef9  00        nop     
4efa  00        nop     
4efb  00        nop     
4efc  00        nop     
4efd  00        nop     
4efe  00        nop     
4eff  00        nop     
4f00  00        nop     
4f01  00        nop     
4f02  00        nop     
4f03  00        nop     
4f04  00        nop     
4f05  00        nop     
4f06  00        nop     
4f07  00        nop     
4f08  00        nop     
4f09  00        nop     
4f0a  00        nop     
4f0b  00        nop     
4f0c  00        nop     
4f0d  00        nop     
4f0e  00        nop     
4f0f  00        nop     
4f10  00        nop     
4f11  00        nop     
4f12  00        nop     
4f13  00        nop     
4f14  00        nop     
4f15  00        nop     
4f16  00        nop     
4f17  40        ld      b,b
4f18  00        nop     
4f19  00        nop     
4f1a  00        nop     
4f1b  00        nop     
4f1c  00        nop     
4f1d  00        nop     
4f1e  00        nop     
4f1f  00        nop     
4f20  00        nop     
4f21  00        nop     
4f22  00        nop     
4f23  00        nop     
4f24  00        nop     
4f25  00        nop     
4f26  00        nop     
4f27  00        nop     
4f28  00        nop     
4f29  00        nop     
4f2a  00        nop     
4f2b  00        nop     
4f2c  00        nop     
4f2d  00        nop     
4f2e  33        inc     sp
4f2f  00        nop     
4f30  51        ld      d,c
4f31  00        nop     
4f32  00        nop     
4f33  00        nop     
4f34  00        nop     
4f35  00        nop     
4f36  00        nop     
4f37  00        nop     
4f38  1000      djnz    #4f3a           ; (0)
4f3a  00        nop     
4f3b  00        nop     
4f3c  6d        ld      l,l
4f3d  3c        inc     a
4f3e  00        nop     
4f3f  00        nop     
4f40  50        ld      d,b
4f41  00        nop     
4f42  40        ld      b,b
4f43  02        ld      (bc),a
4f44  40        ld      b,b
4f45  00        nop     
4f46  40        ld      b,b
4f47  08        ex      af,af'
4f48  40        ld      b,b
4f49  09        add     hl,bc
4f4a  40        ld      b,b
4f4b  48        ld      c,b
4f4c  40        ld      b,b
4f4d  0b        dec     bc
4f4e  00        nop     
4f4f  00        nop     
4f50  00        nop     
4f51  00        nop     
4f52  60        ld      h,b
4f53  00        nop     
4f54  40        ld      b,b
4f55  3d        dec     a
4f56  40        ld      b,b
4f57  00        nop     
4f58  40        ld      b,b
4f59  3b        dec     sp
4f5a  40        ld      b,b
4f5b  02        ld      (bc),a
4f5c  40        ld      b,b
4f5d  02        ld      (bc),a
4f5e  c0        ret     nz

4f5f  1b        dec     de
4f60  00        nop     
4f61  00        nop     
4f62  00        nop     
4f63  3860      jr      c,#4fc5         ; (96)
4f65  4c        ld      c,h
4f66  60        ld      h,b
4f67  00        nop     
4f68  60        ld      h,b
4f69  49        ld      c,c
4f6a  60        ld      h,b
4f6b  44        ld      b,h
4f6c  40        ld      b,b
4f6d  00        nop     
4f6e  40        ld      b,b
4f6f  00        nop     
4f70  60        ld      h,b
4f71  0e60      ld      c,#60
4f73  116019    ld      de,#1960
4f76  60        ld      h,b
4f77  12        ld      (de),a
4f78  60        ld      h,b
4f79  1860      jr      #4fdb           ; (96)
4f7b  00        nop     
4f7c  60        ld      h,b
4f7d  47        ld      b,a
4f7e  40        ld      b,b
4f7f  00        nop     
4f80  010000    ld      bc,#0000
4f83  00        nop     
4f84  00        nop     
4f85  00        nop     
4f86  00        nop     
4f87  00        nop     
4f88  58        ld      e,b
4f89  6d        ld      l,l
4f8a  58        ld      e,b
4f8b  6d        ld      l,l
4f8c  c0        ret     nz

4f8d  47        ld      b,a
4f8e  c0        ret     nz

4f8f  47        ld      b,a
4f90  c0        ret     nz

4f91  47        ld      b,a
4f92  e1        pop     hl
4f93  6e        ld      l,(hl)
4f94  45        ld      b,l
4f95  6e        ld      l,(hl)
4f96  71        ld      (hl),c
4f97  6e        ld      l,(hl)
4f98  b1        or      c
4f99  6e        ld      l,(hl)
4f9a  00        nop     
4f9b  00        nop     
4f9c  3a6d00    ld      a,(#006d)
4f9f  00        nop     
4fa0  00        nop     
4fa1  00        nop     
4fa2  2e6c      ld      l,#6c
4fa4  53        ld      d,e
4fa5  6c        ld      l,h
4fa6  75        ld      (hl),l
4fa7  6c        ld      l,h
4fa8  9e        sbc     a,(hl)
4fa9  6c        ld      l,h
4faa  12        ld      (de),a
4fab  6d        ld      l,l
4fac  cd6ceb    call    #eb6c
4faf  6c        ld      l,h
4fb0  ed70      in      f,(c)
4fb2  47        ld      b,a
4fb3  71        ld      (hl),c
4fb4  78        ld      a,b
4fb5  6d        ld      l,l
4fb6  78        ld      a,b
4fb7  6d        ld      l,l
4fb8  b1        or      c
4fb9  6d        ld      l,l
4fba  ec6d04    call    pe,#046d
4fbd  6e        ld      l,(hl)
4fbe  206e      jr      nz,#502e        ; (110)
4fc0  c0        ret     nz

4fc1  47        ld      b,a
4fc2  c0        ret     nz

4fc3  47        ld      b,a
4fc4  14        inc     d
4fc5  71        ld      (hl),c
4fc6  c5        push    bc
4fc7  70        ld      (hl),b
4fc8  a2        and     d
4fc9  70        ld      (hl),b
4fca  7e        ld      a,(hl)
4fcb  70        ld      (hl),b
4fcc  306f      jr      nc,#503d        ; (111)
4fce  4f        ld      c,a
4fcf  6f        ld      l,a
4fd0  7b        ld      a,e
4fd1  6f        ld      l,a
4fd2  ab        xor     e
4fd3  6f        ld      l,a
4fd4  ca6fea    jp      z,#ea6f
4fd7  6f        ld      l,a
4fd8  0e70      ld      c,#70
4fda  2b        dec     hl
4fdb  70        ld      (hl),b
4fdc  52        ld      d,d
4fdd  70        ld      (hl),b
4fde  2e6c      ld      l,#6c
4fe0  8a        adc     a,d
4fe1  51        ld      d,c
4fe2  c8        ret     z

4fe3  52        ld      d,d
4fe4  d7        rst     #10
4fe5  52        ld      d,d
4fe6  5e        ld      e,(hl)
4fe7  53        ld      d,e
4fe8  49        ld      c,c
4fe9  54        ld      d,h
4fea  00        nop     
4feb  00        nop     
4fec  c243c7    jp      nz,#c743
4fef  54        ld      d,h
4ff0  ef        rst     #28
4ff1  55        ld      d,l
4ff2  1853      jr      #5047           ; (83)
4ff4  6b        ld      l,e
4ff5  53        ld      d,e
4ff6  3253fb    ld      (#fb53),a
4ff9  52        ld      d,d
4ffa  81        add     a,c
4ffb  53        ld      d,e
4ffc  9b        sbc     a,e
4ffd  53        ld      d,e
4ffe  db53      in      a,(#53)
5000  e1        pop     hl
5001  53        ld      d,e
5002  ef        rst     #28
5003  53        ld      d,e
5004  00        nop     
5005  00        nop     
5006  2b        dec     hl
5007  54        ld      d,h
5008  34        inc     (hl)
5009  54        ld      d,h
500a  43        ld      b,e
500b  53        ld      d,e
500c  24        inc     h
500d  54        ld      d,h
500e  a5        and     l
500f  52        ld      d,d
5010  b3        or      e
5011  52        ld      d,d
5012  ea52f5    jp      pe,#f552
5015  55        ld      d,l
5016  54        ld      d,h
5017  56        ld      d,(hl)
5018  94        sub     h
5019  56        ld      d,(hl)
501a  3e0f      ld      a,#0f
501c  21e74f    ld      hl,#4fe7
501f  cd6143    call    #4361
5022  23        inc     hl
5023  7e        ld      a,(hl)
5024  a7        and     a
5025  ca3451    jp      z,#5134
5028  2a4250    ld      hl,(#5042)
502b  23        inc     hl
502c  224250    ld      (#5042),hl
502f  7c        ld      a,h
5030  fe01      cp      #01
5032  c23451    jp      nz,#5134
5035  7d        ld      a,l
5036  fe22      cp      #22
5038  c20351    jp      nz,#5103
503b  21c579    ld      hl,#79c5
503e  cdae45    call    #45ae
5041  163c      ld      d,#3c
5043  00        nop     
5044  00        nop     
5045  51        ld      d,c
5046  c37751    jp      #5177
5049  fe36      cp      #36
504b  c23451    jp      nz,#5134
504e  3e0f      ld      a,#0f
5050  21e74f    ld      hl,#4fe7
5053  cd6143    call    #4361
5056  23        inc     hl
5057  46        ld      b,(hl)
5058  3600      ld      (hl),#00
505a  21e74f    ld      hl,#4fe7
505d  3e2c      ld      a,#2c
505f  cd6143    call    #4361
5062  23        inc     hl
5063  70        ld      (hl),b
5064  3e23      ld      a,#23
5066  1eff      ld      e,#ff
5068  cd5043    call    #4350
506b  ca3451    jp      z,#5134
506e  214a7a    ld      hl,#7a4a
5071  cdae45    call    #45ae
5074  cd4552    call    #5245
5077  c37751    jp      #5177
507a  2a4250    ld      hl,(#5042)
507d  112c01    ld      de,#012c
5080  7c        ld      a,h
5081  ba        cp      d
5082  da7751    jp      c,#5177
5085  7d        ld      a,l
5086  bb        cp      e
5087  da7751    jp      c,#5177
508a  3e23      ld      a,#23
508c  1eff      ld      e,#ff
508e  cd5043    call    #4350
5091  c27751    jp      nz,#5177
5094  3e2c      ld      a,#2c
5096  1eff      ld      e,#ff
5098  cd5043    call    #4350
509b  c27751    jp      nz,#5177
509e  23        inc     hl
509f  3600      ld      (hl),#00
50a1  3e23      ld      a,#23
50a3  21e74f    ld      hl,#4fe7
50a6  cd6143    call    #4361
50a9  23        inc     hl
50aa  3600      ld      (hl),#00
50ac  23        inc     hl
50ad  23        inc     hl
50ae  36ff      ld      (hl),#ff
50b0  1eff      ld      e,#ff
50b2  3e0f      ld      a,#0f
50b4  cd7643    call    #4376
50b7  21917a    ld      hl,#7a91
50ba  cdae45    call    #45ae
50bd  3a4050    ld      a,(#5040)
50c0  c601      add     a,#01
50c2  27        daa     
50c3  324050    ld      (#5040),a
50c6  3a4150    ld      a,(#5041)
50c9  ce00      adc     a,#00
50cb  27        daa     
50cc  324150    ld      (#5041),a
50cf  c9        ret     

50d0  e1        pop     hl
50d1  46        ld      b,(hl)
50d2  23        inc     hl
50d3  e5        push    hl
50d4  3a3f50    ld      a,(#503f)
50d7  5f        ld      e,a
50d8  3e0f      ld      a,#0f
50da  cd5043    call    #4350
50dd  cada51    jp      z,#51da
50e0  1eff      ld      e,#ff
50e2  3e0f      ld      a,#0f
50e4  cd5043    call    #4350
50e7  cada51    jp      z,#51da
50ea  21454f    ld      hl,#4f45
50ed  3a3f50    ld      a,(#503f)
50f0  cd6143    call    #4361
50f3  7e        ld      a,(hl)
50f4  e640      and     #40
50f6  c2da51    jp      nz,#51da
50f9  78        ld      a,b
50fa  21454f    ld      hl,#4f45
50fd  cd6143    call    #4361
5100  7e        ld      a,(hl)
5101  e640      and     #40
5103  c2da51    jp      nz,#51da
5106  58        ld      e,b
5107  3e0f      ld      a,#0f
5109  cd5043    call    #4350
510c  cada51    jp      z,#51da
510f  3a7447    ld      a,(#4774)
5112  fe67      cp      #67
5114  dada51    jp      c,#51da
5117  210479    ld      hl,#7904
511a  cdae45    call    #45ae
511d  c34954    jp      #5449
5120  3a3f50    ld      a,(#503f)
5123  324450    ld      (#5044),a
5126  78        ld      a,b
5127  323f50    ld      (#503f),a
512a  cd4552    call    #5245
512d  3e2a      ld      a,#2a
512f  21e74f    ld      hl,#4fe7
5132  cd6143    call    #4361
5135  23        inc     hl
5136  7e        ld      a,(hl)
5137  a7        and     a
5138  c24252    jp      nz,#5242
513b  21e74f    ld      hl,#4fe7
513e  0e2c      ld      c,#2c
5140  0600      ld      b,#00
5142  7e        ld      a,(hl)
5143  e620      and     #20
5145  23        inc     hl
5146  c43c00    call    nz,#003c
5149  00        nop     
514a  52        ld      d,d
514b  ca0a52    jp      z,#520a
514e  7e        ld      a,(hl)
514f  feff      cp      #ff
5151  c20a52    jp      nz,#520a
5154  04        inc     b
5155  23        inc     hl
5156  0d        dec     c
5157  c2fc51    jp      nz,#51fc
515a  78        ld      a,b
515b  fe02      cp      #02
515d  da4252    jp      c,#5242
5160  21e74f    ld      hl,#4fe7
5163  0e2c      ld      c,#2c
5165  7e        ld      a,(hl)
5166  e620      and     #20
5168  23        inc     hl
5169  ca3052    jp      z,#5230
516c  7e        ld      a,(hl)
516d  feff      cp      #ff
516f  c23052    jp      nz,#5230
5172  3635      ld      (hl),#35
5174  3a4550    ld      a,(#5045)
5177  3d        dec     a
5178  324550    ld      (#5045),a
517b  23        inc     hl
517c  0d        dec     c
517d  c21a52    jp      nz,#521a
5180  1e35      ld      e,#35
5182  3e2a      ld      a,#2a
5184  cd7643    call    #4376
5187  214c7b    ld      hl,#7b4c
518a  cdae45    call    #45ae
518d  c3ab43    jp      #43ab
5190  3a3f50    ld      a,(#503f)
5193  21454f    ld      hl,#4f45
5196  cd6143    call    #4361
5199  7e        ld      a,(hl)
519a  e640      and     #40
519c  c27152    jp      nz,#5271
519f  3a3f50    ld      a,(#503f)
51a2  5f        ld      e,a
51a3  3e0f      ld      a,#0f
51a5  cd5043    call    #4350
51a8  ca7152    jp      z,#5271
51ab  1eff      ld      e,#ff
51ad  3e0f      ld      a,#0f
51af  cd5043    call    #4350
51b2  ca7152    jp      z,#5271
51b5  217679    ld      hl,#7976
51b8  cdae45    call    #45ae
51bb  c9        ret     

51bc  3a3f50    ld      a,(#503f)
51bf  218848    ld      hl,#4888
51c2  cd6b43    call    #436b
51c5  7e        ld      a,(hl)
51c6  23        inc     hl
51c7  66        ld      h,(hl)
51c8  6f        ld      l,a
51c9  cdae45    call    #45ae
51cc  0600      ld      b,#00
51ce  04        inc     b
51cf  3a3f50    ld      a,(#503f)
51d2  5f        ld      e,a
51d3  78        ld      a,b
51d4  fe2d      cp      #2d
51d6  d0        ret     nc

51d7  cd5043    call    #4350
51da  c28352    jp      nz,#5283
51dd  78        ld      a,b
51de  214750    ld      hl,#5047
51e1  cd6143    call    #4361
51e4  7e        ld      a,(hl)
51e5  23        inc     hl
51e6  66        ld      h,(hl)
51e7  6f        ld      l,a
51e8  c5        push    bc
51e9  cdae45    call    #45ae
51ec  c1        pop     bc
51ed  c38352    jp      #5283
51f0  e1        pop     hl
51f1  3a3f50    ld      a,(#503f)
51f4  5f        ld      e,a
51f5  7e        ld      a,(hl)
51f6  23        inc     hl
51f7  e5        push    hl
51f8  cd7643    call    #4376
51fb  c3ab43    jp      #43ab
51fe  e1        pop     hl
51ff  7e        ld      a,(hl)
5200  23        inc     hl
5201  46        ld      b,(hl)
5202  23        inc     hl
5203  e5        push    hl
5204  21e74f    ld      hl,#4fe7
5207  cd6143    call    #4361
520a  7e        ld      a,(hl)
520b  f680      or      #80
520d  77        ld      (hl),a
520e  23        inc     hl
520f  70        ld      (hl),b
5210  c32b54    jp      #542b
5213  e1        pop     hl
5214  7e        ld      a,(hl)
5215  23        inc     hl
5216  e5        push    hl
5217  1eff      ld      e,#ff
5219  cd5043    call    #4350
521c  caab43    jp      z,#43ab
521f  c3be43    jp      #43be
5222  e1        pop     hl
5223  46        ld      b,(hl)
5224  23        inc     hl
5225  e5        push    hl
5226  3a3f50    ld      a,(#503f)
5229  5f        ld      e,a
522a  78        ld      a,b
522b  cd5043    call    #4350
522e  caab43    jp      z,#43ab
5231  78        ld      a,b
5232  c3cc52    jp      #52cc
5235  e1        pop     hl
5236  3a3f50    ld      a,(#503f)
5239  5f        ld      e,a
523a  7e        ld      a,(hl)
523b  23        inc     hl
523c  e5        push    hl
523d  cd5043    call    #4350
5240  caab43    jp      z,#43ab
5243  c3be43    jp      #43be
5246  21e74f    ld      hl,#4fe7
5249  0e01      ld      c,#01
524b  283c      jr      z,#5289         ; (60)
524d  00        nop     
524e  00        nop     
524f  53        ld      d,e
5250  23        inc     hl
5251  79        ld      a,c
5252  fe1f      cp      #1f
5254  ca0d53    jp      z,#530d
5257  7e        ld      a,(hl)
5258  feff      cp      #ff
525a  cabe43    jp      z,#43be
525d  23        inc     hl
525e  0c        inc     c
525f  79        ld      a,c
5260  fe2d      cp      #2d
5262  c20053    jp      nz,#5300
5265  c3ab43    jp      #43ab
5268  e1        pop     hl
5269  46        ld      b,(hl)
526a  23        inc     hl
526b  e5        push    hl
526c  3a7447    ld      a,(#4774)
526f  b8        cp      b
5270  ca2653    jp      z,#5326
5273  d2be43    jp      nc,#43be
5276  219572    ld      hl,#7295
5279  cdae45    call    #45ae
527c  cd4552    call    #5245
527f  c3ab43    jp      #43ab
5282  e1        pop     hl
5283  46        ld      b,(hl)
5284  23        inc     hl
5285  e5        push    hl
5286  3a4450    ld      a,(#5044)
5289  b8        cp      b
528a  c2be43    jp      nz,#43be
528d  e1        pop     hl
528e  2b        dec     hl
528f  e5        push    hl
5290  c38a51    jp      #518a
5293  3a7b46    ld      a,(#467b)
5296  1eff      ld      e,#ff
5298  cd5043    call    #4350
529b  c25753    jp      nz,#5357
529e  216075    ld      hl,#7560
52a1  cdae45    call    #45ae
52a4  c3ab43    jp      #43ab
52a7  3a7b46    ld      a,(#467b)
52aa  47        ld      b,a
52ab  c3f453    jp      #53f4
52ae  e1        pop     hl
52af  5e        ld      e,(hl)
52b0  23        inc     hl
52b1  56        ld      d,(hl)
52b2  23        inc     hl
52b3  e5        push    hl
52b4  eb        ex      de,hl
52b5  cdae45    call    #45ae
52b8  c3ab43    jp      #43ab
52bb  e1        pop     hl
52bc  46        ld      b,(hl)
52bd  23        inc     hl
52be  e5        push    hl
52bf  3a4550    ld      a,(#5045)
52c2  3d        dec     a
52c3  324550    ld      (#5045),a
52c6  3a3f50    ld      a,(#503f)
52c9  5f        ld      e,a
52ca  78        ld      a,b
52cb  cd7643    call    #4376
52ce  c32b54    jp      #542b
52d1  3a4450    ld      a,(#5044)
52d4  a7        and     a
52d5  ca9253    jp      z,#5392
52d8  47        ld      b,a
52d9  3a3f50    ld      a,(#503f)
52dc  324450    ld      (#5044),a
52df  c3e051    jp      #51e0
52e2  213375    ld      hl,#7533
52e5  cdae45    call    #45ae
52e8  c3ab43    jp      #43ab
52eb  3a4550    ld      a,(#5045)
52ee  a7        and     a
52ef  c2ab53    jp      nz,#53ab
52f2  21a675    ld      hl,#75a6
52f5  cdae45    call    #45ae
52f8  c3ab43    jp      #43ab
52fb  21bc75    ld      hl,#75bc
52fe  cdae45    call    #45ae
5301  0600      ld      b,#00
5303  1eff      ld      e,#ff
5305  04        inc     b
5306  78        ld      a,b
5307  fe2d      cp      #2d
5309  d2ab43    jp      nc,#43ab
530c  cd5043    call    #4350
530f  c2b353    jp      nz,#53b3
5312  78        ld      a,b
5313  214750    ld      hl,#5047
5316  cd6143    call    #4361
5319  7e        ld      a,(hl)
531a  23        inc     hl
531b  66        ld      h,(hl)
531c  6f        ld      l,a
531d  7e        ld      a,(hl)
531e  23        inc     hl
531f  a7        and     a
5320  c2cd53    jp      nz,#53cd
5323  c5        push    bc
5324  cdae45    call    #45ae
5327  c1        pop     bc
5328  c3b353    jp      #53b3
532b  cd4552    call    #5245
532e  c3ab43    jp      #43ab
5331  e1        pop     hl
5332  46        ld      b,(hl)
5333  23        inc     hl
5334  e5        push    hl
5335  3a7b46    ld      a,(#467b)
5338  b8        cp      b
5339  c2be43    jp      nz,#43be
533c  c3ab43    jp      #43ab
533f  e1        pop     hl
5340  46        ld      b,(hl)
5341  23        inc     hl
5342  e5        push    hl
5343  78        ld      a,b
5344  cd5043    call    #4350
5347  7e        ld      a,(hl)
5348  e640      and     #40
534a  c20654    jp      nz,#5406
534d  21d975    ld      hl,#75d9
5350  e8        ret     pe

5351  3c        inc     a
5352  00        nop     
5353  00        nop     
5354  54        ld      d,h
5355  cdae45    call    #45ae
5358  c3ab43    jp      #43ab
535b  3a4550    ld      a,(#5045)
535e  fe08      cp      #08
5360  da1754    jp      c,#5417
5363  217575    ld      hl,#7575
5366  cdae45    call    #45ae
5369  c3ab43    jp      #43ab
536c  3c        inc     a
536d  324550    ld      (#5045),a
5370  78        ld      a,b
5371  1eff      ld      e,#ff
5373  cd7643    call    #4376
5376  c32b54    jp      #542b
5379  3a7b46    ld      a,(#467b)
537c  47        ld      b,a
537d  c36f53    jp      #536f
5380  212f75    ld      hl,#752f
5383  cdae45    call    #45ae
5386  c3ab43    jp      #43ab
5389  e1        pop     hl
538a  7e        ld      a,(hl)
538b  23        inc     hl
538c  5e        ld      e,(hl)
538d  23        inc     hl
538e  e5        push    hl
538f  21e74f    ld      hl,#4fe7
5392  cd6143    call    #4361
5395  7e        ld      a,(hl)
5396  e67f      and     #7f
5398  77        ld      (hl),a
5399  23        inc     hl
539a  73        ld      (hl),e
539b  c3ab43    jp      #43ab
539e  3a4650    ld      a,(#5046)
53a1  3c        inc     a
53a2  324650    ld      (#5046),a
53a5  fe03      cp      #03
53a7  d2bc54    jp      nc,#54bc
53aa  fe02      cp      #02
53ac  cab054    jp      z,#54b0
53af  21b47e    ld      hl,#7eb4
53b2  22c554    ld      (#54c5),hl
53b5  21aa7d    ld      hl,#7daa
53b8  cdae45    call    #45ae
53bb  cdee45    call    #45ee
53be  fe59      cp      #59
53c0  c2ef55    jp      nz,#55ef
53c3  2ac554    ld      hl,(#54c5)
53c6  cdae45    call    #45ae
53c9  210250    ld      hl,#5002
53cc  3601      ld      (hl),#01
53ce  23        inc     hl
53cf  23        inc     hl
53d0  3600      ld      (hl),#00
53d2  21e74f    ld      hl,#4fe7
53d5  3a3f50    ld      a,(#503f)
53d8  47        ld      b,a
53d9  3eff      ld      a,#ff
53db  0e2c      ld      c,#2c
53dd  23        inc     hl
53de  be        cp      (hl)
53df  c29754    jp      nz,#5497
53e2  70        ld      (hl),b
53e3  3a4550    ld      a,(#5045)
53e6  3d        dec     a
53e7  324550    ld      (#5045),a
53ea  3eff      ld      a,#ff
53ec  23        inc     hl
53ed  0d        dec     c
53ee  c28854    jp      nz,#5488
53f1  3e02      ld      a,#02
53f3  323f50    ld      (#503f),a
53f6  cd4552    call    #5245
53f9  31bf47    ld      sp,#47bf
53fc  210000    ld      hl,#0000
53ff  224250    ld      (#5042),hl
5402  c31943    jp      #4319
5405  214e7f    ld      hl,#7f4e
5408  22c554    ld      (#54c5),hl
540b  211d7e    ld      hl,#7e1d
540e  c36354    jp      #5463
5411  21797e    ld      hl,#7e79
5414  cdae45    call    #45ae
5417  c3ef55    jp      #55ef
541a  00        nop     
541b  00        nop     
541c  cdcd54    call    #54cd
541f  c3ab43    jp      #43ab
5422  210000    ld      hl,#0000
5425  22b255    ld      (#55b2),hl
5428  21454f    ld      hl,#4f45
542b  0e51      ld      c,#51
542d  7e        ld      a,(hl)
542e  e680      and     #80
5430  23        inc     hl
5431  caf054    jp      z,#54f0
5434  3ab255    ld      a,(#55b2)
5437  86        add     a,(hl)
5438  27        daa     
5439  32b255    ld      (#55b2),a
543c  3ab355    ld      a,(#55b3)
543f  ce00      adc     a,#00
5441  27        daa     
5442  32b355    ld      (#55b3),a
5445  23        inc     hl
5446  0d        dec     c
5447  c2d854    jp      nz,#54d8
544a  21e74f    ld      hl,#4fe7
544d  0e2c      ld      c,#2c
544f  7e        ld      a,(hl)
5450  e620      and     #20
5452  23        inc     hl
5453  ca211d    jp      z,#1d21
5456  3c        inc     a
5457  00        nop     
5458  00        nop     
5459  55        ld      d,l
545a  55        ld      d,l
545b  7e        ld      a,(hl)
545c  fe02      cp      #02
545e  0620      ld      b,#20
5460  ca1055    jp      z,#5510
5463  feff      cp      #ff
5465  c22155    jp      nz,#5521
5468  0605      ld      b,#05
546a  3ab255    ld      a,(#55b2)
546d  80        add     a,b
546e  27        daa     
546f  32b255    ld      (#55b2),a
5472  3ab355    ld      a,(#55b3)
5475  ce00      adc     a,#00
5477  27        daa     
5478  32b355    ld      (#55b3),a
547b  23        inc     hl
547c  0d        dec     c
547d  c2fa54    jp      nz,#54fa
5480  3a4650    ld      a,(#5046)
5483  a7        and     a
5484  ca4855    jp      z,#5548
5487  4f        ld      c,a
5488  0690      ld      b,#90
548a  3ab255    ld      a,(#55b2)
548d  80        add     a,b
548e  27        daa     
548f  32b255    ld      (#55b2),a
5492  da4455    jp      c,#5544
5495  3ab355    ld      a,(#55b3)
5498  c699      add     a,#99
549a  27        daa     
549b  32b355    ld      (#55b3),a
549e  0d        dec     c
549f  c23055    jp      nz,#5530
54a2  3ab355    ld      a,(#55b3)
54a5  fe90      cp      #90
54a7  da7855    jp      c,#5578
54aa  3e2d      ld      a,#2d
54ac  32bf55    ld      (#55bf),a
54af  3ab355    ld      a,(#55b3)
54b2  47        ld      b,a
54b3  3e99      ld      a,#99
54b5  90        sub     b
54b6  32b355    ld      (#55b3),a
54b9  3ab255    ld      a,(#55b2)
54bc  47        ld      b,a
54bd  3e99      ld      a,#99
54bf  90        sub     b
54c0  c601      add     a,#01
54c2  27        daa     
54c3  32b255    ld      (#55b2),a
54c6  3ab355    ld      a,(#55b3)
54c9  ce00      adc     a,#00
54cb  27        daa     
54cc  32b355    ld      (#55b3),a
54cf  c37d55    jp      #557d
54d2  3e20      ld      a,#20
54d4  32bf55    ld      (#55bf),a
54d7  21c055    ld      hl,#55c0
54da  3ab355    ld      a,(#55b3)
54dd  cda255    call    #55a2
54e0  3ab255    ld      a,(#55b2)
54e3  cda255    call    #55a2
54e6  21e355    ld      hl,#55e3
54e9  3a4150    ld      a,(#5041)
54ec  cda255    call    #55a2
54ef  3a4050    ld      a,(#5040)
54f2  cda255    call    #55a2
54f5  21b455    ld      hl,#55b4
54f8  cdd045    call    #45d0
54fb  c9        ret     

54fc  f5        push    af
54fd  0f        rrca    
54fe  0f        rrca    
54ff  0f        rrca    
5500  0f        rrca    
5501  cdab55    call    #55ab
5504  f1        pop     af
5505  e60f      and     #0f
5507  c630      add     a,#30
5509  77        ld      (hl),a
550a  23        inc     hl
550b  c9        ret     

550c  00        nop     
550d  00        nop     
550e  59        ld      e,c
550f  4f        ld      c,a
5510  55        ld      d,l
5511  2053      jr      nz,#5566        ; (83)
5513  43        ld      b,e
5514  4f        ld      c,a
5515  52        ld      d,d
5516  45        ld      b,l
5517  44        ld      b,h
5518  2020      jr      nz,#553a        ; (32)
551a  2020      jr      nz,#553c        ; (32)
551c  2020      jr      nz,#553e        ; (32)
551e  204f      jr      nz,#556f        ; (79)
5520  55        ld      d,l
5521  54        ld      d,h
5522  204f      jr      nz,#5573        ; (79)
5524  46        ld      b,(hl)
5525  2041      jr      nz,#5568        ; (65)
5527  2050      jr      nz,#5579        ; (80)
5529  4f        ld      c,a
552a  53        ld      d,e
552b  53        ld      d,e
552c  49        ld      c,c
552d  42        ld      b,d
552e  4c        ld      c,h
552f  45        ld      b,l
5530  2030      jr      nz,#5562        ; (48)
5532  323230    ld      (#3032),a
5535  2c        inc     l
5536  2055      jr      nz,#558d        ; (85)
5538  53        ld      d,e
5539  49        ld      c,c
553a  4e        ld      c,(hl)
553b  47        ld      b,a
553c  2020      jr      nz,#555e        ; (32)
553e  2020      jr      nz,#5560        ; (32)
5540  2020      jr      nz,#5562        ; (32)
5542  54        ld      d,h
5543  55        ld      d,l
5544  52        ld      d,d
5545  4e        ld      c,(hl)
5546  53        ld      d,e
5547  2e00      ld      l,#00
5549  cdcd54    call    #54cd
554c  c3f255    jp      #55f2
554f  21a07f    ld      hl,#7fa0
5552  cdae45    call    #45ae
5555  cdee45    call    #45ee
5558  fe08      cp      #08
555a  a1        and     c
555b  3c        inc     a
555c  00        nop     
555d  00        nop     
555e  56        ld      d,(hl)
555f  caab43    jp      z,#43ab
5562  fe0d      cp      #0d
5564  c2fb55    jp      nz,#55fb
5567  97        sub     a
5568  cd1202    call    #0212
556b  cd9602    call    #0296
556e  21454f    ld      hl,#4f45
5571  010301    ld      bc,#0103
5574  1e00      ld      e,#00
5576  e5        push    hl
5577  c5        push    bc
5578  d5        push    de
5579  cd3502    call    #0235
557c  d1        pop     de
557d  c1        pop     bc
557e  e1        pop     hl
557f  77        ld      (hl),a
5580  83        add     a,e
5581  5f        ld      e,a
5582  23        inc     hl
5583  0b        dec     bc
5584  78        ld      a,b
5585  b1        or      c
5586  c21756    jp      nz,#5617
5589  d5        push    de
558a  cd3502    call    #0235
558d  d1        pop     de
558e  bb        cp      e
558f  ca3f56    jp      z,#563f
5592  21ac7f    ld      hl,#7fac
5595  cdae45    call    #45ae
5598  cdf801    call    #01f8
559b  c3f555    jp      #55f5
559e  cdf801    call    #01f8
55a1  21586d    ld      hl,#6d58
55a4  224750    ld      (#5047),hl
55a7  224950    ld      (#5049),hl
55aa  cd4552    call    #5245
55ad  31bf47    ld      sp,#47bf
55b0  c31943    jp      #4319
55b3  21a07f    ld      hl,#7fa0
55b6  cdae45    call    #45ae
55b9  cdee45    call    #45ee
55bc  fe08      cp      #08
55be  caab43    jp      z,#43ab
55c1  fe0d      cp      #0d
55c3  c25a56    jp      nz,#565a
55c6  97        sub     a
55c7  cd1202    call    #0212
55ca  cd8702    call    #0287
55cd  21454f    ld      hl,#4f45
55d0  010301    ld      bc,#0103
55d3  1e00      ld      e,#00
55d5  e5        push    hl
55d6  c5        push    bc
55d7  7e        ld      a,(hl)
55d8  83        add     a,e
55d9  5f        ld      e,a
55da  d5        push    de
55db  7e        ld      a,(hl)
55dc  cd6402    call    #0264
55df  d1        pop     de
55e0  c1        pop     bc
55e1  e1        pop     hl
55e2  23        inc     hl
55e3  0b        dec     bc
55e4  78        ld      a,b
55e5  b1        or      c
55e6  c27656    jp      nz,#5676
55e9  7b        ld      a,e
55ea  cd6402    call    #0264
55ed  cdf801    call    #01f8
55f0  c3ab43    jp      #43ab
55f3  3a7447    ld      a,(#4774)
55f6  e603      and     #03
55f8  47        ld      b,a
55f9  21cc49    ld      hl,#49cc
55fc  7e        ld      a,(hl)
55fd  23        inc     hl
55fe  a7        and     a
55ff  ca9d56    jp      z,#569d
5602  feff      cp      #ff
5604  cac256    jp      z,#56c2
5607  fe05      cp      #05
5609  d2b856    jp      nc,#56b8
560c  80        add     a,b
560d  2b        dec     hl
560e  e603      and     #03
5610  c2b656    jp      nz,#56b6
5613  3e04      ld      a,#04
5615  77        ld      (hl),a
5616  23        inc     hl
5617  7e        ld      a,(hl)
5618  85        add     a,l
5619  6f        ld      l,a
561a  7c        ld      a,h
561b  ce00      adc     a,#00
561d  67        ld      h,a
561e  c39d56    jp      #569d
5621  21b87f    ld      hl,#7fb8
5624  cdae45    call    #45ae
5627  31bf47    ld      sp,#47bf
562a  c31943    jp      #4319
562d  1c        inc     e
562e  4c        ld      c,h
562f  41        ld      b,c
5630  4d        ld      c,l
5631  50        ld      d,b
5632  0e0f      ld      c,#0f
5634  2c        inc     l
5635  1e4c      ld      e,#4c
5637  41        ld      b,c
5638  4e        ld      c,(hl)
5639  54        ld      d,h
563a  45        ld      b,l
563b  52        ld      d,d
563c  0e0f      ld      c,#0f
563e  2c        inc     l
563f  0b        dec     bc
5640  42        ld      b,d
5641  4f        ld      c,a
5642  58        ld      e,b
5643  100f      djnz    #5654           ; (15)
5645  53        ld      d,e
5646  43        ld      b,e
5647  45        ld      b,l
5648  50        ld      d,b
5649  54        ld      d,h
564a  45        ld      b,l
564b  52        ld      d,d
564c  111442    ld      de,#4214
564f  49        ld      c,c
5650  52        ld      d,d
5651  44        ld      b,h
5652  13        inc     de
5653  14        inc     d
5654  1653      ld      d,#53
5656  54        ld      d,h
5657  41        ld      b,c
5658  54        ld      d,h
5659  55        ld      d,l
565a  45        ld      b,l
565b  13        inc     de
565c  14        inc     d
565d  0e50      ld      c,#50
565f  8a        adc     a,d
5660  3c        inc     a
5661  00        nop     
5662  00        nop     
5663  57        ld      d,a
5664  49        ld      c,c
5665  4c        ld      c,h
5666  4c        ld      c,h
5667  4f        ld      c,a
5668  57        ld      d,a
5669  12        ld      (de),a
566a  0e56      ld      c,#56
566c  45        ld      b,l
566d  4c        ld      c,h
566e  56        ld      d,(hl)
566f  45        ld      b,l
5670  54        ld      d,h
5671  12        ld      (de),a
5672  0e53      ld      c,#53
5674  45        ld      b,l
5675  52        ld      d,d
5676  50        ld      d,b
5677  45        ld      b,l
5678  4e        ld      c,(hl)
5679  0b        dec     bc
567a  1653      ld      d,#53
567c  41        ld      b,c
567d  52        ld      d,d
567e  43        ld      b,e
567f  4f        ld      c,a
5680  50        ld      d,b
5681  17        rla     
5682  180e      jr      #5692           ; (14)
5684  4d        ld      c,l
5685  41        ld      b,c
5686  47        ld      b,a
5687  41        ld      b,c
5688  5a        ld      e,d
5689  49        ld      c,c
568a  19        add     hl,de
568b  0d        dec     c
568c  49        ld      c,c
568d  53        ld      d,e
568e  53        ld      d,e
568f  55        ld      d,l
5690  45        ld      b,l
5691  19        add     hl,de
5692  0e45      ld      c,#45
5694  47        ld      b,a
5695  59        ld      e,c
5696  50        ld      d,b
5697  54        ld      d,h
5698  49        ld      c,c
5699  19        add     hl,de
569a  0c        inc     c
569b  46        ld      b,(hl)
569c  4f        ld      c,a
569d  4f        ld      c,a
569e  44        ld      b,h
569f  1a        ld      a,(de)
56a0  0e42      ld      c,#42
56a2  4f        ld      c,a
56a3  54        ld      d,h
56a4  54        ld      d,h
56a5  4c        ld      c,h
56a6  45        ld      b,l
56a7  1b        dec     de
56a8  15        dec     d
56a9  57        ld      d,a
56aa  41        ld      b,c
56ab  54        ld      d,h
56ac  45        ld      b,l
56ad  52        ld      d,d
56ae  1c        inc     e
56af  1e1d      ld      e,#1d
56b1  50        ld      d,b
56b2  4c        ld      c,h
56b3  41        ld      b,c
56b4  4e        ld      c,(hl)
56b5  54        ld      d,h
56b6  07        rlca    
56b7  08        ex      af,af'
56b8  09        add     hl,bc
56b9  1e42      ld      e,#42
56bb  45        ld      b,l
56bc  41        ld      b,c
56bd  4e        ld      c,(hl)
56be  53        ld      d,e
56bf  54        ld      d,h
56c0  07        rlca    
56c1  08        ex      af,af'
56c2  09        add     hl,bc
56c3  0e4d      ld      c,#4d
56c5  41        ld      b,c
56c6  43        ld      b,e
56c7  48        ld      c,b
56c8  49        ld      c,c
56c9  4e        ld      c,(hl)
56ca  060e      ld      b,#0e
56cc  56        ld      d,(hl)
56cd  45        ld      b,l
56ce  4e        ld      c,(hl)
56cf  44        ld      b,h
56d0  49        ld      c,c
56d1  4e        ld      c,(hl)
56d2  0616      ld      b,#16
56d4  42        ld      b,d
56d5  41        ld      b,c
56d6  54        ld      d,h
56d7  54        ld      d,h
56d8  45        ld      b,l
56d9  52        ld      d,d
56da  23        inc     hl
56db  24        inc     h
56dc  0c        inc     c
56dd  47        ld      b,a
56de  4f        ld      c,a
56df  4c        ld      c,h
56e0  44        ld      b,h
56e1  25        dec     h
56e2  0e4e      ld      c,#4e
56e4  55        ld      d,l
56e5  47        ld      b,a
56e6  47        ld      b,a
56e7  45        ld      b,l
56e8  54        ld      d,h
56e9  25        dec     h
56ea  0e44      ld      c,#44
56ec  49        ld      c,c
56ed  41        ld      b,c
56ee  4d        ld      c,l
56ef  4f        ld      c,a
56f0  4e        ld      c,(hl)
56f1  260e      ld      h,#0e
56f3  53        ld      d,e
56f4  49        ld      c,c
56f5  4c        ld      c,h
56f6  56        ld      d,(hl)
56f7  45        ld      b,l
56f8  52        ld      d,d
56f9  27        daa     
56fa  0c        inc     c
56fb  42        ld      b,d
56fc  41        ld      b,c
56fd  52        ld      d,d
56fe  53        ld      d,e
56ff  27        daa     
5700  0e4a      ld      c,#4a
5702  45        ld      b,l
5703  57        ld      d,a
5704  45        ld      b,l
5705  4c        ld      c,h
5706  52        ld      d,d
5707  280d      jr      z,#5716         ; (13)
5709  43        ld      b,e
570a  4f        ld      c,a
570b  49        ld      c,c
570c  4e        ld      c,(hl)
570d  53        ld      d,e
570e  29        add     hl,hl
570f  0d        dec     c
5710  43        ld      b,e
5711  48        ld      c,b
5712  45        ld      b,l
5713  53        ld      d,e
5714  54        ld      d,h
5715  2a0e54    ld      hl,(#540e)
5718  52        ld      d,d
5719  45        ld      b,l
571a  41        ld      b,c
571b  53        ld      d,e
571c  55        ld      d,l
571d  2a0c45    ld      hl,(#450c)
5720  47        ld      b,a
5721  47        ld      b,a
5722  53        ld      d,e
5723  2b        dec     hl
5724  0b        dec     bc
5725  45        ld      b,l
5726  47        ld      b,a
5727  47        ld      b,a
5728  2b        dec     hl
5729  0c        inc     c
572a  4e        ld      c,(hl)
572b  45        ld      b,l
572c  53        ld      d,e
572d  54        ld      d,h
572e  2b        dec     hl
572f  0b        dec     bc
5730  4b        ld      c,e
5731  45        ld      b,l
5732  59        ld      e,c
5733  221456    ld      (#5614),hl
5736  41        ld      b,c
5737  53        ld      d,e
5738  45        ld      b,l
5739  2021      jr      nz,#575c        ; (33)
573b  0e53      ld      c,#53
573d  48        ld      c,b
573e  41        ld      b,c
573f  52        ld      d,d
5740  44        ld      b,h
5741  53        ld      d,e
5742  15        dec     d
5743  0e50      ld      c,#50
5745  4f        ld      c,a
5746  54        ld      d,h
5747  54        ld      d,h
5748  45        ld      b,l
5749  52        ld      d,d
574a  15        dec     d
574b  0e45      ld      c,#45
574d  4d        ld      c,l
574e  45        ld      b,l
574f  52        ld      d,d
5750  41        ld      b,c
5751  4c        ld      c,h
5752  1f        rra     
5753  0d        dec     c
5754  50        ld      d,b
5755  45        ld      b,l
5756  41        ld      b,c
5757  52        ld      d,d
5758  4c        ld      c,h
5759  16c9      ld      d,#c9
575b  4e        ld      c,(hl)
575c  01cd4e    ld      bc,#4ecd
575f  4f        ld      c,a
5760  52        ld      d,d
5761  54        ld      d,h
5762  48        ld      c,b
5763  012b3c    ld      bc,#3c2b
5766  00        nop     
5767  00        nop     
5768  58        ld      e,b
5769  c9        ret     

576a  45        ld      b,l
576b  02        ld      (bc),a
576c  cc4541    call    z,#4145
576f  53        ld      d,e
5770  54        ld      d,h
5771  02        ld      (bc),a
5772  c9        ret     

5773  53        ld      d,e
5774  03        inc     bc
5775  cd534f    call    #4f53
5778  55        ld      d,l
5779  54        ld      d,h
577a  48        ld      c,b
577b  03        inc     bc
577c  c9        ret     

577d  57        ld      d,a
577e  04        inc     b
577f  cc5745    call    z,#4557
5782  53        ld      d,e
5783  54        ld      d,h
5784  04        inc     b
5785  ca4e45    jp      z,#454e
5788  05        dec     b
5789  ce4e      adc     a,#4e
578b  4f        ld      c,a
578c  52        ld      d,d
578d  54        ld      d,h
578e  48        ld      c,b
578f  45        ld      b,l
5790  05        dec     b
5791  ca5345    jp      z,#4553
5794  06ce      ld      b,#ce
5796  53        ld      d,e
5797  4f        ld      c,a
5798  55        ld      d,l
5799  54        ld      d,h
579a  48        ld      c,b
579b  45        ld      b,l
579c  06ca      ld      b,#ca
579e  53        ld      d,e
579f  57        ld      d,a
57a0  07        rlca    
57a1  ce53      adc     a,#53
57a3  4f        ld      c,a
57a4  55        ld      d,l
57a5  54        ld      d,h
57a6  48        ld      c,b
57a7  57        ld      d,a
57a8  07        rlca    
57a9  ca4e57    jp      z,#574e
57ac  08        ex      af,af'
57ad  ce4e      adc     a,#4e
57af  4f        ld      c,a
57b0  52        ld      d,d
57b1  54        ld      d,h
57b2  48        ld      c,b
57b3  57        ld      d,a
57b4  08        ex      af,af'
57b5  c9        ret     

57b6  55        ld      d,l
57b7  09        add     hl,bc
57b8  ca5550    jp      z,#5055
57bb  09        add     hl,bc
57bc  c9        ret     

57bd  44        ld      b,h
57be  0a        ld      a,(bc)
57bf  cc444f    call    z,#4f44
57c2  57        ld      d,a
57c3  4e        ld      c,(hl)
57c4  0a        ld      a,(bc)
57c5  ca494e    jp      z,#4e49
57c8  0b        dec     bc
57c9  ce49      adc     a,#49
57cb  4e        ld      c,(hl)
57cc  53        ld      d,e
57cd  49        ld      c,c
57ce  44        ld      b,h
57cf  45        ld      b,l
57d0  0b        dec     bc
57d1  cb4f      bit     1,a
57d3  55        ld      d,l
57d4  54        ld      d,h
57d5  0c        inc     c
57d6  ce4f      adc     a,#4f
57d8  55        ld      d,l
57d9  54        ld      d,h
57da  53        ld      d,e
57db  49        ld      c,c
57dc  44        ld      b,h
57dd  0c        inc     c
57de  cd4352    call    #5243
57e1  4f        ld      c,a
57e2  53        ld      d,e
57e3  53        ld      d,e
57e4  0d        dec     c
57e5  cc4c45    call    z,#454c
57e8  46        ld      b,(hl)
57e9  54        ld      d,h
57ea  0ecd      ld      c,#cd
57ec  52        ld      d,d
57ed  49        ld      c,c
57ee  47        ld      b,a
57ef  48        ld      c,b
57f0  54        ld      d,h
57f1  0f        rrca    
57f2  cc4a55    call    z,#554a
57f5  4d        ld      c,l
57f6  50        ld      d,b
57f7  10cd      djnz    #57c6           ; (-51)
57f9  43        ld      b,e
57fa  4c        ld      c,h
57fb  49        ld      c,c
57fc  4d        ld      c,l
57fd  42        ld      b,d
57fe  11cd50    ld      de,#50cd
5801  41        ld      b,c
5802  4e        ld      c,(hl)
5803  45        ld      b,l
5804  4c        ld      c,h
5805  12        ld      (de),a
5806  cc4241    call    z,#4142
5809  43        ld      b,e
580a  4b        ld      c,e
580b  14        inc     d
580c  cc5357    call    z,#5753
580f  49        ld      c,c
5810  4d        ld      c,l
5811  16ca      ld      d,#ca
5813  4f        ld      c,a
5814  4e        ld      c,(hl)
5815  17        rla     
5816  cb4f      bit     1,a
5818  46        ld      b,(hl)
5819  46        ld      b,(hl)
581a  18cc      jr      #57e8           ; (-52)
581c  51        ld      d,c
581d  55        ld      d,l
581e  49        ld      c,c
581f  54        ld      d,h
5820  19        add     hl,de
5821  cc5354    call    z,#5453
5824  4f        ld      c,a
5825  50        ld      d,b
5826  19        add     hl,de
5827  cd5343    call    #4353
582a  4f        ld      c,a
582b  52        ld      d,d
582c  45        ld      b,l
582d  1a        ld      a,(de)
582e  ce49      adc     a,#49
5830  4e        ld      c,(hl)
5831  56        ld      d,(hl)
5832  45        ld      b,l
5833  4e        ld      c,(hl)
5834  54        ld      d,h
5835  1b        dec     de
5836  cc4c4f    call    z,#4f4c
5839  4f        ld      c,a
583a  4b        ld      c,e
583b  1c        inc     e
583c  cc4845    call    z,#4548
583f  4c        ld      c,h
5840  50        ld      d,b
5841  1d        dec     e
5842  cc4649    call    z,#4946
5845  4e        ld      c,(hl)
5846  44        ld      b,h
5847  1e4c      ld      e,#4c
5849  44        ld      b,h
584a  52        ld      d,d
584b  4f        ld      c,a
584c  50        ld      d,b
584d  214e52    ld      hl,#524e
5850  45        ld      b,l
5851  4c        ld      c,h
5852  45        ld      b,l
5853  41        ld      b,c
5854  53        ld      d,e
5855  214c46    ld      hl,#464c
5858  52        ld      d,d
5859  45        ld      b,l
585a  45        ld      b,l
585b  214e44    ld      hl,#444e
585e  49        ld      c,c
585f  53        ld      d,e
5860  43        ld      b,e
5861  41        ld      b,c
5862  52        ld      d,d
5863  21cd4c    ld      hl,#4ccd
5866  49        ld      c,c
5867  47        ld      b,a
5868  48        ld      c,b
5869  c1        pop     bc
586a  3c        inc     a
586b  00        nop     
586c  00        nop     
586d  59        ld      e,c
586e  54        ld      d,h
586f  17        rla     
5870  4c        ld      c,h
5871  57        ld      d,a
5872  41        ld      b,c
5873  56        ld      d,(hl)
5874  45        ld      b,l
5875  23        inc     hl
5876  4d        ld      c,l
5877  53        ld      d,e
5878  48        ld      c,b
5879  41        ld      b,c
587a  4b        ld      c,e
587b  45        ld      b,l
587c  23        inc     hl
587d  4d        ld      c,l
587e  53        ld      d,e
587f  57        ld      d,a
5880  49        ld      c,c
5881  4e        ld      c,(hl)
5882  47        ld      b,a
5883  23        inc     hl
5884  4c        ld      c,h
5885  50        ld      d,b
5886  4f        ld      c,a
5887  55        ld      d,l
5888  52        ld      d,d
5889  24        inc     h
588a  4b        ld      c,e
588b  52        ld      d,d
588c  55        ld      d,l
588d  42        ld      b,d
588e  25        dec     h
588f  4d        ld      c,l
5890  54        ld      d,h
5891  48        ld      c,b
5892  52        ld      d,d
5893  4f        ld      c,a
5894  57        ld      d,a
5895  264c      ld      h,#4c
5897  54        ld      d,h
5898  4f        ld      c,a
5899  53        ld      d,e
589a  53        ld      d,e
589b  264c      ld      h,#4c
589d  46        ld      b,(hl)
589e  49        ld      c,c
589f  4c        ld      c,h
58a0  4c        ld      c,h
58a1  27        daa     
58a2  8c        adc     a,h
58a3  54        ld      d,h
58a4  41        ld      b,c
58a5  4b        ld      c,e
58a6  45        ld      b,l
58a7  288b      jr      z,#5834         ; (-117)
58a9  47        ld      b,a
58aa  45        ld      b,l
58ab  54        ld      d,h
58ac  288d      jr      z,#583b         ; (-115)
58ae  43        ld      b,e
58af  41        ld      b,c
58b0  52        ld      d,d
58b1  52        ld      d,d
58b2  59        ld      e,c
58b3  288d      jr      z,#5842         ; (-115)
58b5  43        ld      b,e
58b6  41        ld      b,c
58b7  54        ld      d,h
58b8  43        ld      b,e
58b9  48        ld      c,b
58ba  288d      jr      z,#5849         ; (-115)
58bc  53        ld      d,e
58bd  54        ld      d,h
58be  45        ld      b,l
58bf  41        ld      b,c
58c0  4c        ld      c,h
58c1  288e      jr      z,#5851         ; (-114)
58c3  43        ld      b,e
58c4  41        ld      b,c
58c5  50        ld      d,b
58c6  54        ld      d,h
58c7  55        ld      d,l
58c8  52        ld      d,d
58c9  288c      jr      z,#5857         ; (-116)
58cb  4f        ld      c,a
58cc  50        ld      d,b
58cd  45        ld      b,l
58ce  4e        ld      c,(hl)
58cf  29        add     hl,hl
58d0  8e        adc     a,(hl)
58d1  41        ld      b,c
58d2  54        ld      d,h
58d3  54        ld      d,h
58d4  41        ld      b,c
58d5  43        ld      b,e
58d6  4b        ld      c,e
58d7  2c        inc     l
58d8  8c        adc     a,h
58d9  4b        ld      c,e
58da  49        ld      c,c
58db  4c        ld      c,h
58dc  4c        ld      c,h
58dd  2c        inc     l
58de  8b        adc     a,e
58df  48        ld      c,b
58e0  49        ld      c,c
58e1  54        ld      d,h
58e2  2c        inc     l
58e3  8d        adc     a,l
58e4  46        ld      b,(hl)
58e5  49        ld      c,c
58e6  47        ld      b,a
58e7  48        ld      c,b
58e8  54        ld      d,h
58e9  2c        inc     l
58ea  8c        adc     a,h
58eb  46        ld      b,(hl)
58ec  45        ld      b,l
58ed  45        ld      b,l
58ee  44        ld      b,h
58ef  2d        dec     l
58f0  8b        adc     a,e
58f1  45        ld      b,l
58f2  41        ld      b,c
58f3  54        ld      d,h
58f4  2e8d      ld      l,#8d
58f6  44        ld      b,h
58f7  52        ld      d,d
58f8  49        ld      c,c
58f9  4e        ld      c,(hl)
58fa  4b        ld      c,e
58fb  2f        cpl     
58fc  8d        adc     a,l
58fd  42        ld      b,d
58fe  52        ld      d,d
58ff  45        ld      b,l
5900  41        ld      b,c
5901  4b        ld      c,e
5902  308d      jr      nc,#5891        ; (-115)
5904  53        ld      d,e
5905  4d        ld      c,l
5906  41        ld      b,c
5907  53        ld      d,e
5908  48        ld      c,b
5909  30cc      jr      nc,#58d7        ; (-52)
590b  4c        ld      c,h
590c  4f        ld      c,a
590d  41        ld      b,c
590e  44        ld      b,h
590f  3acc53    ld      a,(#53cc)
5912  41        ld      b,c
5913  56        ld      d,(hl)
5914  45        ld      b,l
5915  3b        dec     sp
5916  cd504c    call    #4c50
5919  55        ld      d,l
591a  47        ld      b,a
591b  48        ld      c,b
591c  39        add     hl,sp
591d  00        nop     
591e  010404    ld      bc,#0404
5921  ed730204  ld      (#0402),sp
5925  04        inc     b
5926  ed730304  ld      (#0403),sp
592a  04        inc     b
592b  ed730404  ld      (#0404),sp
592f  04        inc     b
5930  ed730504  ld      (#0405),sp
5934  04        inc     b
5935  ed730604  ld      (#0406),sp
5939  04        inc     b
593a  ed730704  ld      (#0407),sp
593e  04        inc     b
593f  ed730804  ld      (#0408),sp
5943  04        inc     b
5944  ed730904  ld      (#0409),sp
5948  04        inc     b
5949  ed730a04  ld      (#040a),sp
594d  04        inc     b
594e  ed730b04  ld      (#040b),sp
5952  04        inc     b
5953  0d        dec     c
5954  74        ld      (hl),h
5955  0c        inc     c
5956  04        inc     b
5957  04        inc     b
5958  0d        dec     c
5959  74        ld      (hl),h
595a  0e04      ld      c,#04
595c  04        inc     b
595d  31740f    ld      sp,#0f74
5960  04        inc     b
5961  04        inc     b
5962  317412    ld      sp,#1274
5965  04        inc     b
5966  04        inc     b
5967  56        ld      d,(hl)
5968  74        ld      (hl),h
5969  14        inc     d
596a  02        ld      (bc),a
596b  0e16      ld      c,#16
596d  04        inc     b
596e  f0        ret     p

596f  3c        inc     a
5970  00        nop     
5971  00        nop     
5972  5a        ld      e,d
5973  04        inc     b
5974  63        ld      h,e
5975  74        ld      (hl),h
5976  17        rla     
5977  1807      jr      #5980           ; (7)
5979  0c        inc     c
597a  02        ld      (bc),a
597b  0e15      ld      c,#15
597d  0e00      ld      c,#00
597f  15        dec     d
5980  0f        rrca    
5981  ff        rst     #38
5982  04        inc     b
5983  8f        adc     a,a
5984  74        ld      (hl),h
5985  07        rlca    
5986  0602      ld      b,#02
5988  0f        rrca    
5989  04        inc     b
598a  8f        adc     a,a
598b  74        ld      (hl),h
598c  04        inc     b
598d  9f        sbc     a,a
598e  74        ld      (hl),h
598f  1818      jr      #59a9           ; (24)
5991  07        rlca    
5992  0c        inc     c
5993  02        ld      (bc),a
5994  0f        rrca    
5995  15        dec     d
5996  0f        rrca    
5997  00        nop     
5998  15        dec     d
5999  0eff      ld      c,#ff
599b  04        inc     b
599c  b4        or      h
599d  74        ld      (hl),h
599e  07        rlca    
599f  0602      ld      b,#02
59a1  0e04      ld      c,#04
59a3  b4        or      h
59a4  74        ld      (hl),h
59a5  04        inc     b
59a6  9f        sbc     a,a
59a7  74        ld      (hl),h
59a8  19        add     hl,de
59a9  02        ld      (bc),a
59aa  09        add     hl,bc
59ab  1a        ld      a,(de)
59ac  02        ld      (bc),a
59ad  08        ex      af,af'
59ae  1b        dec     de
59af  02        ld      (bc),a
59b0  0f        rrca    
59b1  1c        inc     e
59b2  02        ld      (bc),a
59b3  101d      djnz    #59d2           ; (29)
59b5  04        inc     b
59b6  04        inc     b
59b7  c4741e    call    nz,#1e74
59ba  04        inc     b
59bb  04        inc     b
59bc  d8        ret     c

59bd  74        ld      (hl),h
59be  2847      jr      z,#5a07         ; (71)
59c0  07        rlca    
59c1  0611      ld      b,#11
59c3  07        rlca    
59c4  04        inc     b
59c5  61        ld      h,c
59c6  7a        ld      a,d
59c7  07        rlca    
59c8  17        rla     
59c9  111307    ld      de,#0713
59cc  0602      ld      b,#02
59ce  1104c7    ld      de,#c704
59d1  7a        ld      a,d
59d2  07        rlca    
59d3  09        add     hl,bc
59d4  02        ld      (bc),a
59d5  1015      djnz    #59ec           ; (21)
59d7  13        inc     de
59d8  00        nop     
59d9  19        add     hl,de
59da  14        inc     d
59db  1004      djnz    #59e1           ; (4)
59dd  14        inc     d
59de  7b        ld      a,e
59df  07        rlca    
59e0  0a        ld      a,(bc)
59e1  112012    ld      de,#1220
59e4  211520    ld      hl,#2015
59e7  00        nop     
59e8  1812      jr      #59fc           ; (18)
59ea  07        rlca    
59eb  0d        dec     c
59ec  111e07    ld      de,#071e
59ef  0602      ld      b,#02
59f1  1c        inc     e
59f2  04        inc     b
59f3  37        scf     
59f4  7b        ld      a,e
59f5  19        add     hl,de
59f6  1c        inc     e
59f7  1b        dec     de
59f8  07        rlca    
59f9  0c        inc     c
59fa  11121a    ld      de,#1a12
59fd  2015      jr      nz,#5a14        ; (21)
59ff  2000      jr      nz,#5a01        ; (0)
5a01  1821      jr      #5a24           ; (33)
5a03  12        ld      (de),a
5a04  12        ld      (de),a
5a05  1621      ld      d,#21
5a07  17        rla     
5a08  07        rlca    
5a09  14        inc     d
5a0a  112115    ld      de,#1521
5a0d  210007    ld      hl,#0700
5a10  08        ex      af,af'
5a11  1a        ld      a,(de)
5a12  12        ld      (de),a
5a13  1820      jr      #5a35           ; (32)
5a15  04        inc     b
5a16  15        dec     d
5a17  7c        ld      a,h
5a18  1815      jr      #5a2f           ; (21)
5a1a  04        inc     b
5a1b  3d        dec     a
5a1c  7c        ld      a,h
5a1d  17        rla     
5a1e  260e      ld      h,#0e
5a20  07        rlca    
5a21  0b        dec     bc
5a22  112115    ld      de,#1521
5a25  210018    ld      hl,#1800
5a28  15        dec     d
5a29  04        inc     b
5a2a  75        ld      (hl),l
5a2b  7c        ld      a,h
5a2c  17        rla     
5a2d  29        add     hl,hl
5a2e  3607      ld      (hl),#07
5a30  1c        inc     e
5a31  111707    ld      de,#0717
5a34  0602      ld      b,#02
5a36  17        rla     
5a37  04        inc     b
5a38  017707    ld      bc,#0777
5a3b  0e02      ld      c,#02
5a3d  2204be    ld      (#be04),hl
5a40  76        halt    
5a41  15        dec     d
5a42  1640      ld      d,#40
5a44  15        dec     d
5a45  17        rla     
5a46  00        nop     
5a47  1818      jr      #5a61           ; (24)
5a49  04        inc     b
5a4a  6b        ld      l,e
5a4b  77        ld      (hl),a
5a4c  07        rlca    
5a4d  14        inc     d
5a4e  111807    ld      de,#0718
5a51  0602      ld      b,#02
5a53  1804      jr      #5a59           ; (4)
5a55  017707    ld      bc,#0777
5a58  0602      ld      b,#02
5a5a  22042d    ld      (#2d04),hl
5a5d  77        ld      (hl),a
5a5e  04        inc     b
5a5f  6b        ld      l,e
5a60  77        ld      (hl),a
5a61  04        inc     b
5a62  97        sub     a
5a63  77        ld      (hl),a
5a64  23        inc     hl
5a65  04        inc     b
5a66  04        inc     b
5a67  56        ld      d,(hl)
5a68  74        ld      (hl),h
5a69  24        inc     h
5a6a  0e07      ld      c,#07
5a6c  09        add     hl,bc
5a6d  111c15    ld      de,#151c
5a70  1c        inc     e
5a71  00        nop     
5a72  04        inc     b
5a73  a1        and     c
5a74  3c        inc     a
5a75  00        nop     
5a76  00        nop     
5a77  5b        ld      e,e
5a78  e9        jp      (hl)
5a79  75        ld      (hl),l
5a7a  04        inc     b
5a7b  08        ex      af,af'
5a7c  76        halt    
5a7d  25        dec     h
5a7e  12        ld      (de),a
5a7f  07        rlca    
5a80  0611      ld      b,#11
5a82  0e04      ld      c,#04
5a84  1876      jr      #5afc           ; (118)
5a86  07        rlca    
5a87  0611      ld      b,#11
5a89  0f        rrca    
5a8a  04        inc     b
5a8b  1876      jr      #5b03           ; (118)
5a8d  04        inc     b
5a8e  5b        ld      e,e
5a8f  76        halt    
5a90  27        daa     
5a91  12        ld      (de),a
5a92  07        rlca    
5a93  0611      ld      b,#11
5a95  1b        dec     de
5a96  04        inc     b
5a97  77        ld      (hl),a
5a98  76        halt    
5a99  07        rlca    
5a9a  0611      ld      b,#11
5a9c  2104d9    ld      hl,#d904
5a9f  75        ld      (hl),l
5aa0  04        inc     b
5aa1  ae        xor     (hl)
5aa2  76        halt    
5aa3  2c        inc     l
5aa4  2d        dec     l
5aa5  07        rlca    
5aa6  09        add     hl,bc
5aa7  111315    ld      de,#1513
5aaa  13        inc     de
5aab  00        nop     
5aac  04        inc     b
5aad  b9        cp      c
5aae  77        ld      (hl),a
5aaf  07        rlca    
5ab0  09        add     hl,bc
5ab1  111415    ld      de,#1514
5ab4  14        inc     d
5ab5  00        nop     
5ab6  04        inc     b
5ab7  b9        cp      c
5ab8  77        ld      (hl),a
5ab9  07        rlca    
5aba  0611      ld      b,#11
5abc  17        rla     
5abd  04        inc     b
5abe  dd7707    ld      (ix+#07),a
5ac1  0611      ld      b,#11
5ac3  1804      jr      #5ac9           ; (4)
5ac5  dd7707    ld      (ix+#07),a
5ac8  0611      ld      b,#11
5aca  0b        dec     bc
5acb  04        inc     b
5acc  03        inc     bc
5acd  78        ld      a,b
5ace  04        inc     b
5acf  2f        cpl     
5ad0  78        ld      a,b
5ad1  3004      jr      nc,#5ad7        ; (4)
5ad3  04        inc     b
5ad4  3f        ccf     
5ad5  78        ld      a,b
5ad6  2e23      ld      l,#23
5ad8  07        rlca    
5ad9  09        add     hl,bc
5ada  111a15    ld      de,#151a
5add  1a        ld      a,(de)
5ade  00        nop     
5adf  04        inc     b
5ae0  59        ld      e,c
5ae1  78        ld      a,b
5ae2  07        rlca    
5ae3  0611      ld      b,#11
5ae5  0a        ld      a,(bc)
5ae6  04        inc     b
5ae7  6e        ld      l,(hl)
5ae8  78        ld      a,b
5ae9  07        rlca    
5aea  0611      ld      b,#11
5aec  13        inc     de
5aed  04        inc     b
5aee  6e        ld      l,(hl)
5aef  78        ld      a,b
5af0  07        rlca    
5af1  0611      ld      b,#11
5af3  14        inc     d
5af4  04        inc     b
5af5  6e        ld      l,(hl)
5af6  78        ld      a,b
5af7  04        inc     b
5af8  d9        exx     
5af9  75        ld      (hl),l
5afa  2f        cpl     
5afb  15        dec     d
5afc  07        rlca    
5afd  09        add     hl,bc
5afe  111c15    ld      de,#151c
5b01  1c        inc     e
5b02  00        nop     
5b03  04        inc     b
5b04  9c        sbc     a,h
5b05  76        halt    
5b06  07        rlca    
5b07  0611      ld      b,#11
5b09  1e04      ld      e,#04
5b0b  86        add     a,(hl)
5b0c  78        ld      a,b
5b0d  04        inc     b
5b0e  2f        cpl     
5b0f  78        ld      a,b
5b10  2d        dec     l
5b11  3807      jr      c,#5b1a         ; (7)
5b13  0611      ld      b,#11
5b15  13        inc     de
5b16  04        inc     b
5b17  e1        pop     hl
5b18  78        ld      a,b
5b19  07        rlca    
5b1a  0611      ld      b,#11
5b1c  14        inc     d
5b1d  04        inc     b
5b1e  e1        pop     hl
5b1f  78        ld      a,b
5b20  07        rlca    
5b21  1011      djnz    #5b34           ; (17)
5b23  0b        dec     bc
5b24  07        rlca    
5b25  09        add     hl,bc
5b26  02        ld      (bc),a
5b27  14        inc     d
5b28  15        dec     d
5b29  14        inc     d
5b2a  00        nop     
5b2b  04        inc     b
5b2c  2b        dec     hl
5b2d  79        ld      a,c
5b2e  04        inc     b
5b2f  4c        ld      c,h
5b30  79        ld      a,c
5b31  07        rlca    
5b32  0611      ld      b,#11
5b34  17        rla     
5b35  04        inc     b
5b36  a7        and     a
5b37  79        ld      a,c
5b38  07        rlca    
5b39  0611      ld      b,#11
5b3b  1804      jr      #5b41           ; (4)
5b3d  a7        and     a
5b3e  79        ld      a,c
5b3f  07        rlca    
5b40  0611      ld      b,#11
5b42  0d        dec     c
5b43  04        inc     b
5b44  4c        ld      c,h
5b45  79        ld      a,c
5b46  04        inc     b
5b47  d9        exx     
5b48  75        ld      (hl),l
5b49  39        add     hl,sp
5b4a  02        ld      (bc),a
5b4b  1d        dec     e
5b4c  3a021b    ld      a,(#1b02)
5b4f  3b        dec     sp
5b50  02        ld      (bc),a
5b51  1c        inc     e
5b52  00        nop     
5b53  19        add     hl,de
5b54  c7        rst     #0
5b55  de94      sbc     a,#94
5b57  14        inc     d
5b58  55        ld      d,l
5b59  5e        ld      e,(hl)
5b5a  50        ld      d,b
5b5b  bd        cp      l
5b5c  90        sub     b
5b5d  5a        ld      e,d
5b5e  c46a59    call    nz,#596a
5b61  60        ld      h,b
5b62  5b        ld      e,e
5b63  b1        or      c
5b64  5f        ld      e,a
5b65  be        cp      (hl)
5b66  3015      jr      nc,#5b7d        ; (21)
5b68  eb        ex      de,hl
5b69  bf        cp      a
5b6a  17        rla     
5b6b  98        sbc     a,b
5b6c  b8        cp      b
5b6d  167b      ld      d,#7b
5b6f  14        inc     d
5b70  14        inc     d
5b71  a8        xor     b
5b72  6b        ld      l,e
5b73  48        ld      c,b
5b74  9b        sbc     a,e
5b75  5d        ld      e,l
5b76  94        sub     h
5b77  14        inc     d
5b78  34        inc     (hl)
5b79  3c        inc     a
5b7a  00        nop     
5b7b  00        nop     
5b7c  5c        ld      e,h
5b7d  30a1      jr      nc,#5b20        ; (-95)
5b7f  1b        dec     de
5b80  58        ld      e,b
5b81  1b        dec     de
5b82  a1        and     c
5b83  d5        push    de
5b84  15        dec     d
5b85  7b        ld      a,e
5b86  14        inc     d
5b87  f5        push    af
5b88  59        ld      e,c
5b89  3e62      ld      a,#62
5b8b  2e00      ld      l,#00
5b8d  22c7de    ld      (#dec7),hl
5b90  94        sub     h
5b91  14        inc     d
5b92  4b        ld      c,e
5b93  5e        ld      e,(hl)
5b94  96        sub     (hl)
5b95  96        sub     (hl)
5b96  db72      in      a,(#72)
5b98  9e        sbc     a,(hl)
5b99  61        ld      h,c
5b9a  d0        ret     nc

5b9b  b0        or      b
5b9c  9b        sbc     a,e
5b9d  53        ld      d,e
5b9e  6b        ld      l,e
5b9f  bf        cp      a
5ba0  5f        ld      e,a
5ba1  be        cp      (hl)
5ba2  f3        di      
5ba3  16cf      ld      d,#cf
5ba5  b0        or      b
5ba6  17        rla     
5ba7  79        ld      a,c
5ba8  43        ld      b,e
5ba9  13        inc     de
5baa  a9        xor     c
5bab  15        dec     d
5bac  db8b      in      a,(#8b)
5bae  83        add     a,e
5baf  7a        ld      a,d
5bb0  5f        ld      e,a
5bb1  be        cp      (hl)
5bb2  56        ld      d,(hl)
5bb3  15        dec     d
5bb4  44        ld      b,h
5bb5  a0        and     b
5bb6  3b        dec     sp
5bb7  13        inc     de
5bb8  3f        ccf     
5bb9  160d      ld      d,#0d
5bbb  47        ld      b,a
5bbc  89        adc     a,c
5bbd  17        rla     
5bbe  7b        ld      a,e
5bbf  14        inc     d
5bc0  55        ld      d,l
5bc1  a4        and     h
5bc2  09        add     hl,bc
5bc3  b7        or      a
5bc4  44        ld      b,h
5bc5  5e        ld      e,(hl)
5bc6  8f        adc     a,a
5bc7  61        ld      h,c
5bc8  82        add     a,d
5bc9  49        ld      c,c
5bca  82        add     a,d
5bcb  17        rla     
5bcc  55        ld      d,l
5bcd  5e        ld      e,(hl)
5bce  30c6      jr      nc,#5b96        ; (-58)
5bd0  d7        rst     #10
5bd1  46        ld      b,(hl)
5bd2  2e00      ld      l,#00
5bd4  07        rlca    
5bd5  c7        rst     #0
5bd6  de94      sbc     a,#94
5bd8  14        inc     d
5bd9  4b        ld      c,e
5bda  5e        ld      e,(hl)
5bdb  96        sub     (hl)
5bdc  96        sub     (hl)
5bdd  db72      in      a,(#72)
5bdf  f5        push    af
5be0  59        ld      e,c
5be1  3e62      ld      a,#62
5be3  2e00      ld      l,#00
5be5  3b        dec     sp
5be6  c7        rst     #0
5be7  de94      sbc     a,#94
5be9  14        inc     d
5bea  4b        ld      c,e
5beb  5e        ld      e,(hl)
5bec  83        add     a,e
5bed  96        sub     (hl)
5bee  5f        ld      e,a
5bef  17        rla     
5bf0  46        ld      b,(hl)
5bf1  48        ld      c,b
5bf2  da1464    jp      c,#6414
5bf5  48        ld      c,b
5bf6  23        inc     hl
5bf7  62        ld      h,d
5bf8  70        ld      (hl),b
5bf9  4d        ld      c,l
5bfa  96        sub     (hl)
5bfb  5f        ld      e,a
5bfc  03        inc     bc
5bfd  71        ld      (hl),c
5bfe  a9        xor     c
5bff  15        dec     d
5c00  db8b      in      a,(#8b)
5c02  79        ld      a,c
5c03  68        ld      l,b
5c04  56        ld      d,(hl)
5c05  90        sub     b
5c06  db72      in      a,(#72)
5c08  34        inc     (hl)
5c09  ba        cp      d
5c0a  c5        push    bc
5c0b  65        ld      h,l
5c0c  db63      in      a,(#63)
5c0e  7b        ld      a,e
5c0f  14        inc     d
5c10  49        ld      c,c
5c11  16c5      ld      d,#c5
5c13  ced9      adc     a,#d9
5c15  b0        or      b
5c16  0e8a      ld      c,#8a
5c18  86        add     a,(hl)
5c19  5f        ld      e,a
5c1a  cbb5      res     6,l
5c1c  33        inc     sp
5c1d  9b        sbc     a,e
5c1e  33        inc     sp
5c1f  b1        or      c
5c20  6b        ld      l,e
5c21  bf        cp      a
5c22  5f        ld      e,a
5c23  be        cp      (hl)
5c24  f7        rst     #30
5c25  17        rla     
5c26  17        rla     
5c27  ba        cp      d
5c28  4a        ld      c,d
5c29  13        inc     de
5c2a  34        inc     (hl)
5c2b  79        ld      a,c
5c2c  fe9e      cp      #9e
5c2e  e2dee5    jp      po,#e5de
5c31  78        ld      a,b
5c32  c0        ret     nz

5c33  1682      ld      d,#82
5c35  17        rla     
5c36  59        ld      e,c
5c37  5e        ld      e,(hl)
5c38  46        ld      b,(hl)
5c39  48        ld      c,b
5c3a  56        ld      d,(hl)
5c3b  13        inc     de
5c3c  d0        ret     nc

5c3d  b0        or      b
5c3e  bb        cp      e
5c3f  b8        cp      b
5c40  febd      cp      #bd
5c42  6d        ld      l,l
5c43  13        inc     de
5c44  3d        dec     a
5c45  c643      add     a,#43
5c47  5e        ld      e,(hl)
5c48  f3        di      
5c49  8c        adc     a,h
5c4a  29        add     hl,hl
5c4b  d1        pop     de
5c4c  3015      jr      nc,#5c63        ; (21)
5c4e  f4bd82    call    p,#82bd
5c51  17        rla     
5c52  4b        ld      c,e
5c53  7b        ld      a,e
5c54  05        dec     b
5c55  b7        or      a
5c56  66        ld      h,(hl)
5c57  b1        or      c
5c58  e414ee    call    po,#ee14
5c5b  de2e      sbc     a,#2e
5c5d  220021    ld      (#2100),hl
5c60  c7        rst     #0
5c61  de94      sbc     a,#94
5c63  14        inc     d
5c64  45        ld      b,l
5c65  5e        ld      e,(hl)
5c66  d9        exx     
5c67  b0        or      b
5c68  90        sub     b
5c69  8c        adc     a,h
5c6a  d1        pop     de
5c6b  6a        ld      l,d
5c6c  74        ld      (hl),h
5c6d  cadf16    jp      z,#16df
5c70  f64c      or      #4c
5c72  4b        ld      c,e
5c73  62        ld      h,d
5c74  83        add     a,e
5c75  7a        ld      a,d
5c76  4e        ld      c,(hl)
5c77  45        ld      b,l
5c78  6b        ld      l,e
5c79  a1        and     c
5c7a  55        ld      d,l
5c7b  a4        and     h
5c7c  09        add     hl,bc
5c7d  a4        and     h
5c7e  3c        inc     a
5c7f  00        nop     
5c80  00        nop     
5c81  5d        ld      e,l
5c82  b7        or      a
5c83  db63      in      a,(#63)
5c85  82        add     a,d
5c86  17        rla     
5c87  2f        cpl     
5c88  62        ld      h,d
5c89  d5        push    de
5c8a  15        dec     d
5c8b  7b        ld      a,e
5c8c  14        inc     d
5c8d  8f        adc     a,a
5c8e  5a        ld      e,d
5c8f  43        ld      b,e
5c90  162e      ld      d,#2e
5c92  6d        ld      l,l
5c93  96        sub     (hl)
5c94  14        inc     d
5c95  82        add     a,d
5c96  17        rla     
5c97  47        ld      b,a
5c98  5e        ld      e,(hl)
5c99  66        ld      h,(hl)
5c9a  49        ld      c,c
5c9b  3015      jr      nc,#5cb2        ; (21)
5c9d  115896    ld      de,#9658
5ca0  64        ld      h,h
5ca1  db72      in      a,(#72)
5ca3  55        ld      d,l
5ca4  a4        and     h
5ca5  09        add     hl,bc
5ca6  b7        or      a
5ca7  45        ld      b,l
5ca8  2e00      ld      l,#00
5caa  29        add     hl,hl
5cab  c7        rst     #0
5cac  de94      sbc     a,#94
5cae  14        inc     d
5caf  4b        ld      c,e
5cb0  5e        ld      e,(hl)
5cb1  83        add     a,e
5cb2  96        sub     (hl)
5cb3  39        add     hl,sp
5cb4  17        rla     
5cb5  db9f      in      a,(#9f)
5cb7  0e67      ld      c,#67
5cb9  e68b      and     #8b
5cbb  fb        ei      
5cbc  17        rla     
5cbd  53        ld      d,e
5cbe  be        cp      (hl)
5cbf  79        ld      a,c
5cc0  4f        ld      c,a
5cc1  b0        or      b
5cc2  85        add     a,l
5cc3  e9        jp      (hl)
5cc4  163f      ld      d,#3f
5cc6  c0        ret     nz

5cc7  7b        ld      a,e
5cc8  b4        or      h
5cc9  1b        dec     de
5cca  b8        cp      b
5ccb  4d        ld      c,l
5ccc  b1        or      c
5ccd  b8        cp      b
5cce  1690      ld      d,#90
5cd0  14        inc     d
5cd1  47        ld      b,a
5cd2  54        ld      d,h
5cd3  b3        or      e
5cd4  9a        sbc     a,d
5cd5  29        add     hl,hl
5cd6  15        dec     d
5cd7  eede      xor     #de
5cd9  90        sub     b
5cda  78        ld      a,b
5cdb  e4145e    call    po,#5e14
5cde  47        ld      b,a
5cdf  5b        ld      e,e
5ce0  bb        cp      e
5ce1  90        sub     b
5ce2  14        inc     d
5ce3  99        sbc     a,c
5ce4  14        inc     d
5ce5  73        ld      (hl),e
5ce6  88        adc     a,b
5ce7  33        inc     sp
5ce8  b1        or      c
5ce9  44        ld      b,h
5cea  55        ld      d,l
5ceb  06b2      ld      b,#b2
5ced  a3        and     e
5cee  a0        and     b
5cef  e3        ex      (sp),hl
5cf0  8b        adc     a,e
5cf1  0b        dec     bc
5cf2  5c        ld      e,h
5cf3  f1        pop     af
5cf4  c5        push    bc
5cf5  2e49      ld      l,#49
5cf7  90        sub     b
5cf8  14        inc     d
5cf9  19        add     hl,de
5cfa  58        ld      e,b
5cfb  66        ld      h,(hl)
5cfc  62        ld      h,d
5cfd  2e00      ld      l,#00
5cff  10c7      djnz    #5cc8           ; (-57)
5d01  de94      sbc     a,#94
5d03  14        inc     d
5d04  4b        ld      c,e
5d05  5e        ld      e,(hl)
5d06  83        add     a,e
5d07  96        sub     (hl)
5d08  83        add     a,e
5d09  96        sub     (hl)
5d0a  a9        xor     c
5d0b  d1        pop     de
5d0c  2e49      ld      l,#49
5d0e  5e        ld      e,(hl)
5d0f  17        rla     
5d10  63        ld      h,e
5d11  a0        and     b
5d12  ab        xor     e
5d13  98        sbc     a,b
5d14  95        sub     l
5d15  5f        ld      e,a
5d16  e1        pop     hl
5d17  bc        cp      h
5d18  66        ld      h,(hl)
5d19  62        ld      h,d
5d1a  e1        pop     hl
5d1b  14        inc     d
5d1c  73        ld      (hl),e
5d1d  b3        or      e
5d1e  84        add     a,h
5d1f  5b        ld      e,e
5d20  2e00      ld      l,#00
5d22  3d        dec     a
5d23  c7        rst     #0
5d24  de94      sbc     a,#94
5d26  14        inc     d
5d27  4b        ld      c,e
5d28  5e        ld      e,(hl)
5d29  83        add     a,e
5d2a  96        sub     (hl)
5d2b  62        ld      h,d
5d2c  17        rla     
5d2d  f0        ret     p

5d2e  8b        adc     a,e
5d2f  86        add     a,(hl)
5d30  5a        ld      e,d
5d31  da1464    jp      c,#6414
5d34  48        ld      c,b
5d35  23        inc     hl
5d36  62        ld      h,d
5d37  63        ld      h,e
5d38  be        cp      (hl)
5d39  d3b3      out     (#b3),a
5d3b  4f        ld      c,a
5d3c  15        dec     d
5d3d  73        ld      (hl),e
5d3e  62        ld      h,d
5d3f  89        adc     a,c
5d40  73        ld      (hl),e
5d41  9b        sbc     a,e
5d42  76        halt    
5d43  82        add     a,d
5d44  17        rla     
5d45  59        ld      e,c
5d46  5e        ld      e,(hl)
5d47  46        ld      b,(hl)
5d48  48        ld      c,b
5d49  c3b55b    jp      #5bb5
5d4c  b1        or      c
5d4d  5c        ld      e,h
5d4e  15        dec     d
5d4f  ef        rst     #28
5d50  a1        and     c
5d51  94        sub     h
5d52  96        sub     (hl)
5d53  cf        rst     #8
5d54  7b        ld      a,e
5d55  8b        adc     a,e
5d56  b3        or      e
5d57  c39eab    jp      #ab9e
5d5a  a0        and     b
5d5b  b7        or      a
5d5c  98        sbc     a,b
5d5d  66        ld      h,(hl)
5d5e  17        rla     
5d5f  0f        rrca    
5d60  a0        and     b
5d61  3b        dec     sp
5d62  f48348    call    p,#4883
5d65  fd49      ld      c,c
5d67  14        inc     d
5d68  d0        ret     nc

5d69  05        dec     b
5d6a  58        ld      e,b
5d6b  bc        cp      h
5d6c  a0        and     b
5d6d  09        add     hl,bc
5d6e  79        ld      a,c
5d6f  83        add     a,e
5d70  af        xor     a
5d71  33        inc     sp
5d72  98        sbc     a,b
5d73  49        ld      c,c
5d74  45        ld      b,l
5d75  36a0      ld      (hl),#a0
5d77  52        ld      d,d
5d78  13        inc     de
5d79  65        ld      h,l
5d7a  49        ld      c,c
5d7b  77        ld      (hl),a
5d7c  47        ld      b,a
5d7d  3a1573    ld      a,(#7315)
5d80  7b        ld      a,e
5d81  79        ld      a,c
5d82  94        sub     h
5d83  3c        inc     a
5d84  00        nop     
5d85  00        nop     
5d86  5e        ld      e,(hl)
5d87  68        ld      l,b
5d88  56        ld      d,(hl)
5d89  90        sub     b
5d8a  db72      in      a,(#72)
5d8c  95        sub     l
5d8d  5f        ld      e,a
5d8e  03        inc     bc
5d8f  bc        cp      h
5d90  33        inc     sp
5d91  98        sbc     a,b
5d92  b5        or      l
5d93  d0        ret     nc

5d94  15        dec     d
5d95  bc        cp      h
5d96  ff        rst     #38
5d97  78        ld      a,b
5d98  d1        pop     de
5d99  b5        or      l
5d9a  96        sub     (hl)
5d9b  64        ld      h,h
5d9c  db72      in      a,(#72)
5d9e  1b        dec     de
5d9f  54        ld      d,h
5da0  af        xor     a
5da1  91        sub     c
5da2  52        ld      d,d
5da3  2e00      ld      l,#00
5da5  3673      ld      (hl),#73
5da7  49        ld      c,c
5da8  c7        rst     #0
5da9  de88      sbc     a,#88
5dab  af        xor     a
5dac  3660      ld      (hl),#60
5dae  d5        push    de
5daf  15        dec     d
5db0  7b        ld      a,e
5db1  14        inc     d
5db2  e3        ex      (sp),hl
5db3  b8        cp      b
5db4  f3        di      
5db5  8c        adc     a,h
5db6  96        sub     (hl)
5db7  a5        and     l
5db8  bc        cp      h
5db9  14        inc     d
5dba  96        sub     (hl)
5dbb  5f        ld      e,a
5dbc  90        sub     b
5dbd  73        ld      (hl),e
5dbe  d66a      sub     #6a
5dc0  c5        push    bc
5dc1  b0        or      b
5dc2  4b        ld      c,e
5dc3  62        ld      h,d
5dc4  c39e23    jp      #239e
5dc7  d1        pop     de
5dc8  dbbd      in      a,(#bd)
5dca  d5        push    de
5dcb  92        sub     d
5dcc  9b        sbc     a,e
5dcd  c1        pop     bc
5dce  90        sub     b
5dcf  14        inc     d
5dd0  23        inc     hl
5dd1  15        dec     d
5dd2  f3        di      
5dd3  b9        cp      c
5dd4  55        ld      d,l
5dd5  a4        and     h
5dd6  09        add     hl,bc
5dd7  b7        or      a
5dd8  47        ld      b,a
5dd9  5e        ld      e,(hl)
5dda  4d        ld      c,l
5ddb  98        sbc     a,b
5ddc  9f        sbc     a,a
5ddd  15        dec     d
5dde  5b        ld      e,e
5ddf  b1        or      c
5de0  1d        dec     e
5de1  63        ld      h,e
5de2  ee61      xor     #61
5de4  59        ld      e,c
5de5  15        dec     d
5de6  83        add     a,e
5de7  af        xor     a
5de8  5f        ld      e,a
5de9  17        rla     
5dea  46        ld      b,(hl)
5deb  48        ld      c,b
5dec  e414dd    call    po,#dd14
5def  46        ld      b,(hl)
5df0  3f        ccf     
5df1  1603      ld      d,#03
5df3  47        ld      b,a
5df4  ab        xor     e
5df5  98        sbc     a,b
5df6  27        daa     
5df7  a0        and     b
5df8  3b        dec     sp
5df9  13        inc     de
5dfa  54        ld      d,h
5dfb  13        inc     de
5dfc  29        add     hl,hl
5dfd  a1        and     c
5dfe  15        dec     d
5dff  71        ld      (hl),c
5e00  80        add     a,b
5e01  bf        cp      a
5e02  55        ld      d,l
5e03  5e        ld      e,(hl)
5e04  f2bdce    jp      p,#cebd
5e07  b5        or      l
5e08  86        add     a,(hl)
5e09  5f        ld      e,a
5e0a  09        add     hl,bc
5e0b  15        dec     d
5e0c  03        inc     bc
5e0d  d25fbe    jp      nc,#be5f
5e10  e3        ex      (sp),hl
5e11  1654      ld      d,#54
5e13  2e00      ld      l,#00
5e15  6c        ld      l,h
5e16  c7        rst     #0
5e17  de94      sbc     a,#94
5e19  14        inc     d
5e1a  43        ld      b,e
5e1b  5e        ld      e,(hl)
5e1c  11bc5b    ld      de,#5bbc
5e1f  98        sbc     a,b
5e20  8e        adc     a,(hl)
5e21  61        ld      h,c
5e22  b8        cp      b
5e23  167b      ld      d,#7b
5e25  14        inc     d
5e26  d5        push    de
5e27  c9        ret     

5e28  0a        ld      a,(bc)
5e29  bc        cp      h
5e2a  46        ld      b,(hl)
5e2b  48        ld      c,b
5e2c  66        ld      h,(hl)
5e2d  17        rla     
5e2e  76        halt    
5e2f  b1        or      c
5e30  23        inc     hl
5e31  54        ld      d,h
5e32  ab        xor     e
5e33  98        sbc     a,b
5e34  04        inc     b
5e35  68        ld      l,b
5e36  14        inc     d
5e37  d0        ret     nc

5e38  115873    ld      de,#7358
5e3b  c6c3      add     a,#c3
5e3d  9e        sbc     a,(hl)
5e3e  3b        dec     sp
5e3f  13        inc     de
5e40  5b        ld      e,e
5e41  17        rla     
5e42  2e6d      ld      l,#6d
5e44  89        adc     a,c
5e45  17        rla     
5e46  82        add     a,d
5e47  17        rla     
5e48  59        ld      e,c
5e49  5e        ld      e,(hl)
5e4a  66        ld      h,(hl)
5e4b  62        ld      h,d
5e4c  3b        dec     sp
5e4d  f45fbe    call    p,#be5f
5e50  5b        ld      e,e
5e51  b1        or      c
5e52  2f        cpl     
5e53  49        ld      c,c
5e54  c21693    jp      nz,#9316
5e57  61        ld      h,c
5e58  c5        push    bc
5e59  98        sbc     a,b
5e5a  89        adc     a,c
5e5b  17        rla     
5e5c  2b        dec     hl
5e5d  15        dec     d
5e5e  5f        ld      e,a
5e5f  be        cp      (hl)
5e60  95        sub     l
5e61  af        xor     a
5e62  ff        rst     #38
5e63  78        ld      a,b
5e64  3b        dec     sp
5e65  f46398    call    p,#9863
5e68  03        inc     bc
5e69  b1        or      c
5e6a  03        inc     bc
5e6b  eefb      xor     #fb
5e6d  17        rla     
5e6e  db59      in      a,(#59)
5e70  09        add     hl,bc
5e71  ba        cp      d
5e72  5b        ld      e,e
5e73  98        sbc     a,b
5e74  fb        ei      
5e75  b9        cp      c
5e76  2d        dec     l
5e77  7b        ld      a,e
5e78  57        ld      d,a
5e79  49        ld      c,c
5e7a  3f        ccf     
5e7b  160d      ld      d,#0d
5e7d  47        ld      b,a
5e7e  09        add     hl,bc
5e7f  15        dec     d
5e80  21d22e    ld      hl,#2ed2
5e83  49        ld      c,c
5e84  3b        dec     sp
5e85  f45ffa    call    p,#fa5f
5e88  3c        inc     a
5e89  00        nop     
5e8a  00        nop     
5e8b  5f        ld      e,a
5e8c  be        cp      (hl)
5e8d  9b        sbc     a,e
5e8e  15        dec     d
5e8f  f3        di      
5e90  8c        adc     a,h
5e91  4b        ld      c,e
5e92  7b        ld      a,e
5e93  74        ld      (hl),h
5e94  ca4fdb    jp      z,#db4f
5e97  66        ld      h,(hl)
5e98  c63b      add     a,#3b
5e9a  db8e      in      a,(#8e)
5e9c  48        ld      c,b
5e9d  7b        ld      a,e
5e9e  14        inc     d
5e9f  3e55      ld      a,#55
5ea1  19        add     hl,de
5ea2  58        ld      e,b
5ea3  8e        adc     a,(hl)
5ea4  7a        ld      a,d
5ea5  b6        or      (hl)
5ea6  14        inc     d
5ea7  85        add     a,l
5ea8  a1        and     c
5ea9  b2        or      d
5eaa  17        rla     
5eab  82        add     a,d
5eac  17        rla     
5ead  55        ld      d,l
5eae  5e        ld      e,(hl)
5eaf  4b        ld      c,e
5eb0  bd        cp      l
5eb1  13        inc     de
5eb2  b1        or      c
5eb3  bf        cp      a
5eb4  b7        or      a
5eb5  56        ld      d,(hl)
5eb6  13        inc     de
5eb7  f4724b    call    p,#4b72
5eba  5e        ld      e,(hl)
5ebb  c3b5db    jp      #dbb5
5ebe  16d3      ld      d,#d3
5ec0  b9        cp      c
5ec1  9b        sbc     a,e
5ec2  6c        ld      l,h
5ec3  73        ld      (hl),e
5ec4  49        ld      c,c
5ec5  82        add     a,d
5ec6  17        rla     
5ec7  56        ld      d,(hl)
5ec8  5e        ld      e,(hl)
5ec9  53        ld      d,e
5eca  a0        and     b
5ecb  c39e46    jp      #469e
5ece  45        ld      b,l
5ecf  e7        rst     #20
5ed0  9f        sbc     a,a
5ed1  af        xor     a
5ed2  14        inc     d
5ed3  90        sub     b
5ed4  73        ld      (hl),e
5ed5  1b        dec     de
5ed6  58        ld      e,b
5ed7  3f        ccf     
5ed8  a1        and     c
5ed9  54        ld      d,h
5eda  13        inc     de
5edb  29        add     hl,hl
5edc  a1        and     c
5edd  15        dec     d
5ede  71        ld      (hl),c
5edf  80        add     a,b
5ee0  bf        cp      a
5ee1  55        ld      d,l
5ee2  5e        ld      e,(hl)
5ee3  f2bdce    jp      p,#cebd
5ee6  b5        or      l
5ee7  86        add     a,(hl)
5ee8  5f        ld      e,a
5ee9  b2        or      d
5eea  17        rla     
5eeb  82        add     a,d
5eec  17        rla     
5eed  3b        dec     sp
5eee  5e        ld      e,(hl)
5eef  46        ld      b,(hl)
5ef0  13        inc     de
5ef1  e7        rst     #20
5ef2  9f        sbc     a,a
5ef3  2e00      ld      l,#00
5ef5  2063      jr      nz,#5f5a        ; (99)
5ef7  be        cp      (hl)
5ef8  cbb5      res     6,l
5efa  c3b549    jp      #49b5
5efd  16d4      ld      d,#d4
5eff  ce3f      adc     a,#3f
5f01  a0        and     b
5f02  fb        ei      
5f03  17        rla     
5f04  53        ld      d,e
5f05  be        cp      (hl)
5f06  4a        ld      c,d
5f07  45        ld      b,l
5f08  34        inc     (hl)
5f09  79        ld      a,c
5f0a  fe9e      cp      #9e
5f0c  e2dec0    jp      po,#c0de
5f0f  1682      ld      d,#82
5f11  17        rla     
5f12  59        ld      e,c
5f13  5e        ld      e,(hl)
5f14  46        ld      b,(hl)
5f15  48        ld      c,b
5f16  3b        dec     sp
5f17  f4737b    call    p,#7b73
5f1a  eb        ex      de,hl
5f1b  bf        cp      a
5f1c  9e        sbc     a,(hl)
5f1d  9a        sbc     a,d
5f1e  7f        ld      a,a
5f1f  49        ld      c,c
5f20  03        inc     bc
5f21  b6        or      (hl)
5f22  1b        dec     de
5f23  a1        and     c
5f24  40        ld      b,b
5f25  d2f323    jp      nc,#23f3
5f28  b6        or      (hl)
5f29  6c        ld      l,h
5f2a  d615      sub     #15
5f2c  b2        or      d
5f2d  17        rla     
5f2e  82        add     a,d
5f2f  17        rla     
5f30  55        ld      d,l
5f31  5e        ld      e,(hl)
5f32  f2bd07    jp      p,#07bd
5f35  b6        or      (hl)
5f36  00        nop     
5f37  2d        dec     l
5f38  c7        rst     #0
5f39  de94      sbc     a,#94
5f3b  14        inc     d
5f3c  51        ld      d,c
5f3d  5e        ld      e,(hl)
5f3e  96        sub     (hl)
5f3f  96        sub     (hl)
5f40  db72      in      a,(#72)
5f42  95        sub     l
5f43  5f        ld      e,a
5f44  04        inc     b
5f45  bc        cp      h
5f46  95        sub     l
5f47  48        ld      c,b
5f48  b8        cp      b
5f49  167b      ld      d,#7b
5f4b  14        inc     d
5f4c  064f      ld      b,#4f
5f4e  7f        ld      a,a
5f4f  bf        cp      a
5f50  f5        push    af
5f51  8b        adc     a,e
5f52  d2b573    jp      nc,#73b5
5f55  7b        ld      a,e
5f56  0c        inc     c
5f57  ba        cp      d
5f58  7d        ld      a,l
5f59  62        ld      h,d
5f5a  90        sub     b
5f5b  73        ld      (hl),e
5f5c  c36ab9    jp      #b96a
5f5f  55        ld      d,l
5f60  cbb9      res     7,c
5f62  82        add     a,d
5f63  17        rla     
5f64  4a        ld      c,d
5f65  5e        ld      e,(hl)
5f66  46        ld      b,(hl)
5f67  48        ld      c,b
5f68  3b        dec     sp
5f69  f45fbe    call    p,#be5f
5f6c  6b        ld      l,e
5f6d  16f3      ld      d,#f3
5f6f  b9        cp      c
5f70  4b        ld      c,e
5f71  7b        ld      a,e
5f72  ab        xor     e
5f73  ad        xor     l
5f74  dbbd      in      a,(#bd)
5f76  63        ld      h,e
5f77  be        cp      (hl)
5f78  8b        adc     a,e
5f79  54        ld      d,h
5f7a  f472b3    call    p,#b372
5f7d  63        ld      h,e
5f7e  8e        adc     a,(hl)
5f7f  48        ld      c,b
5f80  82        add     a,d
5f81  17        rla     
5f82  52        ld      d,d
5f83  5e        ld      e,(hl)
5f84  73        ld      (hl),e
5f85  7b        ld      a,e
5f86  4b        ld      c,e
5f87  7b        ld      a,e
5f88  81        add     a,c
5f89  bf        cp      a
5f8a  fb        ei      
5f8b  17        rla     
5f8c  cf        rst     #8
5f8d  3c        inc     a
5f8e  00        nop     
5f8f  00        nop     
5f90  60        ld      h,b
5f91  f659      or      #59
5f93  cc9c72    call    z,#729c
5f96  c5        push    bc
5f97  2e00      ld      l,#00
5f99  19        add     hl,de
5f9a  c7        rst     #0
5f9b  de94      sbc     a,#94
5f9d  14        inc     d
5f9e  4b        ld      c,e
5f9f  5e        ld      e,(hl)
5fa0  96        sub     (hl)
5fa1  96        sub     (hl)
5fa2  db72      in      a,(#72)
5fa4  5b        ld      e,e
5fa5  a5        and     l
5fa6  d1        pop     de
5fa7  b0        or      b
5fa8  65        ld      h,l
5fa9  71        ld      (hl),c
5faa  da1464    jp      c,#6414
5fad  48        ld      c,b
5fae  46        ld      b,(hl)
5faf  62        ld      h,d
5fb0  fb        ei      
5fb1  17        rla     
5fb2  53        ld      d,e
5fb3  be        cp      (hl)
5fb4  55        ld      d,l
5fb5  a4        and     h
5fb6  09        add     hl,bc
5fb7  b7        or      a
5fb8  4b        ld      c,e
5fb9  62        ld      h,d
5fba  d0        ret     nc

5fbb  9e        sbc     a,(hl)
5fbc  d0        ret     nc

5fbd  15        dec     d
5fbe  8e        adc     a,(hl)
5fbf  14        inc     d
5fc0  fb        ei      
5fc1  89        adc     a,c
5fc2  3b        dec     sp
5fc3  13        inc     de
5fc4  03        inc     bc
5fc5  15        dec     d
5fc6  65        ld      h,l
5fc7  b1        or      c
5fc8  91        sub     c
5fc9  be        cp      (hl)
5fca  af        xor     a
5fcb  9a        sbc     a,d
5fcc  00        nop     
5fcd  0b        dec     bc
5fce  c7        rst     #0
5fcf  de94      sbc     a,#94
5fd1  14        inc     d
5fd2  4b        ld      c,e
5fd3  5e        ld      e,(hl)
5fd4  96        sub     (hl)
5fd5  96        sub     (hl)
5fd6  db72      in      a,(#72)
5fd8  47        ld      b,a
5fd9  b9        cp      c
5fda  53        ld      d,e
5fdb  be        cp      (hl)
5fdc  46        ld      b,(hl)
5fdd  b8        cp      b
5fde  45        ld      b,l
5fdf  5e        ld      e,(hl)
5fe0  4f        ld      c,a
5fe1  72        ld      (hl),d
5fe2  74        ld      (hl),h
5fe3  4d        ld      c,l
5fe4  2e00      ld      l,#00
5fe6  17        rla     
5fe7  c7        rst     #0
5fe8  de94      sbc     a,#94
5fea  14        inc     d
5feb  51        ld      d,c
5fec  5e        ld      e,(hl)
5fed  96        sub     (hl)
5fee  96        sub     (hl)
5fef  db72      in      a,(#72)
5ff1  b5        or      l
5ff2  d0        ret     nc

5ff3  15        dec     d
5ff4  bc        cp      h
5ff5  ff        rst     #38
5ff6  78        ld      a,b
5ff7  b8        cp      b
5ff8  1682      ld      d,#82
5ffa  17        rla     
5ffb  44        ld      b,h
5ffc  5e        ld      e,(hl)
5ffd  0ea1      ld      c,#a1
5fff  ee9f      xor     #9f
6001  65        ld      h,l
6002  62        ld      h,d
6003  e3        ex      (sp),hl
6004  160b      ld      d,#0b
6006  bc        cp      h
6007  96        sub     (hl)
6008  96        sub     (hl)
6009  db72      in      a,(#72)
600b  4e        ld      c,(hl)
600c  72        ld      (hl),d
600d  118a7b    ld      de,#7b8a
6010  64        ld      h,h
6011  81        add     a,c
6012  15        dec     d
6013  2f        cpl     
6014  5c        ld      e,h
6015  00        nop     
6016  35        dec     (hl)
6017  c7        rst     #0
6018  de94      sbc     a,#94
601a  14        inc     d
601b  43        ld      b,e
601c  5e        ld      e,(hl)
601d  16bc      ld      d,#bc
601f  db72      in      a,(#72)
6021  b5        or      l
6022  d0        ret     nc

6023  07        rlca    
6024  bc        cp      h
6025  33        inc     sp
6026  98        sbc     a,b
6027  c39e5f    jp      #5f9e
602a  be        cp      (hl)
602b  9b        sbc     a,e
602c  15        dec     d
602d  f3        di      
602e  8c        adc     a,h
602f  c39e36    jp      #369e
6032  6e        ld      l,(hl)
6033  5b        ld      e,e
6034  bb        cp      e
6035  43        ld      b,e
6036  13        inc     de
6037  49        ld      c,c
6038  16d9      ld      d,#d9
603a  ceff      adc     a,#ff
603c  78        ld      a,b
603d  db16      in      a,(#16)
603f  cbb9      res     7,c
6041  e1        pop     hl
6042  14        inc     d
6043  c39ae7    jp      #e79a
6046  9a        sbc     a,d
6047  d9        exx     
6048  b5        or      l
6049  66        ld      h,(hl)
604a  62        ld      h,d
604b  90        sub     b
604c  14        inc     d
604d  03        inc     bc
604e  58        ld      e,b
604f  069a      ld      b,#9a
6051  f47281    call    p,#8172
6054  15        dec     d
6055  4b        ld      c,e
6056  62        ld      h,d
6057  04        inc     b
6058  9a        sbc     a,d
6059  77        ld      (hl),a
605a  be        cp      (hl)
605b  56        ld      d,(hl)
605c  13        inc     de
605d  d69c      sub     #9c
605f  db72      in      a,(#72)
6061  47        ld      b,a
6062  b9        cp      c
6063  53        ld      d,e
6064  be        cp      (hl)
6065  4b        ld      c,e
6066  7b        ld      a,e
6067  4e        ld      c,(hl)
6068  45        ld      b,l
6069  8e        adc     a,(hl)
606a  7b        ld      a,e
606b  f28b65    jp      p,#658b
606e  49        ld      c,c
606f  77        ld      (hl),a
6070  47        ld      b,a
6071  5b        ld      e,e
6072  17        rla     
6073  08        ex      af,af'
6074  d5        push    de
6075  3660      ld      (hl),#60
6077  b8        cp      b
6078  1696      ld      d,#96
607a  64        ld      h,h
607b  db72      in      a,(#72)
607d  89        adc     a,c
607e  67        ld      h,a
607f  c7        rst     #0
6080  a0        and     b
6081  00        nop     
6082  36c7      ld      (hl),#c7
6084  de94      sbc     a,#94
6086  14        inc     d
6087  43        ld      b,e
6088  5e        ld      e,(hl)
6089  07        rlca    
608a  bc        cp      h
608b  66        ld      h,(hl)
608c  49        ld      c,c
608d  3015      jr      nc,#60a4        ; (21)
608f  11584a    ld      de,#4a58
6092  3c        inc     a
6093  00        nop     
6094  00        nop     
6095  61        ld      h,c
6096  83        add     a,e
6097  64        ld      h,h
6098  cf        rst     #8
6099  17        rla     
609a  7b        ld      a,e
609b  b4        or      h
609c  80        add     a,b
609d  8d        adc     a,l
609e  ca6a46    jp      z,#466a
60a1  48        ld      c,b
60a2  92        sub     d
60a3  14        inc     d
60a4  54        ld      d,h
60a5  a4        and     h
60a6  9e        sbc     a,(hl)
60a7  61        ld      h,c
60a8  fb        ei      
60a9  8e        adc     a,(hl)
60aa  56        ld      d,(hl)
60ab  d1        pop     de
60ac  87        add     a,a
60ad  74        ld      (hl),h
60ae  15        dec     d
60af  bc        cp      h
60b0  ff        rst     #38
60b1  78        ld      a,b
60b2  da1464    jp      c,#6414
60b5  48        ld      c,b
60b6  3d        dec     a
60b7  62        ld      h,d
60b8  3b        dec     sp
60b9  f46bbf    call    p,#bf6b
60bc  5f        ld      e,a
60bd  be        cp      (hl)
60be  23        inc     hl
60bf  15        dec     d
60c0  f3        di      
60c1  b9        cp      c
60c2  4e        ld      c,(hl)
60c3  45        ld      b,l
60c4  6b        ld      l,e
60c5  a1        and     c
60c6  46        ld      b,(hl)
60c7  d1        pop     de
60c8  45        ld      b,l
60c9  5e        ld      e,(hl)
60ca  d9        exx     
60cb  b0        or      b
60cc  15        dec     d
60cd  8a        adc     a,d
60ce  50        ld      d,b
60cf  8b        adc     a,e
60d0  0b        dec     bc
60d1  c0        ret     nz

60d2  f7        rst     #30
60d3  c5        push    bc
60d4  56        ld      d,(hl)
60d5  13        inc     de
60d6  d69c      sub     #9c
60d8  db72      in      a,(#72)
60da  04        inc     b
60db  9a        sbc     a,d
60dc  5b        ld      e,e
60dd  be        cp      (hl)
60de  39        add     hl,sp
60df  17        rla     
60e0  8e        adc     a,(hl)
60e1  c5        push    bc
60e2  91        sub     c
60e3  17        rla     
60e4  c8        ret     z

60e5  9c        sbc     a,h
60e6  46        ld      b,(hl)
60e7  a0        and     b
60e8  a9        xor     c
60e9  15        dec     d
60ea  db8b      in      a,(#8b)
60ec  bb        cp      e
60ed  b8        cp      b
60ee  cd9a09    call    #099a
60f1  15        dec     d
60f2  27        daa     
60f3  d20025    jp      nc,#2500
60f6  c7        rst     #0
60f7  de94      sbc     a,#94
60f9  14        inc     d
60fa  43        ld      b,e
60fb  5e        ld      e,(hl)
60fc  16bc      ld      d,#bc
60fe  db72      in      a,(#72)
6100  b5        or      l
6101  d0        ret     nc

6102  07        rlca    
6103  bc        cp      h
6104  33        inc     sp
6105  98        sbc     a,b
6106  c39e58    jp      #589e
6109  45        ld      b,l
610a  43        ld      b,e
610b  62        ld      h,d
610c  49        ld      c,c
610d  16ab      ld      d,#ab
610f  98        sbc     a,b
6110  63        ld      h,e
6111  66        ld      h,(hl)
6112  74        ld      (hl),h
6113  c0        ret     nz

6114  3f        ccf     
6115  61        ld      h,c
6116  cbb9      res     7,c
6118  4e        ld      c,(hl)
6119  72        ld      (hl),d
611a  9b        sbc     a,e
611b  8f        adc     a,a
611c  82        add     a,d
611d  17        rla     
611e  3b        dec     sp
611f  5e        ld      e,(hl)
6120  9b        sbc     a,e
6121  15        dec     d
6122  f3        di      
6123  8c        adc     a,h
6124  fb        ei      
6125  80        add     a,b
6126  8b        adc     a,e
6127  9a        sbc     a,d
6128  d3c5      out     (#c5),a
612a  56        ld      d,(hl)
612b  d1        pop     de
612c  03        inc     bc
612d  71        ld      (hl),c
612e  8b        adc     a,e
612f  1679      ld      d,#79
6131  b3        or      e
6132  d0        ret     nc

6133  cebe      adc     a,#be
6135  a0        and     b
6136  dd7136    ld      (ix+#36),c
6139  a1        and     c
613a  12        ld      (de),a
613b  71        ld      (hl),c
613c  65        ld      h,l
613d  49        ld      c,c
613e  77        ld      (hl),a
613f  47        ld      b,a
6140  2e00      ld      l,#00
6142  15        dec     d
6143  c7        rst     #0
6144  de94      sbc     a,#94
6146  14        inc     d
6147  43        ld      b,e
6148  5e        ld      e,(hl)
6149  03        inc     bc
614a  bc        cp      h
614b  e414e5    call    po,#e514
614e  a0        and     b
614f  4f        ld      c,a
6150  a1        and     c
6151  91        sub     c
6152  af        xor     a
6153  83        add     a,e
6154  64        ld      h,h
6155  a3        and     e
6156  15        dec     d
6157  13        inc     de
6158  6d        ld      l,l
6159  5d        ld      e,l
615a  97        sub     a
615b  db16      in      a,(#16)
615d  d3b9      out     (#b9),a
615f  9b        sbc     a,e
6160  6c        ld      l,h
6161  8e        adc     a,(hl)
6162  48        ld      c,b
6163  7b        ld      a,e
6164  14        inc     d
6165  89        adc     a,c
6166  8d        adc     a,l
6167  2015      jr      nz,#617e        ; (21)
6169  d1        pop     de
616a  ce7f      adc     a,#7f
616c  98        sbc     a,b
616d  00        nop     
616e  03        inc     bc
616f  e3        ex      (sp),hl
6170  59        ld      e,c
6171  07        rlca    
6172  58        ld      e,b
6173  57        ld      d,a
6174  98        sbc     a,b
6175  00        nop     
6176  1b        dec     de
6177  c7        rst     #0
6178  de94      sbc     a,#94
617a  14        inc     d
617b  4b        ld      c,e
617c  5e        ld      e,(hl)
617d  96        sub     (hl)
617e  96        sub     (hl)
617f  db72      in      a,(#72)
6181  b5        or      l
6182  d0        ret     nc

6183  16bc      ld      d,#bc
6185  f9        ld      sp,hl
6186  74        ld      (hl),h
6187  5b        ld      e,e
6188  98        sbc     a,b
6189  1b        dec     de
618a  54        ld      d,h
618b  af        xor     a
618c  91        sub     c
618d  1b        dec     de
618e  b5        or      l
618f  7b        ld      a,e
6190  14        inc     d
6191  55        ld      d,l
6192  a4        and     h
6193  09        add     hl,bc
6194  b7        or      a
6195  45        ld      b,l
6196  d5        push    de
6197  3c        inc     a
6198  00        nop     
6199  00        nop     
619a  62        ld      h,d
619b  5e        ld      e,(hl)
619c  1ea0      ld      e,#a0
619e  9f        sbc     a,a
619f  7a        ld      a,d
61a0  4b        ld      c,e
61a1  62        ld      h,d
61a2  b5        or      l
61a3  d0        ret     nc

61a4  fb        ei      
61a5  bb        cp      e
61a6  90        sub     b
61a7  14        inc     d
61a8  17        rla     
61a9  58        ld      e,b
61aa  08        ex      af,af'
61ab  a3        and     e
61ac  ff        rst     #38
61ad  b2        or      d
61ae  9f        sbc     a,a
61af  15        dec     d
61b0  7f        ld      a,a
61b1  b1        or      c
61b2  00        nop     
61b3  1ec7      ld      e,#c7
61b5  de94      sbc     a,#94
61b7  14        inc     d
61b8  4b        ld      c,e
61b9  5e        ld      e,(hl)
61ba  83        add     a,e
61bb  96        sub     (hl)
61bc  49        ld      c,c
61bd  16d0      ld      d,#d0
61bf  ce8b      adc     a,#8b
61c1  3655      ld      (hl),#55
61c3  a4        and     h
61c4  09        add     hl,bc
61c5  b7        or      a
61c6  43        ld      b,e
61c7  5e        ld      e,(hl)
61c8  03        inc     bc
61c9  bc        cp      h
61ca  a9        xor     c
61cb  15        dec     d
61cc  db8b      in      a,(#8b)
61ce  83        add     a,e
61cf  7a        ld      a,d
61d0  5f        ld      e,a
61d1  be        cp      (hl)
61d2  56        ld      d,(hl)
61d3  15        dec     d
61d4  44        ld      b,h
61d5  a0        and     b
61d6  3b        dec     sp
61d7  f45fbe    call    p,#be5f
61da  a9        xor     c
61db  15        dec     d
61dc  db8b      in      a,(#8b)
61de  81        add     a,c
61df  15        dec     d
61e0  4b        ld      c,e
61e1  62        ld      h,d
61e2  89        adc     a,c
61e3  5b        ld      e,e
61e4  96        sub     (hl)
61e5  96        sub     (hl)
61e6  c39c87    jp      #879c
61e9  96        sub     (hl)
61ea  2b        dec     hl
61eb  37        scf     
61ec  55        ld      d,l
61ed  a4        and     h
61ee  09        add     hl,bc
61ef  b7        or      a
61f0  45        ld      b,l
61f1  2e00      ld      l,#00
61f3  2ac7de    ld      hl,(#dec7)
61f6  94        sub     h
61f7  14        inc     d
61f8  4b        ld      c,e
61f9  5e        ld      e,(hl)
61fa  83        add     a,e
61fb  96        sub     (hl)
61fc  3b        dec     sp
61fd  16b7      ld      d,#b7
61ff  b1        or      c
6200  39        add     hl,sp
6201  17        rla     
6202  fe9f      cp      #9f
6204  fb        ei      
6205  17        rla     
6206  53        ld      d,e
6207  be        cp      (hl)
6208  52        ld      d,d
6209  45        ld      b,l
620a  65        ld      h,l
620b  49        ld      c,c
620c  77        ld      (hl),a
620d  47        ld      b,a
620e  89        adc     a,c
620f  17        rla     
6210  82        add     a,d
6211  17        rla     
6212  55        ld      d,l
6213  5e        ld      e,(hl)
6214  36a1      ld      (hl),#a1
6216  73        ld      (hl),e
6217  76        halt    
6218  8e        adc     a,(hl)
6219  48        ld      c,b
621a  7b        ld      a,e
621b  14        inc     d
621c  0ed0      ld      c,#d0
621e  78        ld      a,b
621f  8d        adc     a,l
6220  bc        cp      h
6221  14        inc     d
6222  97        sub     a
6223  9f        sbc     a,a
6224  94        sub     h
6225  96        sub     (hl)
6226  5d        ld      e,l
6227  9e        sbc     a,(hl)
6228  89        adc     a,c
6229  17        rla     
622a  82        add     a,d
622b  17        rla     
622c  47        ld      b,a
622d  5e        ld      e,(hl)
622e  66        ld      h,(hl)
622f  49        ld      c,c
6230  3b        dec     sp
6231  f45fbe    call    p,#be5f
6234  5b        ld      e,e
6235  b1        or      c
6236  4b        ld      c,e
6237  7b        ld      a,e
6238  52        ld      d,d
6239  45        ld      b,l
623a  8f        adc     a,a
623b  48        ld      c,b
623c  118a96    ld      de,#968a
623f  96        sub     (hl)
6240  db72      in      a,(#72)
6242  04        inc     b
6243  9a        sbc     a,d
6244  53        ld      d,e
6245  be        cp      (hl)
6246  0ed0      ld      c,#d0
6248  4c        ld      c,h
6249  2e00      ld      l,#00
624b  0b        dec     bc
624c  c7        rst     #0
624d  de94      sbc     a,#94
624f  14        inc     d
6250  4b        ld      c,e
6251  5e        ld      e,(hl)
6252  96        sub     (hl)
6253  96        sub     (hl)
6254  db72      in      a,(#72)
6256  1b        dec     de
6257  54        ld      d,h
6258  af        xor     a
6259  91        sub     c
625a  91        sub     c
625b  af        xor     a
625c  83        add     a,e
625d  64        ld      h,h
625e  e49a6f    call    po,#6f9a
6261  7b        ld      a,e
6262  00        nop     
6263  10c7      djnz    #622c           ; (-57)
6265  de94      sbc     a,#94
6267  14        inc     d
6268  4b        ld      c,e
6269  5e        ld      e,(hl)
626a  83        add     a,e
626b  96        sub     (hl)
626c  63        ld      h,e
626d  165b      ld      d,#5b
626f  e3        ex      (sp),hl
6270  c39ebb    jp      #bb9e
6273  c0        ret     nz

6274  13        inc     de
6275  ba        cp      d
6276  db16      in      a,(#16)
6278  d3b9      out     (#b9),a
627a  b5        or      l
627b  6c        ld      l,h
627c  03        inc     bc
627d  eef3      xor     #f3
627f  8c        adc     a,h
6280  43        ld      b,e
6281  48        ld      c,b
6282  bf        cp      a
6283  85        add     a,l
6284  00        nop     
6285  2ec7      ld      l,#c7
6287  de94      sbc     a,#94
6289  14        inc     d
628a  51        ld      d,c
628b  5e        ld      e,(hl)
628c  96        sub     (hl)
628d  96        sub     (hl)
628e  db72      in      a,(#72)
6290  73        ld      (hl),e
6291  4f        ld      c,a
6292  4b        ld      c,e
6293  99        sbc     a,c
6294  c39e4e    jp      #4e9e
6297  45        ld      b,l
6298  314952    ld      sp,#5249
629b  a5        and     l
629c  3c        inc     a
629d  00        nop     
629e  00        nop     
629f  63        ld      h,e
62a0  5e        ld      e,(hl)
62a1  97        sub     a
62a2  7b        ld      a,e
62a3  5b        ld      e,e
62a4  13        inc     de
62a5  1b        dec     de
62a6  a1        and     c
62a7  47        ld      b,a
62a8  55        ld      d,l
62a9  b3        or      e
62aa  8b        adc     a,e
62ab  c354a3    jp      #a354
62ae  91        sub     c
62af  89        adc     a,c
62b0  5b        ld      e,e
62b1  f3        di      
62b2  9b        sbc     a,e
62b3  f64f      or      #4f
62b5  51        ld      d,c
62b6  1859      jr      #6311           ; (89)
62b8  c22ea1    jp      nz,#a12e
62bb  1058      djnz    #6315           ; (88)
62bd  f3        di      
62be  a0        and     b
62bf  5b        ld      e,e
62c0  4d        ld      c,l
62c1  b6        or      (hl)
62c2  46        ld      b,(hl)
62c3  56        ld      d,(hl)
62c4  5e        ld      e,(hl)
62c5  c5        push    bc
62c6  9c        sbc     a,h
62c7  8f        adc     a,a
62c8  8c        adc     a,h
62c9  84        add     a,h
62ca  4b        ld      c,e
62cb  dd46b2    ld      b,(ix-#4e)
62ce  17        rla     
62cf  3b        dec     sp
62d0  f45fbe    call    p,#be5f
62d3  63        ld      h,e
62d4  165b      ld      d,#5b
62d6  e3        ex      (sp),hl
62d7  40        ld      b,b
62d8  55        ld      d,l
62d9  90        sub     b
62da  be        cp      (hl)
62db  35        dec     (hl)
62dc  c4c016    call    nz,#16c0
62df  56        ld      d,(hl)
62e0  13        inc     de
62e1  95        sub     l
62e2  73        ld      (hl),e
62e3  3f        ccf     
62e4  166e      ld      d,#6e
62e6  ca2e00    jp      z,#002e
62e9  2d        dec     l
62ea  c7        rst     #0
62eb  de94      sbc     a,#94
62ed  14        inc     d
62ee  4b        ld      c,e
62ef  5e        ld      e,(hl)
62f0  83        add     a,e
62f1  96        sub     (hl)
62f2  03        inc     bc
62f3  15        dec     d
62f4  d3b3      out     (#b3),a
62f6  bc        cp      h
62f7  14        inc     d
62f8  97        sub     a
62f9  9f        sbc     a,a
62fa  92        sub     d
62fb  96        sub     (hl)
62fc  65        ld      h,l
62fd  49        ld      c,c
62fe  77        ld      (hl),a
62ff  47        ld      b,a
6300  3b        dec     sp
6301  f46bbf    call    p,#bf6b
6304  5f        ld      e,a
6305  be        cp      (hl)
6306  23        inc     hl
6307  15        dec     d
6308  f3        di      
6309  b9        cp      c
630a  4b        ld      c,e
630b  7b        ld      a,e
630c  45        ld      b,l
630d  45        ld      b,l
630e  d9        exx     
630f  b0        or      b
6310  9b        sbc     a,e
6311  8f        adc     a,a
6312  89        adc     a,c
6313  17        rla     
6314  82        add     a,d
6315  17        rla     
6316  59        ld      e,c
6317  5e        ld      e,(hl)
6318  66        ld      h,(hl)
6319  62        ld      h,d
631a  d5        push    de
631b  15        dec     d
631c  7b        ld      a,e
631d  14        inc     d
631e  54        ld      d,h
631f  8b        adc     a,e
6320  9b        sbc     a,e
6321  6c        ld      l,h
6322  55        ld      d,l
6323  a4        and     h
6324  09        add     hl,bc
6325  b7        or      a
6326  db63      in      a,(#63)
6328  84        add     a,h
6329  14        inc     d
632a  4f        ld      c,a
632b  a1        and     c
632c  51        ld      d,c
632d  184b      jr      #637a           ; (75)
632f  c2c3b5    jp      nz,#b5c3
6332  a9        xor     c
6333  15        dec     d
6334  db8b      in      a,(#8b)
6336  6b        ld      l,e
6337  bf        cp      a
6338  99        sbc     a,c
6339  48        ld      c,b
633a  5f        ld      e,a
633b  be        cp      (hl)
633c  7b        ld      a,e
633d  af        xor     a
633e  52        ld      d,d
633f  13        inc     de
6340  65        ld      h,l
6341  49        ld      c,c
6342  77        ld      (hl),a
6343  47        ld      b,a
6344  2e00      ld      l,#00
6346  19        add     hl,de
6347  c7        rst     #0
6348  de94      sbc     a,#94
634a  14        inc     d
634b  51        ld      d,c
634c  5e        ld      e,(hl)
634d  96        sub     (hl)
634e  96        sub     (hl)
634f  db72      in      a,(#72)
6351  73        ld      (hl),e
6352  4f        ld      c,a
6353  4b        ld      c,e
6354  99        sbc     a,c
6355  c39e55    jp      #559e
6358  45        ld      b,l
6359  8e        adc     a,(hl)
635a  91        sub     c
635b  05        dec     b
635c  8a        adc     a,d
635d  e3        ex      (sp),hl
635e  8b        adc     a,e
635f  85        add     a,l
6360  96        sub     (hl)
6361  8f        adc     a,a
6362  8c        adc     a,h
6363  c44cdb    call    nz,#db4c
6366  8b        adc     a,e
6367  96        sub     (hl)
6368  a5        and     l
6369  3b        dec     sp
636a  f44545    call    p,#4545
636d  d9        exx     
636e  b0        or      b
636f  fb        ei      
6370  89        adc     a,c
6371  3f        ccf     
6372  160d      ld      d,#0d
6374  47        ld      b,a
6375  f7        rst     #30
6376  17        rla     
6377  17        rla     
6378  ba        cp      d
6379  00        nop     
637a  21c7de    ld      hl,#dec7
637d  94        sub     h
637e  14        inc     d
637f  4b        ld      c,e
6380  5e        ld      e,(hl)
6381  96        sub     (hl)
6382  96        sub     (hl)
6383  db72      in      a,(#72)
6385  064f      ld      b,#4f
6387  7f        ld      a,a
6388  bf        cp      a
6389  b8        cp      b
638a  167b      ld      d,#7b
638c  14        inc     d
638d  e3        ex      (sp),hl
638e  b8        cp      b
638f  f3        di      
6390  8c        adc     a,h
6391  96        sub     (hl)
6392  a5        and     l
6393  fb        ei      
6394  17        rla     
6395  53        ld      d,e
6396  be        cp      (hl)
6397  4e        ld      c,(hl)
6398  45        ld      b,l
6399  8e        adc     a,(hl)
639a  7b        ld      a,e
639b  db8b      in      a,(#8b)
639d  0c        inc     c
639e  ba        cp      d
639f  8f        adc     a,a
63a0  303c      jr      nc,#63de        ; (60)
63a2  00        nop     
63a3  00        nop     
63a4  64        ld      h,h
63a5  5f        ld      e,a
63a6  19        add     hl,de
63a7  ee85      xor     #85
63a9  73        ld      (hl),e
63aa  f0        ret     p

63ab  72        ld      (hl),d
63ac  f4bdc3    call    p,#c3bd
63af  b5        or      l
63b0  33        inc     sp
63b1  98        sbc     a,b
63b2  23        inc     hl
63b3  63        ld      h,e
63b4  0b        dec     bc
63b5  c0        ret     nz

63b6  6c        ld      l,h
63b7  be        cp      (hl)
63b8  29        add     hl,hl
63b9  a1        and     c
63ba  1671      ld      d,#71
63bc  a3        and     e
63bd  7a        ld      a,d
63be  5e        ld      e,(hl)
63bf  17        rla     
63c0  8d        adc     a,l
63c1  7b        ld      a,e
63c2  2e00      ld      l,#00
63c4  2c        inc     l
63c5  c7        rst     #0
63c6  de94      sbc     a,#94
63c8  14        inc     d
63c9  4b        ld      c,e
63ca  5e        ld      e,(hl)
63cb  83        add     a,e
63cc  96        sub     (hl)
63cd  82        add     a,d
63ce  17        rla     
63cf  54        ld      d,h
63d0  5e        ld      e,(hl)
63d1  3f        ccf     
63d2  a0        and     b
63d3  b8        cp      b
63d4  16af      ld      d,#af
63d6  14        inc     d
63d7  33        inc     sp
63d8  bb        cp      e
63d9  29        add     hl,hl
63da  d1        pop     de
63db  9b        sbc     a,e
63dc  b7        or      a
63dd  85        add     a,l
63de  a5        and     l
63df  74        ld      (hl),h
63e0  c0        ret     nz

63e1  4b        ld      c,e
63e2  5e        ld      e,(hl)
63e3  d1        pop     de
63e4  b5        or      l
63e5  96        sub     (hl)
63e6  96        sub     (hl)
63e7  db72      in      a,(#72)
63e9  0ed0      ld      c,#d0
63eb  9b        sbc     a,e
63ec  8f        adc     a,a
63ed  3b        dec     sp
63ee  13        inc     de
63ef  82        add     a,d
63f0  17        rla     
63f1  2f        cpl     
63f2  62        ld      h,d
63f3  d5        push    de
63f4  15        dec     d
63f5  7b        ld      a,e
63f6  14        inc     d
63f7  09        add     hl,bc
63f8  4e        ld      c,(hl)
63f9  a9        xor     c
63fa  15        dec     d
63fb  db8b      in      a,(#8b)
63fd  83        add     a,e
63fe  7a        ld      a,d
63ff  5f        ld      e,a
6400  be        cp      (hl)
6401  56        ld      d,(hl)
6402  15        dec     d
6403  44        ld      b,h
6404  a0        and     b
6405  3b        dec     sp
6406  f45fbe    call    p,#be5f
6409  5b        ld      e,e
640a  b1        or      c
640b  4b        ld      c,e
640c  7b        ld      a,e
640d  52        ld      d,d
640e  45        ld      b,l
640f  65        ld      h,l
6410  49        ld      c,c
6411  77        ld      (hl),a
6412  47        ld      b,a
6413  3f        ccf     
6414  1603      ld      d,#03
6416  47        ld      b,a
6417  ab        xor     e
6418  98        sbc     a,b
6419  47        ld      b,a
641a  13        inc     de
641b  66        ld      h,(hl)
641c  49        ld      c,c
641d  2e00      ld      l,#00
641f  47        ld      b,a
6420  c7        rst     #0
6421  de94      sbc     a,#94
6423  14        inc     d
6424  43        ld      b,e
6425  5e        ld      e,(hl)
6426  03        inc     bc
6427  bc        cp      h
6428  e1        pop     hl
6429  14        inc     d
642a  e693      and     #93
642c  13        inc     de
642d  63        ld      h,e
642e  f0        ret     p

642f  81        add     a,c
6430  03        inc     bc
6431  56        ld      d,(hl)
6432  27        daa     
6433  a0        and     b
6434  43        ld      b,e
6435  13        inc     de
6436  49        ld      c,c
6437  16ca      ld      d,#ca
6439  ce8e      adc     a,#8e
643b  48        ld      c,b
643c  c3b533    jp      #33b5
643f  98        sbc     a,b
6440  0f        rrca    
6441  87        add     a,a
6442  4b        ld      c,e
6443  62        ld      h,d
6444  55        ld      d,l
6445  a4        and     h
6446  09        add     hl,bc
6447  b7        or      a
6448  3b        dec     sp
6449  5e        ld      e,(hl)
644a  5c        ld      e,h
644b  15        dec     d
644c  db9f      in      a,(#9f)
644e  5f        ld      e,a
644f  be        cp      (hl)
6450  99        sbc     a,c
6451  16c2      ld      d,#c2
6453  b3        or      e
6454  f9        ld      sp,hl
6455  15        dec     d
6456  9d        sbc     a,l
6457  7a        ld      a,d
6458  7b        ld      a,e
6459  14        inc     d
645a  89        adc     a,c
645b  73        ld      (hl),e
645c  f472e4    call    p,#e472
645f  14        inc     d
6460  fe49      cp      #49
6462  5c        ld      e,h
6463  15        dec     d
6464  db9f      in      a,(#9f)
6466  5f        ld      e,a
6467  be        cp      (hl)
6468  23        inc     hl
6469  15        dec     d
646a  f3        di      
646b  b9        cp      c
646c  6b        ld      l,e
646d  bf        cp      a
646e  8d        adc     a,l
646f  91        sub     c
6470  43        ld      b,e
6471  5e        ld      e,(hl)
6472  3b        dec     sp
6473  13        inc     de
6474  59        ld      e,c
6475  13        inc     de
6476  45        ld      b,l
6477  48        ld      c,b
6478  91        sub     c
6479  7a        ld      a,d
647a  db16      in      a,(#16)
647c  d3b9      out     (#b9),a
647e  9b        sbc     a,e
647f  6c        ld      l,h
6480  3b        dec     sp
6481  6e        ld      l,(hl)
6482  ab        xor     e
6483  98        sbc     a,b
6484  b5        or      l
6485  d0        ret     nc

6486  9b        sbc     a,e
6487  c1        pop     bc
6488  82        add     a,d
6489  17        rla     
648a  2f        cpl     
648b  62        ld      h,d
648c  d5        push    de
648d  15        dec     d
648e  8e        adc     a,(hl)
648f  14        inc     d
6490  2b        dec     hl
6491  b9        cp      c
6492  4e        ld      c,(hl)
6493  45        ld      b,l
6494  314954    ld      sp,#5449
6497  5e        ld      e,(hl)
6498  3f        ccf     
6499  a0        and     b
649a  84        add     a,h
649b  14        inc     d
649c  4f        ld      c,a
649d  a1        and     c
649e  3b        dec     sp
649f  f45fbe    call    p,#be5f
64a2  8b        adc     a,e
64a3  14        inc     d
64a4  8b        adc     a,e
64a5  8c        adc     a,h
64a6  3c        inc     a
64a7  00        nop     
64a8  00        nop     
64a9  65        ld      h,l
64aa  af        xor     a
64ab  c6b5      add     a,#b5
64ad  72        ld      (hl),d
64ae  48        ld      c,b
64af  9f        sbc     a,a
64b0  15        dec     d
64b1  7f        ld      a,a
64b2  b1        or      c
64b3  00        nop     
64b4  4a        ld      c,d
64b5  c7        rst     #0
64b6  de94      sbc     a,#94
64b8  14        inc     d
64b9  4b        ld      c,e
64ba  5e        ld      e,(hl)
64bb  96        sub     (hl)
64bc  96        sub     (hl)
64bd  db72      in      a,(#72)
64bf  8e        adc     a,(hl)
64c0  c5        push    bc
64c1  41        ld      b,c
64c2  62        ld      h,d
64c3  b6        or      (hl)
64c4  a0        and     b
64c5  03        inc     bc
64c6  58        ld      e,b
64c7  bf        cp      a
64c8  9a        sbc     a,d
64c9  01b351    ld      bc,#51b3
64cc  90        sub     b
64cd  95        sub     l
64ce  64        ld      h,h
64cf  17        rla     
64d0  61        ld      h,c
64d1  1b        dec     de
64d2  b5        or      l
64d3  db16      in      a,(#16)
64d5  d3b9      out     (#b9),a
64d7  b5        or      l
64d8  6c        ld      l,h
64d9  81        add     a,c
64da  15        dec     d
64db  23        inc     hl
64dc  15        dec     d
64dd  16ba      ld      d,#ba
64df  f7        rst     #30
64e0  17        rla     
64e1  16ba      ld      d,#ba
64e3  90        sub     b
64e4  14        inc     d
64e5  17        rla     
64e6  58        ld      e,b
64e7  9b        sbc     a,e
64e8  a8        xor     b
64e9  af        xor     a
64ea  15        dec     d
64eb  90        sub     b
64ec  91        sub     c
64ed  b9        cp      c
64ee  14        inc     d
64ef  75        ld      (hl),l
64f0  98        sbc     a,b
64f1  94        sub     h
64f2  14        inc     d
64f3  55        ld      d,l
64f4  5e        ld      e,(hl)
64f5  ef        rst     #28
64f6  bf        cp      a
64f7  03        inc     bc
64f8  d2b946    jp      nc,#46b9
64fb  73        ld      (hl),e
64fc  c603      add     a,#03
64fe  a0        and     b
64ff  5f        ld      e,a
6500  be        cp      (hl)
6501  56        ld      d,(hl)
6502  15        dec     d
6503  44        ld      b,h
6504  a0        and     b
6505  3b        dec     sp
6506  f43b13    call    p,#133b
6509  4a        ld      c,d
650a  13        inc     de
650b  34        inc     (hl)
650c  79        ld      a,c
650d  fe9e      cp      #9e
650f  e2dee5    jp      po,#e5de
6512  78        ld      a,b
6513  c0        ret     nz

6514  1682      ld      d,#82
6516  17        rla     
6517  59        ld      e,c
6518  5e        ld      e,(hl)
6519  46        ld      b,(hl)
651a  48        ld      c,b
651b  39        add     hl,sp
651c  17        rla     
651d  7a        ld      a,d
651e  c4fb8e    call    nz,#8efb
6521  eb        ex      de,hl
6522  bf        cp      a
6523  9e        sbc     a,(hl)
6524  9a        sbc     a,d
6525  7f        ld      a,a
6526  49        ld      c,c
6527  89        adc     a,c
6528  17        rla     
6529  7e        ld      a,(hl)
652a  13        inc     de
652b  85        add     a,l
652c  74        ld      (hl),h
652d  59        ld      e,c
652e  5e        ld      e,(hl)
652f  6b        ld      l,e
6530  74        ld      (hl),h
6531  3b        dec     sp
6532  13        inc     de
6533  3b        dec     sp
6534  13        inc     de
6535  f9        ld      sp,hl
6536  a6        and     (hl)
6537  a7        and     a
6538  53        ld      d,e
6539  07        rlca    
653a  58        ld      e,b
653b  66        ld      h,(hl)
653c  49        ld      c,c
653d  63        ld      h,e
653e  1650      ld      d,#50
6540  dbcf      in      a,(#cf)
6542  62        ld      h,d
6543  94        sub     h
6544  af        xor     a
6545  8f        adc     a,a
6546  62        ld      h,d
6547  e7        rst     #20
6548  b2        or      d
6549  220019    ld      (#1900),hl
654c  c7        rst     #0
654d  de94      sbc     a,#94
654f  14        inc     d
6550  43        ld      b,e
6551  5e        ld      e,(hl)
6552  16bc      ld      d,#bc
6554  db72      in      a,(#72)
6556  50        ld      d,b
6557  8b        adc     a,e
6558  115886    ld      de,#8658
655b  64        ld      h,h
655c  86        add     a,(hl)
655d  5f        ld      e,a
655e  3b        dec     sp
655f  f455a4    call    p,#a455
6562  09        add     hl,bc
6563  b7        or      a
6564  4b        ld      c,e
6565  62        ld      h,d
6566  e3        ex      (sp),hl
6567  8b        adc     a,e
6568  115883    ld      de,#8358
656b  66        ld      h,(hl)
656c  83        add     a,e
656d  7a        ld      a,d
656e  8e        adc     a,(hl)
656f  2d        dec     l
6570  73        ld      (hl),e
6571  8a        adc     a,d
6572  3b        dec     sp
6573  13        inc     de
6574  3b        dec     sp
6575  13        inc     de
6576  03        inc     bc
6577  15        dec     d
6578  65        ld      h,l
6579  b1        or      c
657a  91        sub     c
657b  be        cp      (hl)
657c  af        xor     a
657d  9a        sbc     a,d
657e  00        nop     
657f  55        ld      d,l
6580  c7        rst     #0
6581  deaf      sbc     a,#af
6583  23        inc     hl
6584  d0        ret     nc

6585  15        dec     d
6586  7b        ld      a,e
6587  14        inc     d
6588  54        ld      d,h
6589  8b        adc     a,e
658a  9b        sbc     a,e
658b  6c        ld      l,h
658c  01b359    ld      bc,#59b3
658f  90        sub     b
6590  82        add     a,d
6591  7b        ld      a,e
6592  90        sub     b
6593  14        inc     d
6594  47        ld      b,a
6595  54        ld      d,h
6596  b3        or      e
6597  9a        sbc     a,d
6598  eb        ex      de,hl
6599  5b        ld      e,e
659a  50        ld      d,b
659b  d1        pop     de
659c  cb6e      bit     5,(hl)
659e  03        inc     bc
659f  a0        and     b
65a0  46        ld      b,(hl)
65a1  48        ld      c,b
65a2  f3        di      
65a3  17        rla     
65a4  0d        dec     c
65a5  8d        adc     a,l
65a6  3b        dec     sp
65a7  f43b13    call    p,#133b
65aa  6f        ld      l,a
65ab  3c        inc     a
65ac  00        nop     
65ad  00        nop     
65ae  66        ld      h,(hl)
65af  82        add     a,d
65b0  17        rla     
65b1  52        ld      d,d
65b2  5e        ld      e,(hl)
65b3  e678      and     #78
65b5  2f        cpl     
65b6  c6c6      add     a,#c6
65b8  b5        or      l
65b9  e3        ex      (sp),hl
65ba  61        ld      h,c
65bb  f3        di      
65bc  55        ld      d,l
65bd  8f        adc     a,a
65be  49        ld      c,c
65bf  b3        or      e
65c0  95        sub     l
65c1  52        ld      d,d
65c2  45        ld      b,l
65c3  54        ld      d,h
65c4  72        ld      (hl),d
65c5  ba        cp      d
65c6  48        ld      c,b
65c7  f7        rst     #30
65c8  17        rla     
65c9  33        inc     sp
65ca  49        ld      c,c
65cb  ab        xor     e
65cc  98        sbc     a,b
65cd  5f        ld      e,a
65ce  be        cp      (hl)
65cf  09        add     hl,bc
65d0  15        dec     d
65d1  b6        or      (hl)
65d2  c3455e    jp      #5e45
65d5  09        add     hl,bc
65d6  b3        or      e
65d7  1b        dec     de
65d8  9c        sbc     a,h
65d9  43        ld      b,e
65da  13        inc     de
65db  5a        ld      e,d
65dc  17        rla     
65dd  46        ld      b,(hl)
65de  48        ld      c,b
65df  6b        ld      l,e
65e0  a1        and     c
65e1  55        ld      d,l
65e2  a4        and     h
65e3  09        add     hl,bc
65e4  b7        or      a
65e5  52        ld      d,d
65e6  5e        ld      e,(hl)
65e7  f5        push    af
65e8  b2        or      d
65e9  2660      ld      h,#60
65eb  c6b5      add     a,#b5
65ed  80        add     a,b
65ee  a1        and     c
65ef  14        inc     d
65f0  d0        ret     nc

65f1  73        ld      (hl),e
65f2  5d        ld      e,l
65f3  8e        adc     a,(hl)
65f4  48        ld      c,b
65f5  7b        ld      a,e
65f6  14        inc     d
65f7  3f        ccf     
65f8  b9        cp      c
65f9  fa6273    jp      m,#7362
65fc  49        ld      c,c
65fd  ff        rst     #38
65fe  b9        cp      c
65ff  df        rst     #18
6600  61        ld      h,c
6601  91        sub     c
6602  af        xor     a
6603  5b        ld      e,e
6604  98        sbc     a,b
6605  e3        ex      (sp),hl
6606  8b        adc     a,e
6607  0b        dec     bc
6608  5c        ld      e,h
6609  f7        rst     #30
660a  c5        push    bc
660b  43        ld      b,e
660c  13        inc     de
660d  49        ld      c,c
660e  16ca      ld      d,#ca
6610  ce8e      adc     a,#8e
6612  48        ld      c,b
6613  c3b533    jp      #33b5
6616  98        sbc     a,b
6617  0f        rrca    
6618  87        add     a,a
6619  4b        ld      c,e
661a  62        ld      h,d
661b  55        ld      d,l
661c  a4        and     h
661d  09        add     hl,bc
661e  b7        or      a
661f  47        ld      b,a
6620  5e        ld      e,(hl)
6621  bf        cp      a
6622  9a        sbc     a,d
6623  8b        adc     a,e
6624  b3        or      e
6625  79        ld      a,c
6626  68        ld      l,b
6627  56        ld      d,(hl)
6628  90        sub     b
6629  db72      in      a,(#72)
662b  47        ld      b,a
662c  b9        cp      c
662d  77        ld      (hl),a
662e  be        cp      (hl)
662f  2000      jr      nz,#6631        ; (0)
6631  2d        dec     l
6632  c7        rst     #0
6633  de94      sbc     a,#94
6635  14        inc     d
6636  4b        ld      c,e
6637  5e        ld      e,(hl)
6638  83        add     a,e
6639  96        sub     (hl)
663a  da1464    jp      c,#6414
663d  48        ld      c,b
663e  23        inc     hl
663f  62        ld      h,d
6640  29        add     hl,hl
6641  d1        pop     de
6642  9b        sbc     a,e
6643  b7        or      a
6644  0ed0      ld      c,#d0
6646  05        dec     b
6647  8a        adc     a,d
6648  1ea0      ld      e,#a0
664a  d0        ret     nc

664b  47        ld      b,a
664c  c3b5e3    jp      #e3b5
664f  160f      ld      d,#0f
6651  56        ld      d,(hl)
6652  5b        ld      e,e
6653  b1        or      c
6654  c39e4f    jp      #4f9e
6657  45        ld      b,l
6658  83        add     a,e
6659  48        ld      c,b
665a  3b        dec     sp
665b  13        inc     de
665c  f7        rst     #30
665d  17        rla     
665e  33        inc     sp
665f  49        ld      c,c
6660  ab        xor     e
6661  98        sbc     a,b
6662  5f        ld      e,a
6663  be        cp      (hl)
6664  4f        ld      c,a
6665  16d4      ld      d,#d4
6667  97        sub     a
6668  03        inc     bc
6669  15        dec     d
666a  8b        adc     a,e
666b  b8        cp      b
666c  03        inc     bc
666d  a0        and     b
666e  95        sub     l
666f  73        ld      (hl),e
6670  9f        sbc     a,a
6671  15        dec     d
6672  17        rla     
6673  47        ld      b,a
6674  4a        ld      c,d
6675  13        inc     de
6676  4b        ld      c,e
6677  5e        ld      e,(hl)
6678  d6b5      sub     #b5
667a  db72      in      a,(#72)
667c  366e      ld      (hl),#6e
667e  1a        ld      a,(de)
667f  161d      ld      d,#1d
6681  a0        and     b
6682  16ee      ld      d,#ee
6684  db72      in      a,(#72)
6686  4f        ld      c,a
6687  13        inc     de
6688  40        ld      b,b
6689  a0        and     b
668a  81        add     a,c
668b  15        dec     d
668c  44        ld      b,h
668d  2e00      ld      l,#00
668f  12        ld      (de),a
6690  c7        rst     #0
6691  de94      sbc     a,#94
6693  14        inc     d
6694  4b        ld      c,e
6695  5e        ld      e,(hl)
6696  83        add     a,e
6697  96        sub     (hl)
6698  49        ld      c,c
6699  16ab      ld      d,#ab
669b  98        sbc     a,b
669c  c9        ret     

669d  b8        cp      b
669e  90        sub     b
669f  a5        and     l
66a0  c5        push    bc
66a1  6a        ld      l,d
66a2  bc        cp      h
66a3  a0        and     b
66a4  09        add     hl,bc
66a5  79        ld      a,c
66a6  99        sbc     a,c
66a7  af        xor     a
66a8  82        add     a,d
66a9  7b        ld      a,e
66aa  2b        dec     hl
66ab  17        rla     
66ac  f7        rst     #30
66ad  6c        ld      l,h
66ae  19        add     hl,de
66af  dc3c00    call    c,#003c
66b2  00        nop     
66b3  67        ld      h,a
66b4  58        ld      e,b
66b5  46        ld      b,(hl)
66b6  48        ld      c,b
66b7  5b        ld      e,e
66b8  bb        cp      e
66b9  2000      jr      nz,#66bb        ; (0)
66bb  10c7      djnz    #6684           ; (-57)
66bd  de94      sbc     a,#94
66bf  14        inc     d
66c0  4b        ld      c,e
66c1  5e        ld      e,(hl)
66c2  83        add     a,e
66c3  96        sub     (hl)
66c4  e7        rst     #20
66c5  14        inc     d
66c6  56        ld      d,(hl)
66c7  8f        adc     a,a
66c8  a5        and     l
66c9  63        ld      h,e
66ca  cb46      bit     0,(hl)
66cc  b9        cp      c
66cd  46        ld      b,(hl)
66ce  73        ld      (hl),e
66cf  c6c9      add     a,#c9
66d1  60        ld      h,b
66d2  33        inc     sp
66d3  75        ld      (hl),l
66d4  67        ld      h,a
66d5  66        ld      h,(hl)
66d6  03        inc     bc
66d7  bc        cp      h
66d8  b9        cp      c
66d9  55        ld      d,l
66da  ef        rst     #28
66db  b9        cp      c
66dc  00        nop     
66dd  2ec7      ld      l,#c7
66df  de94      sbc     a,#94
66e1  14        inc     d
66e2  4b        ld      c,e
66e3  5e        ld      e,(hl)
66e4  96        sub     (hl)
66e5  96        sub     (hl)
66e6  db72      in      a,(#72)
66e8  1b        dec     de
66e9  54        ld      d,h
66ea  af        xor     a
66eb  91        sub     c
66ec  91        sub     c
66ed  af        xor     a
66ee  8a        adc     a,d
66ef  64        ld      h,h
66f0  bf        cp      a
66f1  a0        and     b
66f2  33        inc     sp
66f3  bb        cp      e
66f4  4e        ld      c,(hl)
66f5  45        ld      b,l
66f6  11a023    ld      de,#23a0
66f9  15        dec     d
66fa  f8        ret     m

66fb  b9        cp      c
66fc  b5        or      l
66fd  d0        ret     nc

66fe  12        ld      (de),a
66ff  bc        cp      h
6700  65        ld      h,l
6701  49        ld      c,c
6702  77        ld      (hl),a
6703  47        ld      b,a
6704  fb        ei      
6705  17        rla     
6706  53        ld      d,e
6707  be        cp      (hl)
6708  a9        xor     c
6709  15        dec     d
670a  f5        push    af
670b  8b        adc     a,e
670c  3815      jr      c,#6723         ; (21)
670e  43        ld      b,e
670f  62        ld      h,d
6710  1f        rra     
6711  d1        pop     de
6712  7f        ld      a,a
6713  b1        or      c
6714  56        ld      d,(hl)
6715  13        inc     de
6716  c7        rst     #0
6717  9c        sbc     a,h
6718  a6        and     (hl)
6719  d8        ret     c

671a  af        xor     a
671b  a0        and     b
671c  96        sub     (hl)
671d  14        inc     d
671e  2b        dec     hl
671f  17        rla     
6720  49        ld      c,c
6721  98        sbc     a,b
6722  b3        or      e
6723  95        sub     l
6724  ae        xor     (hl)
6725  b7        or      a
6726  e65f      and     #5f
6728  99        sbc     a,c
6729  16c2      ld      d,#c2
672b  b3        or      e
672c  15        dec     d
672d  ee36      xor     #36
672f  a1        and     c
6730  73        ld      (hl),e
6731  76        halt    
6732  57        ld      d,a
6733  13        inc     de
6734  73        ld      (hl),e
6735  a8        xor     b
6736  a3        and     e
6737  a0        and     b
6738  89        adc     a,c
6739  5b        ld      e,e
673a  4e        ld      c,(hl)
673b  2e00      ld      l,#00
673d  4c        ld      c,h
673e  c7        rst     #0
673f  de94      sbc     a,#94
6741  14        inc     d
6742  4b        ld      c,e
6743  5e        ld      e,(hl)
6744  83        add     a,e
6745  96        sub     (hl)
6746  3b        dec     sp
6747  16b7      ld      d,#b7
6749  b1        or      c
674a  49        ld      c,c
674b  16c5      ld      d,#c5
674d  ce2d      adc     a,#2d
674f  7b        ld      a,e
6750  3b        dec     sp
6751  c5        push    bc
6752  85        add     a,l
6753  af        xor     a
6754  4f        ld      c,a
6755  72        ld      (hl),d
6756  74        ld      (hl),h
6757  4d        ld      c,l
6758  fa17d7    jp      m,#d717
675b  a0        and     b
675c  56        ld      d,(hl)
675d  15        dec     d
675e  44        ld      b,h
675f  a0        and     b
6760  d5        push    de
6761  15        dec     d
6762  90        sub     b
6763  14        inc     d
6764  3b        dec     sp
6765  13        inc     de
6766  3b        dec     sp
6767  13        inc     de
6768  cf        rst     #8
6769  15        dec     d
676a  3092      jr      nc,#66fe        ; (-110)
676c  9b        sbc     a,e
676d  b7        or      a
676e  bb        cp      e
676f  b8        cp      b
6770  88        adc     a,b
6771  4b        ld      c,e
6772  46        ld      b,(hl)
6773  48        ld      c,b
6774  83        add     a,e
6775  61        ld      h,c
6776  79        ld      a,c
6777  68        ld      l,b
6778  56        ld      d,(hl)
6779  90        sub     b
677a  db72      in      a,(#72)
677c  ab        xor     e
677d  53        ld      d,e
677e  90        sub     b
677f  8c        adc     a,h
6780  5b        ld      e,e
6781  70        ld      (hl),b
6782  23        inc     hl
6783  15        dec     d
6784  f3        di      
6785  b9        cp      c
6786  8e        adc     a,(hl)
6787  48        ld      c,b
6788  f7        rst     #30
6789  17        rla     
678a  f3        di      
678b  b9        cp      c
678c  5f        ld      e,a
678d  be        cp      (hl)
678e  5b        ld      e,e
678f  b1        or      c
6790  0d        dec     c
6791  a0        and     b
6792  59        ld      e,c
6793  5e        ld      e,(hl)
6794  f4724e    call    p,#4e72
6797  5e        ld      e,(hl)
6798  314952    ld      sp,#5249
679b  5e        ld      e,(hl)
679c  65        ld      h,l
679d  49        ld      c,c
679e  77        ld      (hl),a
679f  47        ld      b,a
67a0  33        inc     sp
67a1  bb        cp      e
67a2  f64f      or      #4f
67a4  82        add     a,d
67a5  17        rla     
67a6  3b        dec     sp
67a7  63        ld      h,e
67a8  2f        cpl     
67a9  49        ld      c,c
67aa  99        sbc     a,c
67ab  16c8      ld      d,#c8
67ad  ce46      adc     a,#46
67af  7a        ld      a,d
67b0  f3        di      
67b1  5f        ld      e,a
67b2  56        ld      d,(hl)
67b3  d1        pop     de
67b4  8a        adc     a,d
67b5  3c        inc     a
67b6  00        nop     
67b7  00        nop     
67b8  68        ld      l,b
67b9  15        dec     d
67ba  71        ld      (hl),c
67bb  8e        adc     a,(hl)
67bc  48        ld      c,b
67bd  3b        dec     sp
67be  f43b13    call    p,#133b
67c1  3b        dec     sp
67c2  13        inc     de
67c3  89        adc     a,c
67c4  8d        adc     a,l
67c5  5f        ld      e,a
67c6  17        rla     
67c7  46        ld      b,(hl)
67c8  48        ld      c,b
67c9  db16      in      a,(#16)
67cb  d3b9      out     (#b9),a
67cd  b5        or      l
67ce  6c        ld      l,h
67cf  81        add     a,c
67d0  15        dec     d
67d1  99        sbc     a,c
67d2  16c2      ld      d,#c2
67d4  b3        or      e
67d5  90        sub     b
67d6  14        inc     d
67d7  15        dec     d
67d8  58        ld      e,b
67d9  36a1      ld      (hl),#a1
67db  48        ld      c,b
67dc  2e00      ld      l,#00
67de  2d        dec     l
67df  c7        rst     #0
67e0  de94      sbc     a,#94
67e2  14        inc     d
67e3  4b        ld      c,e
67e4  5e        ld      e,(hl)
67e5  96        sub     (hl)
67e6  96        sub     (hl)
67e7  db72      in      a,(#72)
67e9  f3        di      
67ea  a6        and     (hl)
67eb  66        ld      h,(hl)
67ec  62        ld      h,d
67ed  cb23      sla     e
67ef  66        ld      h,(hl)
67f0  4d        ld      c,l
67f1  01b3db    ld      bc,#dbb3
67f4  95        sub     l
67f5  82        add     a,d
67f6  17        rla     
67f7  59        ld      e,c
67f8  5e        ld      e,(hl)
67f9  46        ld      b,(hl)
67fa  48        ld      c,b
67fb  c3b55b    jp      #5bb5
67fe  b1        or      c
67ff  48        ld      c,b
6800  55        ld      d,l
6801  2f        cpl     
6802  62        ld      h,d
6803  19        add     hl,de
6804  58        ld      e,b
6805  82        add     a,d
6806  7b        ld      a,e
6807  3b        dec     sp
6808  13        inc     de
6809  e7        rst     #20
680a  14        inc     d
680b  bb        cp      e
680c  b3        or      e
680d  9d        sbc     a,l
680e  7a        ld      a,d
680f  16ee      ld      d,#ee
6811  db72      in      a,(#72)
6813  89        adc     a,c
6814  67        ld      h,a
6815  a3        and     e
6816  a0        and     b
6817  56        ld      d,(hl)
6818  d1        pop     de
6819  03        inc     bc
681a  71        ld      (hl),c
681b  82        add     a,d
681c  17        rla     
681d  dd78      ld      a,b
681f  e3        ex      (sp),hl
6820  16db      ld      d,#db
6822  8b        adc     a,e
6823  14        inc     d
6824  53        ld      d,e
6825  f6a4      or      #a4
6827  3b        dec     sp
6828  f4c593    call    p,#93c5
682b  c5        push    bc
682c  b5        or      l
682d  4f        ld      c,a
682e  a1        and     c
682f  8b        adc     a,e
6830  b3        or      e
6831  5f        ld      e,a
6832  be        cp      (hl)
6833  45        ld      b,l
6834  13        inc     de
6835  ce60      adc     a,#60
6837  91        sub     c
6838  7a        ld      a,d
6839  2e00      ld      l,#00
683b  39        add     hl,sp
683c  63        ld      h,e
683d  be        cp      (hl)
683e  cbb5      res     6,l
6840  d6b5      sub     #b5
6842  db72      in      a,(#72)
6844  1b        dec     de
6845  54        ld      d,h
6846  af        xor     a
6847  91        sub     c
6848  91        sub     c
6849  af        xor     a
684a  96        sub     (hl)
684b  64        ld      h,h
684c  db72      in      a,(#72)
684e  89        adc     a,c
684f  73        ld      (hl),e
6850  12        ld      (de),a
6851  71        ld      (hl),c
6852  07        rlca    
6853  b2        or      d
6854  17        rla     
6855  ba        cp      d
6856  3b        dec     sp
6857  13        inc     de
6858  8d        adc     a,l
6859  48        ld      c,b
685a  3079      jr      nc,#68d5        ; (121)
685c  06bc      ld      b,#bc
685e  d9        exx     
685f  b0        or      b
6860  91        sub     c
6861  7a        ld      a,d
6862  c5        push    bc
6863  b5        or      l
6864  4f        ld      c,a
6865  a1        and     c
6866  c2b359    jp      nz,#59b3
6869  5e        ld      e,(hl)
686a  46        ld      b,(hl)
686b  48        ld      c,b
686c  5b        ld      e,e
686d  bb        cp      e
686e  90        sub     b
686f  14        inc     d
6870  3a15ef    ld      a,(#ef15)
6873  bf        cp      a
6874  2e92      ld      l,#92
6876  56        ld      d,(hl)
6877  db7a      in      a,(#7a)
6879  79        ld      a,c
687a  16bc      ld      d,#bc
687c  98        sbc     a,b
687d  c5        push    bc
687e  33        inc     sp
687f  61        ld      h,c
6880  e3        ex      (sp),hl
6881  8b        adc     a,e
6882  0b        dec     bc
6883  5c        ld      e,h
6884  b5        or      l
6885  d0        ret     nc

6886  9b        sbc     a,e
6887  c1        pop     bc
6888  d615      sub     #15
688a  49        ld      c,c
688b  16a5      ld      d,#a5
688d  9f        sbc     a,a
688e  43        ld      b,e
688f  16a3      ld      d,#a3
6891  85        add     a,l
6892  83        add     a,e
6893  17        rla     
6894  2e6d      ld      l,#6d
6896  63        ld      h,e
6897  17        rla     
6898  27        daa     
6899  c47fe3    call    nz,#e37f
689c  43        ld      b,e
689d  13        inc     de
689e  069a      ld      b,#9a
68a0  f472db    call    p,#db72
68a3  16d3      ld      d,#d3
68a5  b9        cp      c
68a6  9b        sbc     a,e
68a7  6c        ld      l,h
68a8  e3        ex      (sp),hl
68a9  8b        adc     a,e
68aa  0b        dec     bc
68ab  5c        ld      e,h
68ac  bf        cp      a
68ad  b7        or      a
68ae  00        nop     
68af  23        inc     hl
68b0  c7        rst     #0
68b1  de94      sbc     a,#94
68b3  14        inc     d
68b4  4b        ld      c,e
68b5  5e        ld      e,(hl)
68b6  96        sub     (hl)
68b7  96        sub     (hl)
68b8  db06      in      a,(#06)
68ba  3c        inc     a
68bb  00        nop     
68bc  00        nop     
68bd  69        ld      l,c
68be  72        ld      (hl),d
68bf  89        adc     a,c
68c0  73        ld      (hl),e
68c1  12        ld      (de),a
68c2  71        ld      (hl),c
68c3  07        rlca    
68c4  b2        or      d
68c5  f5        push    af
68c6  b9        cp      c
68c7  d6b5      sub     #b5
68c9  63        ld      h,e
68ca  b1        or      c
68cb  34        inc     (hl)
68cc  ba        cp      d
68cd  54        ld      d,h
68ce  5e        ld      e,(hl)
68cf  3f        ccf     
68d0  a0        and     b
68d1  43        ld      b,e
68d2  1604      ld      d,#04
68d4  bc        cp      h
68d5  43        ld      b,e
68d6  db87      in      a,(#87)
68d8  96        sub     (hl)
68d9  33        inc     sp
68da  62        ld      h,d
68db  49        ld      c,c
68dc  5e        ld      e,(hl)
68dd  67        ld      h,a
68de  b1        or      c
68df  83        add     a,e
68e0  99        sbc     a,c
68e1  2e6d      ld      l,#6d
68e3  3b        dec     sp
68e4  f45045    call    p,#4550
68e7  3c        inc     a
68e8  49        ld      c,c
68e9  6b        ld      l,e
68ea  a1        and     c
68eb  70        ld      (hl),b
68ec  c0        ret     nz

68ed  6e        ld      l,(hl)
68ee  98        sbc     a,b
68ef  3a158d    ld      a,(#8d15)
68f2  7b        ld      a,e
68f3  89        adc     a,c
68f4  17        rla     
68f5  82        add     a,d
68f6  17        rla     
68f7  47        ld      b,a
68f8  5e        ld      e,(hl)
68f9  66        ld      h,(hl)
68fa  49        ld      c,c
68fb  2e00      ld      l,#00
68fd  70        ld      (hl),b
68fe  c7        rst     #0
68ff  de94      sbc     a,#94
6901  14        inc     d
6902  43        ld      b,e
6903  5e        ld      e,(hl)
6904  16bc      ld      d,#bc
6906  db72      in      a,(#72)
6908  95        sub     l
6909  5f        ld      e,a
690a  07        rlca    
690b  bc        cp      h
690c  33        inc     sp
690d  98        sbc     a,b
690e  c39e5f    jp      #5f9e
6911  be        cp      (hl)
6912  91        sub     c
6913  17        rla     
6914  63        ld      h,e
6915  a0        and     b
6916  14        inc     d
6917  bc        cp      h
6918  3f        ccf     
6919  a0        and     b
691a  3b        dec     sp
691b  f45fbe    call    p,#be5f
691e  56        ld      d,(hl)
691f  15        dec     d
6920  44        ld      b,h
6921  a0        and     b
6922  9f        sbc     a,a
6923  15        dec     d
6924  5b        ld      e,e
6925  b1        or      c
6926  4b        ld      c,e
6927  7b        ld      a,e
6928  43        ld      b,e
6929  163f      ld      d,#3f
692b  c0        ret     nz

692c  66        ld      h,(hl)
692d  b1        or      c
692e  fb        ei      
692f  17        rla     
6930  53        ld      d,e
6931  be        cp      (hl)
6932  63        ld      h,e
6933  be        cp      (hl)
6934  94        sub     h
6935  96        sub     (hl)
6936  5d        ld      e,l
6937  9e        sbc     a,(hl)
6938  5e        ld      e,(hl)
6939  17        rla     
693a  bd        cp      l
693b  46        ld      b,(hl)
693c  19        add     hl,de
693d  ee85      xor     #85
693f  73        ld      (hl),e
6940  0f        rrca    
6941  71        ld      (hl),c
6942  17        rla     
6943  48        ld      c,b
6944  d615      sub     #15
6946  23        inc     hl
6947  15        dec     d
6948  bb        cp      e
6949  ba        cp      d
694a  6b        ld      l,e
694b  bf        cp      a
694c  f5        push    af
694d  59        ld      e,c
694e  b0        or      b
694f  53        ld      d,e
6950  1658      ld      d,#58
6952  f2728d    jp      p,#8d72
6955  7b        ld      a,e
6956  3b        dec     sp
6957  f45fbe    call    p,#be5f
695a  5b        ld      e,e
695b  b1        or      c
695c  4b        ld      c,e
695d  7b        ld      a,e
695e  52        ld      d,d
695f  45        ld      b,l
6960  82        add     a,d
6961  49        ld      c,c
6962  9f        sbc     a,a
6963  15        dec     d
6964  5b        ld      e,e
6965  b1        or      c
6966  92        sub     d
6967  50        ld      d,b
6968  65        ld      h,l
6969  49        ld      c,c
696a  91        sub     c
696b  7a        ld      a,d
696c  82        add     a,d
696d  17        rla     
696e  52        ld      d,d
696f  5e        ld      e,(hl)
6970  8d        adc     a,l
6971  7b        ld      a,e
6972  89        adc     a,c
6973  17        rla     
6974  e1        pop     hl
6975  14        inc     d
6976  cf        rst     #8
6977  99        sbc     a,c
6978  f3        di      
6979  55        ld      d,l
697a  3b        dec     sp
697b  13        inc     de
697c  3b        dec     sp
697d  13        inc     de
697e  55        ld      d,l
697f  a4        and     h
6980  09        add     hl,bc
6981  b7        or      a
6982  4b        ld      c,e
6983  62        ld      h,d
6984  95        sub     l
6985  5f        ld      e,a
6986  03        inc     bc
6987  bc        cp      h
6988  33        inc     sp
6989  98        sbc     a,b
698a  b5        or      l
698b  d0        ret     nc

698c  9b        sbc     a,e
698d  c1        pop     bc
698e  82        add     a,d
698f  17        rla     
6990  2f        cpl     
6991  62        ld      h,d
6992  94        sub     h
6993  14        inc     d
6994  4a        ld      c,d
6995  5e        ld      e,(hl)
6996  bf        cp      a
6997  9f        sbc     a,a
6998  c3b5f3    jp      #f3b5
699b  8c        adc     a,h
699c  4f        ld      c,a
699d  a1        and     c
699e  f3        di      
699f  b4        or      h
69a0  f64f      or      #4f
69a2  82        add     a,d
69a3  17        rla     
69a4  51        ld      d,c
69a5  5e        ld      e,(hl)
69a6  93        sub     e
69a7  99        sbc     a,c
69a8  b3        or      e
69a9  14        inc     d
69aa  d1        pop     de
69ab  6a        ld      l,d
69ac  5b        ld      e,e
69ad  98        sbc     a,b
69ae  4b        ld      c,e
69af  7b        ld      a,e
69b0  03        inc     bc
69b1  a0        and     b
69b2  5f        ld      e,a
69b3  be        cp      (hl)
69b4  f3        di      
69b5  17        rla     
69b6  f3        di      
69b7  8c        adc     a,h
69b8  94        sub     h
69b9  5a        ld      e,d
69ba  e65f      and     #5f
69bc  fb        ei      
69bd  8e        adc     a,(hl)
69be  9f        sbc     a,a
69bf  3c        inc     a
69c0  00        nop     
69c1  00        nop     
69c2  6a        ld      l,d
69c3  4f        ld      c,a
69c4  a1        and     c
69c5  96        sub     (hl)
69c6  af        xor     a
69c7  db72      in      a,(#72)
69c9  b5        or      l
69ca  d0        ret     nc

69cb  12        ld      (de),a
69cc  bc        cp      h
69cd  73        ld      (hl),e
69ce  7b        ld      a,e
69cf  1f        rra     
69d0  d1        pop     de
69d1  5b        ld      e,e
69d2  b1        or      c
69d3  c7        rst     #0
69d4  de3b      sbc     a,#3b
69d6  13        inc     de
69d7  45        ld      b,l
69d8  13        inc     de
69d9  85        add     a,l
69da  48        ld      c,b
69db  09        add     hl,bc
69dc  bc        cp      h
69dd  73        ld      (hl),e
69de  62        ld      h,d
69df  6b        ld      l,e
69e0  bf        cp      a
69e1  97        sub     a
69e2  7b        ld      a,e
69e3  00        nop     
69e4  14        inc     d
69e5  c7        rst     #0
69e6  de94      sbc     a,#94
69e8  14        inc     d
69e9  43        ld      b,e
69ea  5e        ld      e,(hl)
69eb  16bc      ld      d,#bc
69ed  db72      in      a,(#72)
69ef  064f      ld      b,#4f
69f1  7f        ld      a,a
69f2  bf        cp      a
69f3  b8        cp      b
69f4  1682      ld      d,#82
69f6  17        rla     
69f7  47        ld      b,a
69f8  5e        ld      e,(hl)
69f9  66        ld      h,(hl)
69fa  49        ld      c,c
69fb  3862      jr      c,#6a5f         ; (98)
69fd  e3        ex      (sp),hl
69fe  160b      ld      d,#0b
6a00  bc        cp      h
6a01  96        sub     (hl)
6a02  96        sub     (hl)
6a03  db72      in      a,(#72)
6a05  c1        pop     bc
6a06  c0        ret     nz

6a07  96        sub     (hl)
6a08  a5        and     l
6a09  39        add     hl,sp
6a0a  17        rla     
6a0b  ff        rst     #38
6a0c  9f        sbc     a,a
6a0d  00        nop     
6a0e  27        daa     
6a0f  c7        rst     #0
6a10  de94      sbc     a,#94
6a12  14        inc     d
6a13  43        ld      b,e
6a14  5e        ld      e,(hl)
6a15  16bc      ld      d,#bc
6a17  db72      in      a,(#72)
6a19  b5        or      l
6a1a  d0        ret     nc

6a1b  07        rlca    
6a1c  bc        cp      h
6a1d  33        inc     sp
6a1e  98        sbc     a,b
6a1f  c39e5f    jp      #5f9e
6a22  be        cp      (hl)
6a23  91        sub     c
6a24  17        rla     
6a25  63        ld      h,e
6a26  a0        and     b
6a27  14        inc     d
6a28  bc        cp      h
6a29  3f        ccf     
6a2a  a0        and     b
6a2b  3b        dec     sp
6a2c  f45fbe    call    p,#be5f
6a2f  5b        ld      e,e
6a30  b1        or      c
6a31  4b        ld      c,e
6a32  7b        ld      a,e
6a33  4e        ld      c,(hl)
6a34  45        ld      b,l
6a35  31493b    ld      sp,#3b49
6a38  5e        ld      e,(hl)
6a39  a9        xor     c
6a3a  15        dec     d
6a3b  db8b      in      a,(#8b)
6a3d  83        add     a,e
6a3e  7a        ld      a,d
6a3f  5f        ld      e,a
6a40  be        cp      (hl)
6a41  f3        di      
6a42  17        rla     
6a43  f3        di      
6a44  8c        adc     a,h
6a45  b9        cp      c
6a46  46        ld      b,(hl)
6a47  5b        ld      e,e
6a48  ca5fbe    jp      z,#be5f
6a4b  e3        ex      (sp),hl
6a4c  1603      ld      d,#03
6a4e  bc        cp      h
6a4f  16bc      ld      d,#bc
6a51  95        sub     l
6a52  73        ld      (hl),e
6a53  3015      jr      nc,#6a6a        ; (21)
6a55  115896    ld      de,#9658
6a58  64        ld      h,h
6a59  db72      in      a,(#72)
6a5b  01b34d    ld      bc,#4db3
6a5e  2e00      ld      l,#00
6a60  29        add     hl,hl
6a61  c7        rst     #0
6a62  de94      sbc     a,#94
6a64  14        inc     d
6a65  43        ld      b,e
6a66  5e        ld      e,(hl)
6a67  16bc      ld      d,#bc
6a69  db72      in      a,(#72)
6a6b  064f      ld      b,#4f
6a6d  7f        ld      a,a
6a6e  bf        cp      a
6a6f  b8        cp      b
6a70  1682      ld      d,#82
6a72  17        rla     
6a73  59        ld      e,c
6a74  5e        ld      e,(hl)
6a75  66        ld      h,(hl)
6a76  62        ld      h,d
6a77  e3        ex      (sp),hl
6a78  160b      ld      d,#0b
6a7a  bc        cp      h
6a7b  96        sub     (hl)
6a7c  96        sub     (hl)
6a7d  db72      in      a,(#72)
6a7f  c1        pop     bc
6a80  c0        ret     nz

6a81  96        sub     (hl)
6a82  a5        and     l
6a83  39        add     hl,sp
6a84  17        rla     
6a85  ff        rst     #38
6a86  9f        sbc     a,a
6a87  56        ld      d,(hl)
6a88  13        inc     de
6a89  f472d5    call    p,#d572
6a8c  60        ld      h,b
6a8d  7b        ld      a,e
6a8e  14        inc     d
6a8f  54        ld      d,h
6a90  8b        adc     a,e
6a91  9b        sbc     a,e
6a92  6c        ld      l,h
6a93  7e        ld      a,(hl)
6a94  74        ld      (hl),h
6a95  4b        ld      c,e
6a96  5e        ld      e,(hl)
6a97  96        sub     (hl)
6a98  96        sub     (hl)
6a99  db72      in      a,(#72)
6a9b  0ed0      ld      c,#d0
6a9d  03        inc     bc
6a9e  8a        adc     a,d
6a9f  07        rlca    
6aa0  4f        ld      c,a
6aa1  16bc      ld      d,#bc
6aa3  b0        or      b
6aa4  d0        ret     nc

6aa5  fb        ei      
6aa6  c0        ret     nz

6aa7  1867      jr      #6b10           ; (103)
6aa9  48        ld      c,b
6aaa  5e        ld      e,(hl)
6aab  3660      ld      (hl),#60
6aad  84        add     a,h
6aae  14        inc     d
6aaf  4f        ld      c,a
6ab0  a1        and     c
6ab1  51        ld      d,c
6ab2  1855      jr      #6b09           ; (85)
6ab4  2e00      ld      l,#00
6ab6  33        inc     sp
6ab7  c7        rst     #0
6ab8  de94      sbc     a,#94
6aba  14        inc     d
6abb  4b        ld      c,e
6abc  5e        ld      e,(hl)
6abd  83        add     a,e
6abe  96        sub     (hl)
6abf  49        ld      c,c
6ac0  16ce      ld      d,#ce
6ac2  98        sbc     a,b
6ac3  c7        rst     #0
6ac4  3c        inc     a
6ac5  00        nop     
6ac6  00        nop     
6ac7  6b        ld      l,e
6ac8  8b        adc     a,e
6ac9  1679      ld      d,#79
6acb  b3        or      e
6acc  c5        push    bc
6acd  cebc      adc     a,#bc
6acf  a0        and     b
6ad0  09        add     hl,bc
6ad1  79        ld      a,c
6ad2  95        sub     l
6ad3  af        xor     a
6ad4  ef        rst     #28
6ad5  bf        cp      a
6ad6  9a        sbc     a,d
6ad7  bd        cp      l
6ad8  91        sub     c
6ad9  7a        ld      a,d
6ada  c7        rst     #0
6adb  1611      ld      d,#11
6add  bc        cp      h
6ade  95        sub     l
6adf  64        ld      h,h
6ae0  7a        ld      a,d
6ae1  79        ld      a,c
6ae2  16bc      ld      d,#bc
6ae4  bb        cp      e
6ae5  9c        sbc     a,h
6ae6  82        add     a,d
6ae7  17        rla     
6ae8  59        ld      e,c
6ae9  5e        ld      e,(hl)
6aea  66        ld      h,(hl)
6aeb  62        ld      h,d
6aec  3b        dec     sp
6aed  f47349    call    p,#4973
6af0  5f        ld      e,a
6af1  be        cp      (hl)
6af2  23        inc     hl
6af3  15        dec     d
6af4  ff        rst     #38
6af5  b9        cp      c
6af6  c3b28e    jp      #8eb2
6af9  61        ld      h,c
6afa  d5        push    de
6afb  15        dec     d
6afc  7b        ld      a,e
6afd  14        inc     d
6afe  7e        ld      a,(hl)
6aff  74        ld      (hl),h
6b00  56        ld      d,(hl)
6b01  5e        ld      e,(hl)
6b02  f9        ld      sp,hl
6b03  74        ld      (hl),h
6b04  7a        ld      a,d
6b05  c4fa17    call    nz,#17fa
6b08  da7851    jp      c,#5178
6b0b  1845      jr      #6b52           ; (69)
6b0d  c28348    jp      nz,#4883
6b10  55        ld      d,l
6b11  13        inc     de
6b12  1b        dec     de
6b13  60        ld      h,b
6b14  52        ld      d,d
6b15  45        ld      b,l
6b16  f8        ret     m

6b17  b2        or      d
6b18  5b        ld      e,e
6b19  c603      add     a,#03
6b1b  a0        and     b
6b1c  c39ee3    jp      #e39e
6b1f  8b        adc     a,e
6b20  75        ld      (hl),l
6b21  ca2e00    jp      z,#002e
6b24  29        add     hl,hl
6b25  c7        rst     #0
6b26  de94      sbc     a,#94
6b28  14        inc     d
6b29  4b        ld      c,e
6b2a  5e        ld      e,(hl)
6b2b  96        sub     (hl)
6b2c  96        sub     (hl)
6b2d  db72      in      a,(#72)
6b2f  1b        dec     de
6b30  54        ld      d,h
6b31  af        xor     a
6b32  91        sub     c
6b33  91        sub     c
6b34  af        xor     a
6b35  91        sub     c
6b36  64        ld      h,h
6b37  54        ld      d,h
6b38  b8        cp      b
6b39  6f        ld      l,a
6b3a  7b        ld      a,e
6b3b  82        add     a,d
6b3c  17        rla     
6b3d  45        ld      b,l
6b3e  5e        ld      e,(hl)
6b3f  ce60      adc     a,#60
6b41  91        sub     c
6b42  7a        ld      a,d
6b43  d5        push    de
6b44  15        dec     d
6b45  89        adc     a,c
6b46  17        rla     
6b47  ca9c7a    jp      z,#7a9c
6b4a  79        ld      a,c
6b4b  b2        or      d
6b4c  17        rla     
6b4d  59        ld      e,c
6b4e  15        dec     d
6b4f  91        sub     c
6b50  b4        or      h
6b51  23        inc     hl
6b52  c64f      add     a,#4f
6b54  8b        adc     a,e
6b55  16a3      ld      d,#a3
6b57  d5        push    de
6b58  9c        sbc     a,h
6b59  89        adc     a,c
6b5a  74        ld      (hl),h
6b5b  d615      sub     #15
6b5d  3b        dec     sp
6b5e  f455a4    call    p,#a455
6b61  09        add     hl,bc
6b62  b7        or      a
6b63  4b        ld      c,e
6b64  62        ld      h,d
6b65  e3        ex      (sp),hl
6b66  8b        adc     a,e
6b67  07        rlca    
6b68  58        ld      e,b
6b69  66        ld      h,(hl)
6b6a  49        ld      c,c
6b6b  10ee      djnz    #6b5b           ; (-18)
6b6d  be        cp      (hl)
6b6e  a0        and     b
6b6f  73        ld      (hl),e
6b70  76        halt    
6b71  8e        adc     a,(hl)
6b72  48        ld      c,b
6b73  61        ld      h,c
6b74  17        rla     
6b75  82        add     a,d
6b76  c62e      add     a,#2e
6b78  00        nop     
6b79  0f        rrca    
6b7a  5f        ld      e,a
6b7b  be        cp      (hl)
6b7c  db16      in      a,(#16)
6b7e  d3b9      out     (#b9),a
6b80  9b        sbc     a,e
6b81  6c        ld      l,h
6b82  f4724b    call    p,#4b72
6b85  5e        ld      e,(hl)
6b86  c4b575    call    nz,#75b5
6b89  8d        adc     a,l
6b8a  a6        and     (hl)
6b8b  85        add     a,l
6b8c  c3147b    jp      #7b14
6b8f  14        inc     d
6b90  ce65      adc     a,#65
6b92  f0        ret     p

6b93  8b        adc     a,e
6b94  b6        or      (hl)
6b95  14        inc     d
6b96  5d        ld      e,l
6b97  9e        sbc     a,(hl)
6b98  2e00      ld      l,#00
6b9a  2c        inc     l
6b9b  c7        rst     #0
6b9c  de94      sbc     a,#94
6b9e  14        inc     d
6b9f  4b        ld      c,e
6ba0  5e        ld      e,(hl)
6ba1  96        sub     (hl)
6ba2  96        sub     (hl)
6ba3  db72      in      a,(#72)
6ba5  1b        dec     de
6ba6  54        ld      d,h
6ba7  af        xor     a
6ba8  91        sub     c
6ba9  91        sub     c
6baa  af        xor     a
6bab  90        sub     b
6bac  64        ld      h,h
6bad  1a        ld      a,(de)
6bae  61        ld      h,c
6baf  af        xor     a
6bb0  5f        ld      e,a
6bb1  73        ld      (hl),e
6bb2  c1        pop     bc
6bb3  59        ld      e,c
6bb4  45        ld      b,l
6bb5  e3        ex      (sp),hl
6bb6  9f        sbc     a,a
6bb7  99        sbc     a,c
6bb8  96        sub     (hl)
6bb9  82        add     a,d
6bba  7b        ld      a,e
6bbb  82        add     a,d
6bbc  17        rla     
6bbd  4a        ld      c,d
6bbe  5e        ld      e,(hl)
6bbf  86        add     a,(hl)
6bc0  5f        ld      e,a
6bc1  b8        cp      b
6bc2  167b      ld      d,#7b
6bc4  14        inc     d
6bc5  df        rst     #18
6bc6  17        rla     
6bc7  4f        ld      c,a
6bc8  ac        xor     h
6bc9  3c        inc     a
6bca  00        nop     
6bcb  00        nop     
6bcc  6c        ld      l,h
6bcd  8e        adc     a,(hl)
6bce  7e        ld      a,(hl)
6bcf  b1        or      c
6bd0  f7        rst     #30
6bd1  17        rla     
6bd2  33        inc     sp
6bd3  49        ld      c,c
6bd4  ab        xor     e
6bd5  98        sbc     a,b
6bd6  5f        ld      e,a
6bd7  be        cp      (hl)
6bd8  e41480    call    po,#8014
6bdb  a1        and     c
6bdc  b8        cp      b
6bdd  1629      ld      d,#29
6bdf  15        dec     d
6be0  eede      xor     #de
6be2  3b        dec     sp
6be3  f45245    call    p,#4552
6be6  65        ld      h,l
6be7  49        ld      c,c
6be8  77        ld      (hl),a
6be9  47        ld      b,a
6bea  3a158d    ld      a,(#8d15)
6bed  7b        ld      a,e
6bee  89        adc     a,c
6bef  17        rla     
6bf0  82        add     a,d
6bf1  17        rla     
6bf2  3b        dec     sp
6bf3  5e        ld      e,(hl)
6bf4  55        ld      d,l
6bf5  13        inc     de
6bf6  36a1      ld      (hl),#a1
6bf8  48        ld      c,b
6bf9  2e00      ld      l,#00
6bfb  0b        dec     bc
6bfc  5f        ld      e,a
6bfd  be        cp      (hl)
6bfe  5b        ld      e,e
6bff  b1        or      c
6c00  4b        ld      c,e
6c01  7b        ld      a,e
6c02  55        ld      d,l
6c03  45        ld      b,l
6c04  90        sub     b
6c05  73        ld      (hl),e
6c06  44        ld      b,h
6c07  dbd5      in      a,(#d5)
6c09  b0        or      b
6c0a  ceb5      adc     a,#b5
6c0c  72        ld      (hl),d
6c0d  48        ld      c,b
6c0e  8f        adc     a,a
6c0f  162c      ld      d,#2c
6c11  49        ld      c,c
6c12  59        ld      e,c
6c13  2e00      ld      l,#00
6c15  04        inc     b
6c16  6b        ld      l,e
6c17  4f        ld      c,a
6c18  cbb9      res     7,c
6c1a  50        ld      d,b
6c1b  8b        adc     a,e
6c1c  f4bd4e    call    p,#4ebd
6c1f  00        nop     
6c20  0a        ld      a,(bc)
6c21  5f        ld      e,a
6c22  be        cp      (hl)
6c23  5b        ld      e,e
6c24  b1        or      c
6c25  4b        ld      c,e
6c26  7b        ld      a,e
6c27  4e        ld      c,(hl)
6c28  45        ld      b,l
6c29  72        ld      (hl),d
6c2a  48        ld      c,b
6c2b  5a        ld      e,d
6c2c  17        rla     
6c2d  93        sub     e
6c2e  7a        ld      a,d
6c2f  ab        xor     e
6c30  98        sbc     a,b
6c31  63        ld      h,e
6c32  98        sbc     a,b
6c33  03        inc     bc
6c34  b1        or      c
6c35  2e00      ld      l,#00
6c37  04        inc     b
6c38  6b        ld      l,e
6c39  4f        ld      c,a
6c3a  cbb9      res     7,c
6c3c  50        ld      d,b
6c3d  8b        adc     a,e
6c3e  f4bd4e    call    p,#4ebd
6c41  00        nop     
6c42  0f        rrca    
6c43  5f        ld      e,a
6c44  be        cp      (hl)
6c45  5b        ld      e,e
6c46  b1        or      c
6c47  4b        ld      c,e
6c48  7b        ld      a,e
6c49  55        ld      d,l
6c4a  45        ld      b,l
6c4b  8e        adc     a,(hl)
6c4c  91        sub     c
6c4d  15        dec     d
6c4e  8a        adc     a,d
6c4f  56        ld      d,(hl)
6c50  bd        cp      l
6c51  1b        dec     de
6c52  c40a4f    call    nz,#4f0a
6c55  03        inc     bc
6c56  15        dec     d
6c57  53        ld      d,e
6c58  b7        or      a
6c59  3f        ccf     
6c5a  b1        or      c
6c5b  1058      djnz    #6cb5           ; (88)
6c5d  94        sub     h
6c5e  5f        ld      e,a
6c5f  9f        sbc     a,a
6c60  50        ld      d,b
6c61  00        nop     
6c62  03        inc     bc
6c63  fb        ei      
6c64  b9        cp      c
6c65  67        ld      h,a
6c66  c0        ret     nz

6c67  b9        cp      c
6c68  14        inc     d
6c69  58        ld      e,b
6c6a  00        nop     
6c6b  12        ld      (de),a
6c6c  56        ld      d,(hl)
6c6d  45        ld      b,l
6c6e  ef        rst     #28
6c6f  74        ld      (hl),h
6c70  48        ld      c,b
6c71  5e        ld      e,(hl)
6c72  46        ld      b,(hl)
6c73  a0        and     b
6c74  55        ld      d,l
6c75  17        rla     
6c76  ee61      xor     #61
6c78  23        inc     hl
6c79  62        ld      h,d
6c7a  56        ld      d,(hl)
6c7b  d1        pop     de
6c7c  03        inc     bc
6c7d  71        ld      (hl),c
6c7e  83        add     a,e
6c7f  96        sub     (hl)
6c80  5a        ld      e,d
6c81  99        sbc     a,c
6c82  c0        ret     nz

6c83  1690      ld      d,#90
6c85  14        inc     d
6c86  3015      jr      nc,#6c9d        ; (21)
6c88  0e58      ld      c,#58
6c8a  35        dec     (hl)
6c8b  79        ld      a,c
6c8c  8f        adc     a,a
6c8d  162c      ld      d,#2c
6c8f  49        ld      c,c
6c90  59        ld      e,c
6c91  2e00      ld      l,#00
6c93  02        ld      (bc),a
6c94  57        ld      d,a
6c95  b7        or      a
6c96  3f        ccf     
6c97  a7        and     a
6c98  52        ld      d,d
6c99  00        nop     
6c9a  0d        dec     c
6c9b  55        ld      d,l
6c9c  45        ld      b,l
6c9d  56        ld      d,(hl)
6c9e  bd        cp      l
6c9f  1b        dec     de
6ca0  c4c39e    call    nz,#9ec3
6ca3  5f        ld      e,a
6ca4  be        cp      (hl)
6ca5  b3        or      e
6ca6  14        inc     d
6ca7  33        inc     sp
6ca8  b1        or      c
6ca9  366e      ld      (hl),#6e
6cab  d5        push    de
6cac  15        dec     d
6cad  5b        ld      e,e
6cae  17        rla     
6caf  43        ld      b,e
6cb0  c0        ret     nz

6cb1  ab        xor     e
6cb2  98        sbc     a,b
6cb3  f47245    call    p,#4572
6cb6  2e00      ld      l,#00
6cb8  0b        dec     bc
6cb9  5f        ld      e,a
6cba  be        cp      (hl)
6cbb  5b        ld      e,e
6cbc  b1        or      c
6cbd  4b        ld      c,e
6cbe  7b        ld      a,e
6cbf  44        ld      b,h
6cc0  45        ld      b,l
6cc1  2e7b      ld      l,#7b
6cc3  66        ld      h,(hl)
6cc4  17        rla     
6cc5  8f        adc     a,a
6cc6  49        ld      c,c
6cc7  4b        ld      c,e
6cc8  5e        ld      e,(hl)
6cc9  96        sub     (hl)
6cca  96        sub     (hl)
6ccb  db72      in      a,(#72)
6ccd  0c        inc     c
6cce  3c        inc     a
6ccf  00        nop     
6cd0  00        nop     
6cd1  6d        ld      l,l
6cd2  0a        ld      a,(bc)
6cd3  4f        ld      c,a
6cd4  2e00      ld      l,#00
6cd6  0614      ld      b,#14
6cd8  4e        ld      c,(hl)
6cd9  15        dec     d
6cda  58        ld      e,b
6cdb  56        ld      d,(hl)
6cdc  bd        cp      l
6cdd  1b        dec     de
6cde  c4837a    call    nz,#7a83
6ce1  0a        ld      a,(bc)
6ce2  4f        ld      c,a
6ce3  00        nop     
6ce4  0d        dec     c
6ce5  55        ld      d,l
6ce6  45        ld      b,l
6ce7  8e        adc     a,(hl)
6ce8  91        sub     c
6ce9  188a      jr      #6c75           ; (-118)
6ceb  50        ld      d,b
6cec  61        ld      h,c
6ced  73        ld      (hl),e
6cee  62        ld      h,d
6cef  8e        adc     a,(hl)
6cf0  a5        and     l
6cf1  89        adc     a,c
6cf2  8d        adc     a,l
6cf3  43        ld      b,e
6cf4  164b      ld      d,#4b
6cf6  62        ld      h,d
6cf7  03        inc     bc
6cf8  a0        and     b
6cf9  5f        ld      e,a
6cfa  be        cp      (hl)
6cfb  56        ld      d,(hl)
6cfc  15        dec     d
6cfd  44        ld      b,h
6cfe  a0        and     b
6cff  2e00      ld      l,#00
6d01  04        inc     b
6d02  6e        ld      l,(hl)
6d03  ca76ca    jp      z,#ca76
6d06  e3        ex      (sp),hl
6d07  1609      ld      d,#09
6d09  8d        adc     a,l
6d0a  57        ld      d,a
6d0b  00        nop     
6d0c  0d        dec     c
6d0d  4a        ld      c,d
6d0e  45        ld      b,l
6d0f  77        ld      (hl),a
6d10  c48415    call    nz,#1584
6d13  3060      jr      nc,#6d75        ; (96)
6d15  53        ld      d,e
6d16  15        dec     d
6d17  2d        dec     l
6d18  62        ld      h,d
6d19  55        ld      d,l
6d1a  5e        ld      e,(hl)
6d1b  3a629e    ld      a,(#9e62)
6d1e  61        ld      h,c
6d1f  ab        xor     e
6d20  14        inc     d
6d21  8b        adc     a,e
6d22  b3        or      e
6d23  5f        ld      e,a
6d24  be        cp      (hl)
6d25  f3        di      
6d26  17        rla     
6d27  59        ld      e,c
6d28  21000e    ld      hl,#0e00
6d2b  55        ld      d,l
6d2c  45        ld      b,l
6d2d  80        add     a,b
6d2e  bf        cp      a
6d2f  44        ld      b,h
6d30  5e        ld      e,(hl)
6d31  06b2      ld      b,#b2
6d33  9b        sbc     a,e
6d34  6c        ld      l,h
6d35  09        add     hl,bc
6d36  9a        sbc     a,d
6d37  62        ld      h,d
6d38  17        rla     
6d39  9d        sbc     a,l
6d3a  48        ld      c,b
6d3b  82        add     a,d
6d3c  17        rla     
6d3d  44        ld      b,h
6d3e  5e        ld      e,(hl)
6d3f  0ea1      ld      c,#a1
6d41  ee9f      xor     #9f
6d43  65        ld      h,l
6d44  62        ld      h,d
6d45  e3        ex      (sp),hl
6d46  1654      ld      d,#54
6d48  2e00      ld      l,#00
6d4a  13        inc     de
6d4b  5f        ld      e,a
6d4c  be        cp      (hl)
6d4d  5b        ld      e,e
6d4e  b1        or      c
6d4f  4b        ld      c,e
6d50  7b        ld      a,e
6d51  55        ld      d,l
6d52  45        ld      b,l
6d53  2d        dec     l
6d54  49        ld      c,c
6d55  62        ld      h,d
6d56  a0        and     b
6d57  87        add     a,a
6d58  47        ld      b,a
6d59  cab52f    jp      z,#2fb5
6d5c  62        ld      h,d
6d5d  fb        ei      
6d5e  17        rla     
6d5f  53        ld      d,e
6d60  be        cp      (hl)
6d61  75        ld      (hl),l
6d62  7b        ld      a,e
6d63  c5        push    bc
6d64  b5        or      l
6d65  4f        ld      c,a
6d66  a1        and     c
6d67  96        sub     (hl)
6d68  af        xor     a
6d69  7a        ld      a,d
6d6a  79        ld      a,c
6d6b  13        inc     de
6d6c  bf        cp      a
6d6d  de14      sbc     a,#14
6d6f  d7        rst     #10
6d70  a0        and     b
6d71  44        ld      b,h
6d72  2e00      ld      l,#00
6d74  0614      ld      b,#14
6d76  b7        or      a
6d77  42        ld      b,d
6d78  55        ld      d,l
6d79  49        ld      c,c
6d7a  72        ld      (hl),d
6d7b  4b        ld      c,e
6d7c  c684      add     a,#84
6d7e  2e10      ld      l,#10
6d80  9e        sbc     a,(hl)
6d81  3c        inc     a
6d82  00        nop     
6d83  15        dec     d
6d84  5f        ld      e,a
6d85  be        cp      (hl)
6d86  5b        ld      e,e
6d87  b1        or      c
6d88  2f        cpl     
6d89  49        ld      c,c
6d8a  7b        ld      a,e
6d8b  14        inc     d
6d8c  79        ld      a,c
6d8d  66        ld      h,(hl)
6d8e  2f        cpl     
6d8f  17        rla     
6d90  b0        or      b
6d91  53        ld      d,e
6d92  0b        dec     bc
6d93  bc        cp      h
6d94  e7        rst     #20
6d95  b9        cp      c
6d96  4b        ld      c,e
6d97  62        ld      h,d
6d98  c39e69    jp      #699e
6d9b  1b        dec     de
6d9c  eede      xor     #de
6d9e  90        sub     b
6d9f  78        ld      a,b
6da0  f7        rst     #30
6da1  17        rla     
6da2  1e61      ld      e,#61
6da4  63        ld      h,e
6da5  db89      in      a,(#89)
6da7  91        sub     c
6da8  73        ld      (hl),e
6da9  4a        ld      c,d
6daa  5b        ld      e,e
6dab  98        sbc     a,b
6dac  f47245    call    p,#4572
6daf  00        nop     
6db0  05        dec     b
6db1  69        ld      l,c
6db2  1b        dec     de
6db3  eede      xor     #de
6db5  90        sub     b
6db6  78        ld      a,b
6db7  f7        rst     #30
6db8  17        rla     
6db9  1e61      ld      e,#61
6dbb  59        ld      e,c
6dbc  220006    ld      (#0600),hl
6dbf  5f        ld      e,a
6dc0  be        cp      (hl)
6dc1  5b        ld      e,e
6dc2  b1        or      c
6dc3  4b        ld      c,e
6dc4  7b        ld      a,e
6dc5  01680a    ld      bc,#0a68
6dc8  58        ld      e,b
6dc9  2f        cpl     
6dca  62        ld      h,d
6dcb  2e00      ld      l,#00
6dcd  03        inc     bc
6dce  55        ld      d,l
6dcf  bd        cp      l
6dd0  fb        ei      
6dd1  c0        ret     nz

6dd2  24        inc     h
6dd3  3c        inc     a
6dd4  00        nop     
6dd5  00        nop     
6dd6  6e        ld      l,(hl)
6dd7  016844    ld      bc,#4468
6dda  00        nop     
6ddb  07        rlca    
6ddc  5f        ld      e,a
6ddd  be        cp      (hl)
6dde  5b        ld      e,e
6ddf  b1        or      c
6de0  4b        ld      c,e
6de1  7b        ld      a,e
6de2  44        ld      b,h
6de3  45        ld      b,l
6de4  0ea1      ld      c,#a1
6de6  db8b      in      a,(#8b)
6de8  f47245    call    p,#4572
6deb  2e00      ld      l,#00
6ded  04        inc     b
6dee  e3        ex      (sp),hl
6def  b8        cp      b
6df0  f3        di      
6df1  8c        adc     a,h
6df2  064f      ld      b,#4f
6df4  ff        rst     #38
6df5  be        cp      (hl)
6df6  00        nop     
6df7  09        add     hl,bc
6df8  5f        ld      e,a
6df9  be        cp      (hl)
6dfa  5b        ld      e,e
6dfb  b1        or      c
6dfc  4b        ld      c,e
6dfd  7b        ld      a,e
6dfe  16d0      ld      d,#d0
6e00  23        inc     hl
6e01  62        ld      h,d
6e02  83        add     a,e
6e03  7a        ld      a,d
6e04  5f        ld      e,a
6e05  be        cp      (hl)
6e06  b9        cp      c
6e07  14        inc     d
6e08  46        ld      b,(hl)
6e09  c0        ret     nz

6e0a  45        ld      b,l
6e0b  2e00      ld      l,#00
6e0d  0616      ld      b,#16
6e0f  d0        ret     nc

6e10  23        inc     hl
6e11  62        ld      h,d
6e12  83        add     a,e
6e13  7a        ld      a,d
6e14  5f        ld      e,a
6e15  be        cp      (hl)
6e16  b9        cp      c
6e17  14        inc     d
6e18  46        ld      b,(hl)
6e19  c0        ret     nz

6e1a  45        ld      b,l
6e1b  00        nop     
6e1c  15        dec     d
6e1d  5f        ld      e,a
6e1e  be        cp      (hl)
6e1f  5b        ld      e,e
6e20  b1        or      c
6e21  4b        ld      c,e
6e22  7b        ld      a,e
6e23  56        ld      d,(hl)
6e24  45        ld      b,l
6e25  a3        and     e
6e26  7a        ld      a,d
6e27  e616      and     #16
6e29  9e        sbc     a,(hl)
6e2a  48        ld      c,b
6e2b  d0        ret     nc

6e2c  15        dec     d
6e2d  82        add     a,d
6e2e  17        rla     
6e2f  52        ld      d,d
6e30  5e        ld      e,(hl)
6e31  96        sub     (hl)
6e32  7b        ld      a,e
6e33  77        ld      (hl),a
6e34  16b7      ld      d,#b7
6e36  b2        or      d
6e37  10b2      djnz    #6deb           ; (-78)
6e39  bc        cp      h
6e3a  6a        ld      l,d
6e3b  16d0      ld      d,#d0
6e3d  46        ld      b,(hl)
6e3e  62        ld      h,d
6e3f  f3        di      
6e40  17        rla     
6e41  f4bd1f    call    p,#1fbd
6e44  eedc      xor     #dc
6e46  f9        ld      sp,hl
6e47  00        nop     
6e48  1f        rra     
6e49  5f        ld      e,a
6e4a  be        cp      (hl)
6e4b  5b        ld      e,e
6e4c  b1        or      c
6e4d  4b        ld      c,e
6e4e  7b        ld      a,e
6e4f  56        ld      d,(hl)
6e50  45        ld      b,l
6e51  ae        xor     (hl)
6e52  d0        ret     nc

6e53  5b        ld      e,e
6e54  ca0168    jp      z,#6801
6e57  04        inc     b
6e58  bc        cp      h
6e59  90        sub     b
6e5a  5f        ld      e,a
6e5b  66        ld      h,(hl)
6e5c  17        rla     
6e5d  45        ld      b,l
6e5e  48        ld      c,b
6e5f  66        ld      h,(hl)
6e60  17        rla     
6e61  76        halt    
6e62  b1        or      c
6e63  23        inc     hl
6e64  54        ld      d,h
6e65  ab        xor     e
6e66  98        sbc     a,b
6e67  d3c5      out     (#c5),a
6e69  36a1      ld      (hl),#a1
6e6b  b8        cp      b
6e6c  1682      ld      d,#82
6e6e  17        rla     
6e6f  52        ld      d,d
6e70  5e        ld      e,(hl)
6e71  96        sub     (hl)
6e72  7b        ld      a,e
6e73  af        xor     a
6e74  14        inc     d
6e75  09        add     hl,bc
6e76  8d        adc     a,l
6e77  50        ld      d,b
6e78  d1        pop     de
6e79  bc        cp      h
6e7a  6a        ld      l,d
6e7b  16d0      ld      d,#d0
6e7d  47        ld      b,a
6e7e  62        ld      h,d
6e7f  dbf9      in      a,(#f9)
6e81  16d0      ld      d,#d0
6e83  47        ld      b,a
6e84  62        ld      h,d
6e85  dcf900    call    c,#00f9
6e88  17        rla     
6e89  5f        ld      e,a
6e8a  be        cp      (hl)
6e8b  5b        ld      e,e
6e8c  b1        or      c
6e8d  4b        ld      c,e
6e8e  7b        ld      a,e
6e8f  49        ld      c,c
6e90  45        ld      b,l
6e91  73        ld      (hl),e
6e92  79        ld      a,c
6e93  c39ac4    jp      #c49a
6e96  51        ld      d,c
6e97  90        sub     b
6e98  5f        ld      e,a
6e99  66        ld      h,(hl)
6e9a  17        rla     
6e9b  45        ld      b,l
6e9c  48        ld      c,b
6e9d  66        ld      h,(hl)
6e9e  17        rla     
6e9f  76        halt    
6ea0  b1        or      c
6ea1  23        inc     hl
6ea2  54        ld      d,h
6ea3  ab        xor     e
6ea4  98        sbc     a,b
6ea5  46        ld      b,(hl)
6ea6  48        ld      c,b
6ea7  82        add     a,d
6ea8  17        rla     
6ea9  59        ld      e,c
6eaa  5e        ld      e,(hl)
6eab  3b        dec     sp
6eac  4a        ld      c,d
6ead  d3c5      out     (#c5),a
6eaf  6b        ld      l,e
6eb0  bf        cp      a
6eb1  5f        ld      e,a
6eb2  be        cp      (hl)
6eb3  a9        xor     c
6eb4  15        dec     d
6eb5  ff        rst     #38
6eb6  8b        adc     a,e
6eb7  00        nop     
6eb8  265f      ld      h,#5f
6eba  be        cp      (hl)
6ebb  5b        ld      e,e
6ebc  b1        or      c
6ebd  4b        ld      c,e
6ebe  7b        ld      a,e
6ebf  4f        ld      c,a
6ec0  45        ld      b,l
6ec1  65        ld      h,l
6ec2  49        ld      c,c
6ec3  cf        rst     #8
6ec4  7b        ld      a,e
6ec5  cf        rst     #8
6ec6  17        rla     
6ec7  43        ld      b,e
6ec8  98        sbc     a,b
6ec9  ab        xor     e
6eca  98        sbc     a,b
6ecb  85        add     a,l
6ecc  91        sub     c
6ecd  90        sub     b
6ece  73        ld      (hl),e
6ecf  4a        ld      c,d
6ed0  5e        ld      e,(hl)
6ed1  2f        cpl     
6ed2  62        ld      h,d
6ed3  3b        dec     sp
6ed4  f45fbe    call    p,#be5f
6ed7  e43c00    call    po,#003c
6eda  00        nop     
6edb  6f        ld      l,a
6edc  d0        ret     nc

6edd  15        dec     d
6ede  0c        inc     c
6edf  ba        cp      d
6ee0  e6c3      and     #c3
6ee2  c0        ret     nz

6ee3  7a        ld      a,d
6ee4  d1        pop     de
6ee5  b5        or      l
6ee6  8b        adc     a,e
6ee7  96        sub     (hl)
6ee8  ef        rst     #28
6ee9  bf        cp      a
6eea  15        dec     d
6eeb  47        ld      b,a
6eec  6e        ld      l,(hl)
6eed  13        inc     de
6eee  02        ld      (bc),a
6eef  b3        or      e
6ef0  e1        pop     hl
6ef1  14        inc     d
6ef2  9d        sbc     a,l
6ef3  7a        ld      a,d
6ef4  9f        sbc     a,a
6ef5  15        dec     d
6ef6  5b        ld      e,e
6ef7  b1        or      c
6ef8  6b        ld      l,e
6ef9  bf        cp      a
6efa  65        ld      h,l
6efb  b1        or      c
6efc  3879      jr      c,#6f77         ; (121)
6efe  48        ld      c,b
6eff  5e        ld      e,(hl)
6f00  75        ld      (hl),l
6f01  b1        or      c
6f02  04        inc     b
6f03  71        ld      (hl),c
6f04  8e        adc     a,(hl)
6f05  49        ld      c,c
6f06  33        inc     sp
6f07  62        ld      h,d
6f08  4c        ld      c,h
6f09  62        ld      h,d
6f0a  2e00      ld      l,#00
6f0c  0a        ld      a,(bc)
6f0d  5f        ld      e,a
6f0e  be        cp      (hl)
6f0f  5b        ld      e,e
6f10  b1        or      c
6f11  2f        cpl     
6f12  49        ld      c,c
6f13  5c        ld      e,h
6f14  15        dec     d
6f15  5a        ld      e,d
6f16  62        ld      h,d
6f17  ab        xor     e
6f18  14        inc     d
6f19  3f        ccf     
6f1a  c0        ret     nz

6f1b  07        rlca    
6f1c  b2        or      d
6f1d  cab52f    jp      z,#2fb5
6f20  62        ld      h,d
6f21  2e00      ld      l,#00
6f23  03        inc     bc
6f24  d64c      sub     #4c
6f26  f4bd35    call    p,#35bd
6f29  79        ld      a,c
6f2a  00        nop     
6f2b  113fb9    ld      de,#b93f
6f2e  59        ld      e,c
6f2f  5e        ld      e,(hl)
6f30  b8        cp      b
6f31  a0        and     b
6f32  47        ld      b,a
6f33  eb        ex      de,hl
6f34  04        inc     b
6f35  bc        cp      h
6f36  8e        adc     a,(hl)
6f37  49        ld      c,c
6f38  33        inc     sp
6f39  62        ld      h,d
6f3a  4b        ld      c,e
6f3b  62        ld      h,d
6f3c  58        ld      e,b
6f3d  72        ld      (hl),d
6f3e  44        ld      b,h
6f3f  5e        ld      e,(hl)
6f40  3060      jr      nc,#6fa2        ; (96)
6f42  03        inc     bc
6f43  15        dec     d
6f44  53        ld      d,e
6f45  b7        or      a
6f46  3f        ccf     
6f47  b1        or      c
6f48  1058      djnz    #6fa2           ; (88)
6f4a  94        sub     h
6f4b  5f        ld      e,a
6f4c  9f        sbc     a,a
6f4d  50        ld      d,b
6f4e  00        nop     
6f4f  03        inc     bc
6f50  d64c      sub     #4c
6f52  f4bd35    call    p,#35bd
6f55  79        ld      a,c
6f56  00        nop     
6f57  0f        rrca    
6f58  5f        ld      e,a
6f59  be        cp      (hl)
6f5a  5b        ld      e,e
6f5b  b1        or      c
6f5c  4b        ld      c,e
6f5d  7b        ld      a,e
6f5e  4e        ld      c,(hl)
6f5f  45        ld      b,l
6f60  314955    ld      sp,#5549
6f63  5e        ld      e,(hl)
6f64  54        ld      d,h
6f65  a4        and     h
6f66  c386ab    jp      #ab86
6f69  98        sbc     a,b
6f6a  e9        jp      (hl)
6f6b  9a        sbc     a,d
6f6c  b6        or      (hl)
6f6d  6c        ld      l,h
6f6e  b8        cp      b
6f6f  1681      ld      d,#81
6f71  15        dec     d
6f72  b3        or      e
6f73  8b        adc     a,e
6f74  f47245    call    p,#4572
6f77  210005    ld      hl,#0500
6f7a  54        ld      d,h
6f7b  8b        adc     a,e
6f7c  9b        sbc     a,e
6f7d  6c        ld      l,h
6f7e  3e6e      ld      a,#6e
6f80  1058      djnz    #6fda           ; (88)
6f82  79        ld      a,c
6f83  c44554    call    nz,#5445
6f86  00        nop     
6f87  08        ex      af,af'
6f88  5f        ld      e,a
6f89  be        cp      (hl)
6f8a  5b        ld      e,e
6f8b  b1        or      c
6f8c  2f        cpl     
6f8d  49        ld      c,c
6f8e  03        inc     bc
6f8f  15        dec     d
6f90  71        ld      (hl),c
6f91  48        ld      c,b
6f92  4d        ld      c,l
6f93  98        sbc     a,b
6f94  9f        sbc     a,a
6f95  15        dec     d
6f96  59        ld      e,c
6f97  b1        or      c
6f98  00        nop     
6f99  05        dec     b
6f9a  b8        cp      b
6f9b  b7        or      a
6f9c  2b        dec     hl
6f9d  62        ld      h,d
6f9e  068a      ld      b,#8a
6fa0  8f        adc     a,a
6fa1  78        ld      a,b
6fa2  0ea0      ld      c,#a0
6fa4  53        ld      d,e
6fa5  00        nop     
6fa6  0a        ld      a,(bc)
6fa7  5f        ld      e,a
6fa8  be        cp      (hl)
6fa9  5b        ld      e,e
6faa  b1        or      c
6fab  2f        cpl     
6fac  49        ld      c,c
6fad  ab        xor     e
6fae  14        inc     d
6faf  8b        adc     a,e
6fb0  b3        or      e
6fb1  c39e4e    jp      #4e9e
6fb4  b8        cp      b
6fb5  74        ld      (hl),h
6fb6  ca9f15    jp      z,#159f
6fb9  59        ld      e,c
6fba  b1        or      c
6fbb  00        nop     
6fbc  03        inc     bc
6fbd  4e        ld      c,(hl)
6fbe  b8        cp      b
6fbf  74        ld      (hl),h
6fc0  caab14    jp      z,#14ab
6fc3  52        ld      d,d
6fc4  53        ld      d,e
6fc5  00        nop     
6fc6  0a        ld      a,(bc)
6fc7  5f        ld      e,a
6fc8  be        cp      (hl)
6fc9  5b        ld      e,e
6fca  b1        or      c
6fcb  4b        ld      c,e
6fcc  7b        ld      a,e
6fcd  ef        rst     #28
6fce  a6        and     (hl)
6fcf  51        ld      d,c
6fd0  54        ld      d,h
6fd1  4b        ld      c,e
6fd2  c679      add     a,#79
6fd4  7f        ld      a,a
6fd5  4c        ld      c,h
6fd6  61        ld      h,c
6fd7  4a        ld      c,d
6fd8  db2f      in      a,(#2f)
6fda  62        ld      h,d
6fdb  21903c    ld      hl,#3c90
6fde  00        nop     
6fdf  00        nop     
6fe0  70        ld      (hl),b
6fe1  00        nop     
6fe2  05        dec     b
6fe3  ef        rst     #28
6fe4  a6        and     (hl)
6fe5  51        ld      d,c
6fe6  54        ld      d,h
6fe7  4b        ld      c,e
6fe8  c679      add     a,#79
6fea  7f        ld      a,a
6feb  4c        ld      c,h
6fec  61        ld      h,c
6fed  59        ld      e,c
6fee  00        nop     
6fef  08        ex      af,af'
6ff0  5f        ld      e,a
6ff1  be        cp      (hl)
6ff2  5b        ld      e,e
6ff3  b1        or      c
6ff4  2f        cpl     
6ff5  49        ld      c,c
6ff6  63        ld      h,e
6ff7  167b      ld      d,#7b
6ff9  9b        sbc     a,e
6ffa  3b        dec     sp
6ffb  55        ld      d,l
6ffc  8b        adc     a,e
6ffd  9a        sbc     a,d
6ffe  f47245    call    p,#4572
7001  210003    ld      hl,#0300
7004  d4b045    call    nc,#45b0
7007  5e        ld      e,(hl)
7008  50        ld      d,b
7009  9f        sbc     a,a
700a  53        ld      d,e
700b  00        nop     
700c  0c        inc     c
700d  5f        ld      e,a
700e  be        cp      (hl)
700f  e2162b    jp      po,#2b16
7012  49        ld      c,c
7013  15        dec     d
7014  9f        sbc     a,a
7015  d6b5      sub     #b5
7017  63        ld      h,e
7018  b1        or      c
7019  34        inc     (hl)
701a  ba        cp      d
701b  45        ld      b,l
701c  5e        ld      e,(hl)
701d  f5        push    af
701e  72        ld      (hl),d
701f  0b        dec     bc
7020  bc        cp      h
7021  cab52f    jp      z,#2fb5
7024  62        ld      h,d
7025  210004    ld      hl,#0400
7028  ef        rst     #28
7029  bf        cp      a
702a  67        ld      h,a
702b  49        ld      c,c
702c  5b        ld      e,e
702d  b1        or      c
702e  1f        rra     
702f  54        ld      d,h
7030  53        ld      d,e
7031  54        ld      d,h
7032  00        nop     
7033  105f      djnz    #7094           ; (95)
7035  be        cp      (hl)
7036  5b        ld      e,e
7037  b1        or      c
7038  4b        ld      c,e
7039  7b        ld      a,e
703a  4e        ld      c,(hl)
703b  45        ld      b,l
703c  314950    ld      sp,#5049
703f  5e        ld      e,(hl)
7040  66        ld      h,(hl)
7041  62        ld      h,d
7042  9f        sbc     a,a
7043  15        dec     d
7044  7e        ld      a,(hl)
7045  b1        or      c
7046  5f        ld      e,a
7047  15        dec     d
7048  f3        di      
7049  8c        adc     a,h
704a  c39e3e    jp      #3e9e
704d  6e        ld      l,(hl)
704e  f0        ret     p

704f  59        ld      e,c
7050  29        add     hl,hl
7051  15        dec     d
7052  c9        ret     

7053  6e        ld      l,(hl)
7054  00        nop     
7055  03        inc     bc
7056  3e6e      ld      a,#6e
7058  f0        ret     p

7059  59        ld      e,c
705a  29        add     hl,hl
705b  15        dec     d
705c  47        ld      b,a
705d  53        ld      d,e
705e  00        nop     
705f  0c        inc     c
7060  5f        ld      e,a
7061  be        cp      (hl)
7062  5b        ld      e,e
7063  b1        or      c
7064  4b        ld      c,e
7065  7b        ld      a,e
7066  4c        ld      c,h
7067  45        ld      b,l
7068  f7        rst     #30
7069  62        ld      h,d
706a  57        ld      d,a
706b  8f        adc     a,a
706c  24        inc     h
706d  98        sbc     a,b
706e  66        ld      h,(hl)
706f  c6f3      add     a,#f3
7071  5f        ld      e,a
7072  bb        cp      e
7073  85        add     a,l
7074  9f        sbc     a,a
7075  15        dec     d
7076  59        ld      e,c
7077  b1        or      c
7078  00        nop     
7079  03        inc     bc
707a  79        ld      a,c
707b  7f        ld      a,a
707c  3f        ccf     
707d  61        ld      h,c
707e  0d        dec     c
707f  58        ld      e,b
7080  45        ld      b,l
7081  59        ld      e,c
7082  00        nop     
7083  0d        dec     c
7084  5f        ld      e,a
7085  be        cp      (hl)
7086  5b        ld      e,e
7087  b1        or      c
7088  4b        ld      c,e
7089  7b        ld      a,e
708a  46        ld      b,(hl)
708b  45        ld      b,l
708c  43        ld      b,e
708d  61        ld      h,c
708e  1653      ld      d,#53
7090  b3        or      e
7091  63        ld      h,e
7092  ef        rst     #28
7093  a6        and     (hl)
7094  51        ld      d,c
7095  54        ld      d,h
7096  6e        ld      l,(hl)
7097  c6cb      add     a,#cb
7099  17        rla     
709a  9b        sbc     a,e
709b  b7        or      a
709c  f47245    call    p,#4572
709f  210001    ld      hl,#0100
70a2  d5        push    de
70a3  c9        ret     

70a4  45        ld      b,l
70a5  00        nop     
70a6  12        ld      (de),a
70a7  5f        ld      e,a
70a8  be        cp      (hl)
70a9  cb17      rl      a
70ab  9b        sbc     a,e
70ac  b7        or      a
70ad  4b        ld      c,e
70ae  7b        ld      a,e
70af  09        add     hl,bc
70b0  9a        sbc     a,d
70b1  2f        cpl     
70b2  17        rla     
70b3  03        inc     bc
70b4  ba        cp      d
70b5  ce98      adc     a,#98
70b7  ff        rst     #38
70b8  14        inc     d
70b9  85        add     a,l
70ba  8c        adc     a,h
70bb  7f        ld      a,a
70bc  49        ld      c,c
70bd  1e8f      ld      e,#8f
70bf  c0        ret     nz

70c0  167b      ld      d,#7b
70c2  14        inc     d
70c3  6e        ld      l,(hl)
70c4  ca76ca    jp      z,#ca76
70c7  e3        ex      (sp),hl
70c8  1609      ld      d,#09
70ca  8d        adc     a,l
70cb  57        ld      d,a
70cc  2e00      ld      l,#00
70ce  12        ld      (de),a
70cf  5f        ld      e,a
70d0  be        cp      (hl)
70d1  56        ld      d,(hl)
70d2  15        dec     d
70d3  44        ld      b,h
70d4  a0        and     b
70d5  d5        push    de
70d6  15        dec     d
70d7  43        ld      b,e
70d8  163f      ld      d,#3f
70da  c0        ret     nz

70db  66        ld      h,(hl)
70dc  b1        or      c
70dd  fb        ei      
70de  17        rla     
70df  53        ld      d,e
70e0  be        cp      (hl)
70e1  8c        adc     a,h
70e2  3c        inc     a
70e3  00        nop     
70e4  00        nop     
70e5  71        ld      (hl),c
70e6  44        ld      b,h
70e7  d266be    jp      nc,#be66
70ea  65        ld      h,l
70eb  62        ld      h,d
70ec  5a        ld      e,d
70ed  17        rla     
70ee  2e49      ld      l,#49
70f0  d1        pop     de
70f1  b5        or      l
70f2  92        sub     d
70f3  64        ld      h,h
70f4  0ea1      ld      c,#a1
70f6  43        ld      b,e
70f7  62        ld      h,d
70f8  2e00      ld      l,#00
70fa  115fbe    ld      de,#be5f
70fd  5b        ld      e,e
70fe  b1        or      c
70ff  4b        ld      c,e
7100  7b        ld      a,e
7101  83        add     a,e
7102  48        ld      c,b
7103  67        ld      h,a
7104  61        ld      h,c
7105  ceb0      adc     a,#b0
7107  0a        ld      a,(bc)
7108  58        ld      e,b
7109  2f        cpl     
710a  62        ld      h,d
710b  82        add     a,d
710c  17        rla     
710d  55        ld      d,l
710e  5e        ld      e,(hl)
710f  6f        ld      l,a
7110  7c        ld      a,h
7111  b8        cp      b
7112  167b      ld      d,#7b
7114  14        inc     d
7115  09        add     hl,bc
7116  a6        and     (hl)
7117  74        ld      (hl),h
7118  cacb23    jp      z,#23cb
711b  79        ld      a,c
711c  60        ld      h,b
711d  210005    ld      hl,#0500
7120  79        ld      a,c
7121  60        ld      h,b
7122  dbeb      in      a,(#eb)
7124  66        ld      h,(hl)
7125  e3        ex      (sp),hl
7126  2f        cpl     
7127  15        dec     d
7128  2b        dec     hl
7129  62        ld      h,d
712a  4c        ld      c,h
712b  44        ld      b,h
712c  00        nop     
712d  0d        dec     c
712e  d0        ret     nc

712f  9e        sbc     a,(hl)
7130  89        adc     a,c
7131  17        rla     
7132  c0        ret     nz

7133  1655      ld      d,#55
7135  5e        ld      e,(hl)
7136  ff        rst     #38
7137  78        ld      a,b
7138  43        ld      b,e
7139  164b      ld      d,#4b
713b  62        ld      h,d
713c  49        ld      c,c
713d  45        ld      b,l
713e  95        sub     l
713f  8c        adc     a,h
7140  f0        ret     p

7141  bd        cp      l
7142  91        sub     c
7143  7a        ld      a,d
7144  df        rst     #18
7145  1636      ld      d,#36
7147  49        ld      c,c
7148  210005    ld      hl,#0500
714b  c36dff    jp      #ff6d
714e  b9        cp      c
714f  1099      djnz    #70ea           ; (-103)
7151  d26a94    jp      nc,#946a
7154  5f        ld      e,a
7155  4c        ld      c,h
7156  00        nop     
7157  11c7de    ld      de,#dec7
715a  94        sub     h
715b  14        inc     d
715c  43        ld      b,e
715d  5e        ld      e,(hl)
715e  16bc      ld      d,#bc
7160  db72      in      a,(#72)
7162  064f      ld      b,#4f
7164  7f        ld      a,a
7165  bf        cp      a
7166  b8        cp      b
7167  1682      ld      d,#82
7169  17        rla     
716a  52        ld      d,d
716b  5e        ld      e,(hl)
716c  73        ld      (hl),e
716d  7b        ld      a,e
716e  56        ld      d,(hl)
716f  d1        pop     de
7170  03        inc     bc
7171  71        ld      (hl),c
7172  bc        cp      h
7173  14        inc     d
7174  97        sub     a
7175  9f        sbc     a,a
7176  90        sub     b
7177  96        sub     (hl)
7178  dd5f      ld      e,a
717a  2e00      ld      l,#00
717c  0f        rrca    
717d  5f        ld      e,a
717e  be        cp      (hl)
717f  e414dd    call    po,#dd14
7182  46        ld      b,(hl)
7183  d5        push    de
7184  15        dec     d
7185  4b        ld      c,e
7186  15        dec     d
7187  96        sub     (hl)
7188  af        xor     a
7189  2b        dec     hl
718a  a0        and     b
718b  e3        ex      (sp),hl
718c  b8        cp      b
718d  f3        di      
718e  8c        adc     a,h
718f  04        inc     b
7190  68        ld      l,b
7191  51        ld      d,c
7192  1856      jr      #71ea           ; (86)
7194  c2c89c    jp      nz,#9cc8
7197  c69f      add     a,#9f
7199  8f        adc     a,a
719a  a1        and     c
719b  00        nop     
719c  08        ex      af,af'
719d  5f        ld      e,a
719e  be        cp      (hl)
719f  09        add     hl,bc
71a0  15        dec     d
71a1  1b        dec     de
71a2  92        sub     d
71a3  4b        ld      c,e
71a4  7b        ld      a,e
71a5  8d        adc     a,l
71a6  c5        push    bc
71a7  8f        adc     a,a
71a8  8c        adc     a,h
71a9  c44cff    call    nz,#ff4c
71ac  8b        adc     a,e
71ad  00        nop     
71ae  1854      jr      #7204           ; (84)
71b0  77        ld      (hl),a
71b1  62        ld      h,d
71b2  62        ld      h,d
71b3  e65f      and     #5f
71b5  ee68      xor     #68
71b7  fb        ei      
71b8  8e        adc     a,(hl)
71b9  29        add     hl,hl
71ba  ba        cp      d
71bb  b5        or      l
71bc  6c        ld      l,h
71bd  1b        dec     de
71be  bc        cp      h
71bf  1b        dec     de
71c0  a1        and     c
71c1  2b        dec     hl
71c2  6e        ld      l,(hl)
71c3  e446e5    call    po,#e546
71c6  a0        and     b
71c7  82        add     a,d
71c8  17        rla     
71c9  44        ld      b,h
71ca  5e        ld      e,(hl)
71cb  06b2      ld      b,#b2
71cd  9b        sbc     a,e
71ce  6c        ld      l,h
71cf  9d        sbc     a,l
71d0  7a        ld      a,d
71d1  e3        ex      (sp),hl
71d2  bd        cp      l
71d3  11587b    ld      de,#7b58
71d6  64        ld      h,h
71d7  3b        dec     sp
71d8  13        inc     de
71d9  ff        rst     #38
71da  15        dec     d
71db  e3        ex      (sp),hl
71dc  93        sub     e
71dd  cf        rst     #8
71de  98        sbc     a,b
71df  00        nop     
71e0  06c7      ld      b,#c7
71e2  de03      sbc     a,#03
71e4  15        dec     d
71e5  45        ld      b,l
71e6  70        ld      (hl),b
71e7  3c        inc     a
71e8  00        nop     
71e9  00        nop     
71ea  72        ld      (hl),d
71eb  5b        ld      e,e
71ec  0f        rrca    
71ed  bc        cp      h
71ee  17        rla     
71ef  48        ld      c,b
71f0  d615      sub     #15
71f2  2e00      ld      l,#00
71f4  0e5f      ld      c,#5f
71f6  be        cp      (hl)
71f7  5b        ld      e,e
71f8  b1        or      c
71f9  4b        ld      c,e
71fa  7b        ld      a,e
71fb  eb        ex      de,hl
71fc  99        sbc     a,c
71fd  1b        dec     de
71fe  d0        ret     nc

71ff  85        add     a,l
7200  14        inc     d
7201  05        dec     b
7202  b3        or      e
7203  d6b5      sub     #b5
7205  db72      in      a,(#72)
7207  064f      ld      b,#4f
7209  7f        ld      a,a
720a  bf        cp      a
720b  f5        push    af
720c  8b        adc     a,e
720d  d2b597    jp      nc,#97b5
7210  7b        ld      a,e
7211  00        nop     
7212  09        add     hl,bc
7213  c7        rst     #0
7214  ded3      sbc     a,#d3
7216  14        inc     d
7217  e696      and     #96
7219  77        ld      (hl),a
721a  15        dec     d
721b  04        inc     b
721c  bc        cp      h
721d  56        ld      d,(hl)
721e  dbdb      in      a,(#db)
7220  72        ld      (hl),d
7221  b4        or      h
7222  b7        or      a
7223  f0        ret     p

7224  a4        and     h
7225  54        ld      d,h
7226  2e00      ld      l,#00
7228  1ec7      ld      e,#c7
722a  de9b      sbc     a,#9b
722c  15        dec     d
722d  5b        ld      e,e
722e  caab55    jp      z,#55ab
7231  bf        cp      a
7232  d1        pop     de
7233  1658      ld      d,#58
7235  f9        ld      sp,hl
7236  74        ld      (hl),h
7237  7a        ld      a,d
7238  c47b14    call    nz,#147b
723b  74        ld      (hl),h
723c  ca4edb    jp      z,#db4e
723f  6b        ld      l,e
7240  a1        and     c
7241  46        ld      b,(hl)
7242  d1        pop     de
7243  52        ld      d,d
7244  5e        ld      e,(hl)
7245  65        ld      h,l
7246  49        ld      c,c
7247  77        ld      (hl),a
7248  47        ld      b,a
7249  db16      in      a,(#16)
724b  ceb0      adc     a,#b0
724d  ee8b      xor     #8b
724f  89        adc     a,c
7250  17        rla     
7251  90        sub     b
7252  14        inc     d
7253  59        ld      e,c
7254  5b        ld      e,e
7255  c2b3b8    jp      nz,#b8b3
7258  1682      ld      d,#82
725a  17        rla     
725b  4a        ld      c,d
725c  5e        ld      e,(hl)
725d  46        ld      b,(hl)
725e  48        ld      c,b
725f  b8        cp      b
7260  1681      ld      d,#81
7262  15        dec     d
7263  2f        cpl     
7264  5c        ld      e,h
7265  00        nop     
7266  0c        inc     c
7267  c7        rst     #0
7268  de09      sbc     a,#09
726a  15        dec     d
726b  e696      and     #96
726d  53        ld      d,e
726e  15        dec     d
726f  16bc      ld      d,#bc
7271  f9        ld      sp,hl
7272  74        ld      (hl),h
7273  7a        ld      a,d
7274  c49117    call    nz,#1791
7277  1b        dec     de
7278  a2        and     d
7279  1a        ld      a,(de)
727a  98        sbc     a,b
727b  5e        ld      e,(hl)
727c  17        rla     
727d  71        ld      (hl),c
727e  7b        ld      a,e
727f  00        nop     
7280  1c        inc     e
7281  c7        rst     #0
7282  de9b      sbc     a,#9b
7284  15        dec     d
7285  5b        ld      e,e
7286  caab55    jp      z,#55ab
7289  bf        cp      a
728a  d1        pop     de
728b  03        inc     bc
728c  58        ld      e,b
728d  07        rlca    
728e  b3        or      e
728f  33        inc     sp
7290  98        sbc     a,b
7291  83        add     a,e
7292  7a        ld      a,d
7293  3f        ccf     
7294  b9        cp      c
7295  4e        ld      c,(hl)
7296  5e        ld      e,(hl)
7297  8e        adc     a,(hl)
7298  7b        ld      a,e
7299  db8b      in      a,(#8b)
729b  7e        ld      a,(hl)
729c  74        ld      (hl),h
729d  4b        ld      c,e
729e  62        ld      h,d
729f  8e        adc     a,(hl)
72a0  48        ld      c,b
72a1  01188e    ld      bc,#8e18
72a4  c5        push    bc
72a5  b2        or      d
72a6  17        rla     
72a7  ab        xor     e
72a8  14        inc     d
72a9  8b        adc     a,e
72aa  54        ld      d,h
72ab  d0        ret     nc

72ac  15        dec     d
72ad  82        add     a,d
72ae  17        rla     
72af  4f        ld      c,a
72b0  5e        ld      e,(hl)
72b1  d0        ret     nc

72b2  47        ld      b,a
72b3  db16      in      a,(#16)
72b5  d3b9      out     (#b9),a
72b7  bf        cp      a
72b8  6c        ld      l,h
72b9  00        nop     
72ba  2ac7de    ld      hl,(#dec7)
72bd  9b        sbc     a,e
72be  15        dec     d
72bf  5b        ld      e,e
72c0  caab55    jp      z,#55ab
72c3  bf        cp      a
72c4  d1        pop     de
72c5  03        inc     bc
72c6  58        ld      e,b
72c7  07        rlca    
72c8  b3        or      e
72c9  33        inc     sp
72ca  98        sbc     a,b
72cb  83        add     a,e
72cc  7a        ld      a,d
72cd  3f        ccf     
72ce  b9        cp      c
72cf  4e        ld      c,(hl)
72d0  5e        ld      e,(hl)
72d1  8e        adc     a,(hl)
72d2  7b        ld      a,e
72d3  db8b      in      a,(#8b)
72d5  7e        ld      a,(hl)
72d6  74        ld      (hl),h
72d7  4b        ld      c,e
72d8  62        ld      h,d
72d9  8e        adc     a,(hl)
72da  48        ld      c,b
72db  59        ld      e,c
72dc  15        dec     d
72dd  8e        adc     a,(hl)
72de  c5        push    bc
72df  51        ld      d,c
72e0  1823      jr      #7305           ; (35)
72e2  c61b      add     a,#1b
72e4  d0        ret     nc

72e5  b6        or      (hl)
72e6  14        inc     d
72e7  5d        ld      e,l
72e8  9e        sbc     a,(hl)
72e9  f3        di      
72ea  5f        ld      e,a
72eb  a2        and     d
72ec  3c        inc     a
72ed  00        nop     
72ee  00        nop     
72ef  73        ld      (hl),e
72f0  7b        ld      a,e
72f1  50        ld      d,b
72f2  48        ld      c,b
72f3  45        ld      b,l
72f4  46        ld      b,(hl)
72f5  48        ld      c,b
72f6  83        add     a,e
72f7  61        ld      h,c
72f8  bb        cp      e
72f9  b8        cp      b
72fa  1b        dec     de
72fb  51        ld      d,c
72fc  51        ld      d,c
72fd  1843      jr      #7342           ; (67)
72ff  c25bb1    jp      nz,#b15b
7302  09        add     hl,bc
7303  9a        sbc     a,d
7304  ab        xor     e
7305  14        inc     d
7306  8b        adc     a,e
7307  54        ld      d,h
7308  83        add     a,e
7309  7a        ld      a,d
730a  5f        ld      e,a
730b  be        cp      (hl)
730c  63        ld      h,e
730d  1683      ld      d,#83
730f  7a        ld      a,d
7310  55        ld      d,l
7311  a4        and     h
7312  09        add     hl,bc
7313  b7        or      a
7314  45        ld      b,l
7315  2e00      ld      l,#00
7317  15        dec     d
7318  c7        rst     #0
7319  ded3      sbc     a,#d3
731b  14        inc     d
731c  e696      and     #96
731e  53        ld      d,e
731f  15        dec     d
7320  16bc      ld      d,#bc
7322  95        sub     l
7323  73        ld      (hl),e
7324  b3        or      e
7325  14        inc     d
7326  d5        push    de
7327  6a        ld      l,d
7328  2d        dec     l
7329  49        ld      c,c
732a  62        ld      h,d
732b  a0        and     b
732c  87        add     a,a
732d  47        ld      b,a
732e  d6b5      sub     #b5
7330  f9        ld      sp,hl
7331  74        ld      (hl),h
7332  7a        ld      a,d
7333  c48217    call    nz,#1782
7336  73        ld      (hl),e
7337  49        ld      c,c
7338  96        sub     (hl)
7339  8c        adc     a,h
733a  ff        rst     #38
733b  be        cp      (hl)
733c  db16      in      a,(#16)
733e  d3b9      out     (#b9),a
7340  99        sbc     a,c
7341  6c        ld      l,h
7342  00        nop     
7343  24        inc     h
7344  3f        ccf     
7345  b9        cp      c
7346  82        add     a,d
7347  62        ld      h,d
7348  91        sub     c
7349  7a        ld      a,d
734a  51        ld      d,c
734b  18a4      jr      #72f1           ; (-92)
734d  c2455e    jp      nz,#5e45
7350  3c        inc     a
7351  49        ld      c,c
7352  d0        ret     nc

7353  ddd9      exx     
7355  6a        ld      l,d
7356  05        dec     b
7357  a0        and     b
7358  08        ex      af,af'
7359  bc        cp      h
735a  73        ld      (hl),e
735b  7b        ld      a,e
735c  6c        ld      l,h
735d  be        cp      (hl)
735e  29        add     hl,hl
735f  a1        and     c
7360  1671      ld      d,#71
7362  db72      in      a,(#72)
7364  70        ld      (hl),b
7365  c0        ret     nz

7366  6e        ld      l,(hl)
7367  98        sbc     a,b
7368  fb        ei      
7369  17        rla     
736a  53        ld      d,e
736b  be        cp      (hl)
736c  c7        rst     #0
736d  de51      sbc     a,#51
736f  f9        ld      sp,hl
7370  96        sub     (hl)
7371  c2af14    jp      nz,#14af
7374  f3        di      
7375  b9        cp      c
7376  4d        ld      c,l
7377  bd        cp      l
7378  4b        ld      c,e
7379  5e        ld      e,(hl)
737a  0f        rrca    
737b  9b        sbc     a,e
737c  c9        ret     

737d  9a        sbc     a,d
737e  7b        ld      a,e
737f  b4        or      h
7380  8e        adc     a,(hl)
7381  48        ld      c,b
7382  0c        inc     c
7383  15        dec     d
7384  53        ld      d,e
7385  a0        and     b
7386  3f        ccf     
7387  b9        cp      c
7388  82        add     a,d
7389  62        ld      h,d
738a  91        sub     c
738b  7a        ld      a,d
738c  2e00      ld      l,#00
738e  15        dec     d
738f  c7        rst     #0
7390  dede      sbc     a,#de
7392  14        inc     d
7393  64        ld      h,h
7394  48        ld      c,b
7395  23        inc     hl
7396  62        ld      h,d
7397  d3c5      out     (#c5),a
7399  5f        ld      e,a
739a  be        cp      (hl)
739b  e616      and     #16
739d  9e        sbc     a,(hl)
739e  48        ld      c,b
739f  90        sub     b
73a0  14        inc     d
73a1  15        dec     d
73a2  58        ld      e,b
73a3  34        inc     (hl)
73a4  56        ld      d,(hl)
73a5  7b        ld      a,e
73a6  b4        or      h
73a7  6c        ld      l,h
73a8  be        cp      (hl)
73a9  29        add     hl,hl
73aa  a1        and     c
73ab  1671      ld      d,#71
73ad  db72      in      a,(#72)
73af  7e        ld      a,(hl)
73b0  74        ld      (hl),h
73b1  43        ld      b,e
73b2  5e        ld      e,(hl)
73b3  16bc      ld      d,#bc
73b5  db72      in      a,(#72)
73b7  82        add     a,d
73b8  bf        cp      a
73b9  2e00      ld      l,#00
73bb  0f        rrca    
73bc  c7        rst     #0
73bd  de4f      sbc     a,#4f
73bf  24        inc     h
73c0  de14      sbc     a,#14
73c2  64        ld      h,h
73c3  7a        ld      a,d
73c4  f3        di      
73c5  5f        ld      e,a
73c6  d3c5      out     (#c5),a
73c8  5f        ld      e,a
73c9  be        cp      (hl)
73ca  e616      and     #16
73cc  9e        sbc     a,(hl)
73cd  48        ld      c,b
73ce  90        sub     b
73cf  14        inc     d
73d0  115873    ld      de,#7358
73d3  c6c3      add     a,#c3
73d5  9e        sbc     a,(hl)
73d6  5f        ld      e,a
73d7  be        cp      (hl)
73d8  e3        ex      (sp),hl
73d9  1654      ld      d,#54
73db  2e00      ld      l,#00
73dd  0f        rrca    
73de  5f        ld      e,a
73df  be        cp      (hl)
73e0  5b        ld      e,e
73e1  b1        or      c
73e2  4b        ld      c,e
73e3  7b        ld      a,e
73e4  eb        ex      de,hl
73e5  99        sbc     a,c
73e6  1b        dec     de
73e7  d0        ret     nc

73e8  59        ld      e,c
73e9  15        dec     d
73ea  9b        sbc     a,e
73eb  af        xor     a
73ec  1b        dec     de
73ed  a1        and     c
73ee  6b        ld      l,e
73ef  bf        cp      a
73f0  89        adc     a,c
73f1  3c        inc     a
73f2  00        nop     
73f3  00        nop     
73f4  74        ld      (hl),h
73f5  2b        dec     hl
73f6  6e        ld      l,(hl)
73f7  5b        ld      e,e
73f8  be        cp      (hl)
73f9  06bc      ld      b,#bc
73fb  2f        cpl     
73fc  7b        ld      a,e
73fd  03        inc     bc
73fe  56        ld      d,(hl)
73ff  27        daa     
7400  a0        and     b
7401  00        nop     
7402  114677    ld      de,#7746
7405  05        dec     b
7406  a0        and     b
7407  0d        dec     c
7408  bc        cp      h
7409  09        add     hl,bc
740a  9a        sbc     a,d
740b  d0        ret     nc

740c  15        dec     d
740d  5c        ld      e,h
740e  15        dec     d
740f  db9f      in      a,(#9f)
7411  36a1      ld      (hl),#a1
7413  9f        sbc     a,a
7414  15        dec     d
7415  7f        ld      a,a
7416  b1        or      c
7417  57        ld      d,a
7418  13        inc     de
7419  9b        sbc     a,e
741a  b7        or      a
741b  3f        ccf     
741c  55        ld      d,l
741d  55        ld      d,l
741e  a4        and     h
741f  d2b550    jp      nc,#50b5
7422  9f        sbc     a,a
7423  2f        cpl     
7424  c0        ret     nz

7425  00        nop     
7426  114377    ld      de,#7743
7429  57        ld      d,a
742a  90        sub     b
742b  a7        and     a
742c  9a        sbc     a,d
742d  5b        ld      e,e
742e  b1        or      c
742f  89        adc     a,c
7430  74        ld      (hl),h
7431  51        ld      d,c
7432  1843      jr      #7477           ; (67)
7434  c25bb1    jp      nz,#b15b
7437  c5        push    bc
7438  65        ld      h,l
7439  91        sub     c
743a  7a        ld      a,d
743b  3b        dec     sp
743c  f457c6    call    p,#c657
743f  e1        pop     hl
7440  14        inc     d
7441  db93      in      a,(#93)
7443  cbb9      res     7,c
7445  7b        ld      a,e
7446  a6        and     (hl)
7447  cd9a2e    call    #2e9a
744a  00        nop     
744b  05        dec     b
744c  069a      ld      b,#9a
744e  90        sub     b
744f  73        ld      (hl),e
7450  ca6aea    jp      z,#ea6a
7453  48        ld      c,b
7454  9d        sbc     a,l
7455  61        ld      h,c
7456  2e00      ld      l,#00
7458  05        dec     b
7459  46        ld      b,(hl)
745a  77        ld      (hl),a
745b  05        dec     b
745c  a0        and     b
745d  0d        dec     c
745e  bc        cp      h
745f  09        add     hl,bc
7460  9a        sbc     a,d
7461  a9        xor     c
7462  15        dec     d
7463  57        ld      d,a
7464  2e00      ld      l,#00
7466  0d        dec     c
7467  46        ld      b,(hl)
7468  77        ld      (hl),a
7469  05        dec     b
746a  a0        and     b
746b  0d        dec     c
746c  bc        cp      h
746d  09        add     hl,bc
746e  9a        sbc     a,d
746f  a9        xor     c
7470  15        dec     d
7471  d6ce      sub     #ce
7473  c39ca6    jp      #a69c
7476  a6        and     (hl)
7477  56        ld      d,(hl)
7478  db56      in      a,(#56)
747a  72        ld      (hl),d
747b  011833    ld      bc,#3318
747e  b1        or      c
747f  f47245    call    p,#4572
7482  2e00      ld      l,#00
7484  06c7      ld      b,#c7
7486  de8e      sbc     a,#8e
7488  af        xor     a
7489  72        ld      (hl),d
748a  48        ld      c,b
748b  d5        push    de
748c  15        dec     d
748d  99        sbc     a,c
748e  16d1      ld      d,#d1
7490  ce4e      adc     a,#4e
7492  2e00      ld      l,#00
7494  09        add     hl,bc
7495  c7        rst     #0
7496  de9b      sbc     a,#9b
7498  15        dec     d
7499  5b        ld      e,e
749a  caeb99    jp      z,#99eb
749d  47        ld      b,a
749e  b9        cp      c
749f  17        rla     
74a0  b1        or      c
74a1  b8        cp      b
74a2  1643      ld      d,#43
74a4  162e      ld      d,#2e
74a6  6d        ld      l,l
74a7  2e00      ld      l,#00
74a9  07        rlca    
74aa  c7        rst     #0
74ab  de8e      sbc     a,#8e
74ad  af        xor     a
74ae  72        ld      (hl),d
74af  48        ld      c,b
74b0  d5        push    de
74b1  15        dec     d
74b2  99        sbc     a,c
74b3  16d1      ld      d,#d1
74b5  cea7      adc     a,#a7
74b7  66        ld      h,(hl)
74b8  00        nop     
74b9  09        add     hl,bc
74ba  9f        sbc     a,a
74bb  77        ld      (hl),a
74bc  95        sub     l
74bd  14        inc     d
74be  e1        pop     hl
74bf  14        inc     d
74c0  9f        sbc     a,a
74c1  98        sbc     a,b
74c2  a6        and     (hl)
74c3  b7        or      a
74c4  95        sub     l
74c5  14        inc     d
74c6  51        ld      d,c
74c7  1843      jr      #750c           ; (67)
74c9  c27fb1    jp      nz,#b17f
74cc  00        nop     
74cd  2a4577    ld      hl,(#7745)
74d0  83        add     a,e
74d1  48        ld      c,b
74d2  16a0      ld      d,#a0
74d4  56        ld      d,(hl)
74d5  db46      in      a,(#46)
74d7  61        ld      h,c
74d8  51        ld      d,c
74d9  1859      jr      #7534           ; (89)
74db  c25672    jp      nz,#7256
74de  51        ld      d,c
74df  1855      jr      #7536           ; (85)
74e1  c21b60    jp      nz,#601b
74e4  4b        ld      c,e
74e5  49        ld      c,c
74e6  c7        rst     #0
74e7  de71      sbc     a,#71
74e9  165b      ld      d,#5b
74eb  cab946    jp      z,#46b9
74ee  73        ld      (hl),e
74ef  c68e      add     a,#8e
74f1  48        ld      c,b
74f2  3b        dec     sp
74f3  13        inc     de
74f4  3b        dec     sp
74f5  fc3c00    call    m,#003c
74f8  00        nop     
74f9  75        ld      (hl),l
74fa  13        inc     de
74fb  3b        dec     sp
74fc  13        inc     de
74fd  63        ld      h,e
74fe  1612      ld      d,#12
7500  99        sbc     a,c
7501  3b        dec     sp
7502  c5        push    bc
7503  dbbd      in      a,(#bd)
7505  63        ld      h,e
7506  be        cp      (hl)
7507  c5        push    bc
7508  98        sbc     a,b
7509  3b        dec     sp
750a  f44577    call    p,#7745
750d  83        add     a,e
750e  48        ld      c,b
750f  069a      ld      b,#9a
7511  7f        ld      a,a
7512  17        rla     
7513  f3        di      
7514  8c        adc     a,h
7515  c7        rst     #0
7516  defa      sbc     a,#fa
7518  17        rla     
7519  2f        cpl     
751a  62        ld      h,d
751b  2f        cpl     
751c  17        rla     
751d  c693      add     a,#93
751f  56        ld      d,(hl)
7520  5e        ld      e,(hl)
7521  90        sub     b
7522  73        ld      (hl),e
7523  cb6e      bit     5,(hl)
7525  2f        cpl     
7526  49        ld      c,c
7527  2e00      ld      l,#00
7529  018b9f    ld      bc,#9f8b
752c  00        nop     
752d  15        dec     d
752e  44        ld      b,h
752f  b9        cp      c
7530  9e        sbc     a,(hl)
7531  b4        or      h
7532  bf        cp      a
7533  14        inc     d
7534  0b        dec     bc
7535  bc        cp      h
7536  99        sbc     a,c
7537  1649      ld      d,#49
7539  16b7      ld      d,#b7
753b  98        sbc     a,b
753c  95        sub     l
753d  af        xor     a
753e  2f        cpl     
753f  60        ld      h,b
7540  89        adc     a,c
7541  17        rla     
7542  2f        cpl     
7543  17        rla     
7544  2f        cpl     
7545  92        sub     d
7546  74        ld      (hl),h
7547  4d        ld      c,l
7548  a9        xor     c
7549  15        dec     d
754a  cbce      set     1,(hl)
754c  19        add     hl,de
754d  bc        cp      h
754e  4b        ld      c,e
754f  49        ld      c,c
7550  c7        rst     #0
7551  de81      sbc     a,#81
7553  15        dec     d
7554  0a        ld      a,(bc)
7555  bc        cp      h
7556  2f        cpl     
7557  62        ld      h,d
7558  2e00      ld      l,#00
755a  09        add     hl,bc
755b  c7        rst     #0
755c  de94      sbc     a,#94
755e  14        inc     d
755f  43        ld      b,e
7560  5e        ld      e,(hl)
7561  ef        rst     #28
7562  8d        adc     a,l
7563  13        inc     de
7564  47        ld      b,a
7565  d314      out     (#14),a
7567  83        add     a,e
7568  b3        or      e
7569  91        sub     c
756a  7a        ld      a,d
756b  d615      sub     #15
756d  2e00      ld      l,#00
756f  17        rla     
7570  c7        rst     #0
7571  ded3      sbc     a,#d3
7573  14        inc     d
7574  e696      and     #96
7576  d314      out     (#14),a
7578  83        add     a,e
7579  b3        or      e
757a  90        sub     b
757b  14        inc     d
757c  82        add     a,d
757d  df        rst     #18
757e  91        sub     c
757f  7a        ld      a,d
7580  71        ld      (hl),c
7581  167f      ld      d,#7f
7583  b1        or      c
7584  5b        ld      e,e
7585  13        inc     de
7586  1d        dec     e
7587  a1        and     c
7588  f3        di      
7589  8c        adc     a,h
758a  58        ld      e,b
758b  72        ld      (hl),d
758c  56        ld      d,(hl)
758d  5e        ld      e,(hl)
758e  c69c      add     a,#9c
7590  02        ld      (bc),a
7591  b3        or      e
7592  61        ld      h,c
7593  17        rla     
7594  3692      ld      (hl),#92
7596  90        sub     b
7597  73        ld      (hl),e
7598  bb        cp      e
7599  6a        ld      l,d
759a  53        ld      d,e
759b  15        dec     d
759c  a6        and     (hl)
759d  b3        or      e
759e  2e00      ld      l,#00
75a0  09        add     hl,bc
75a1  c7        rst     #0
75a2  deaf      sbc     a,#af
75a4  23        inc     hl
75a5  99        sbc     a,c
75a6  1605      ld      d,#05
75a8  bc        cp      h
75a9  3c        inc     a
75aa  49        ld      c,c
75ab  d0        ret     nc

75ac  ddc36a96  jp      #966a
75b0  9b        sbc     a,e
75b1  90        sub     b
75b2  73        ld      (hl),e
75b3  47        ld      b,a
75b4  2e00      ld      l,#00
75b6  0d        dec     c
75b7  c7        rst     #0
75b8  de94      sbc     a,#94
75ba  14        inc     d
75bb  45        ld      b,l
75bc  5e        ld      e,(hl)
75bd  3c        inc     a
75be  c69e      add     a,#9e
75c0  61        ld      h,c
75c1  fb        ei      
75c2  8e        adc     a,(hl)
75c3  7e        ld      a,(hl)
75c4  74        ld      (hl),h
75c5  90        sub     b
75c6  5a        ld      e,d
75c7  d66a      sub     #6a
75c9  db72      in      a,(#72)
75cb  fe67      cp      #67
75cd  89        adc     a,c
75ce  8d        adc     a,l
75cf  91        sub     c
75d0  7a        ld      a,d
75d1  3a0006    ld      a,(#0600)
75d4  80        add     a,b
75d5  5b        ld      e,e
75d6  f3        di      
75d7  23        inc     hl
75d8  5b        ld      e,e
75d9  4d        ld      c,l
75da  06b2      ld      b,#b2
75dc  e7        rst     #20
75dd  78        ld      a,b
75de  87        add     a,a
75df  8d        adc     a,l
75e0  53        ld      d,e
75e1  21000e    ld      hl,#0e00
75e4  c7        rst     #0
75e5  de84      sbc     a,#84
75e7  af        xor     a
75e8  0ea1      ld      c,#a1
75ea  db8b      in      a,(#8b)
75ec  4b        ld      c,e
75ed  7b        ld      a,e
75ee  72        ld      (hl),d
75ef  61        ld      h,c
75f0  fb        ei      
75f1  c0        ret     nz

75f2  8e        adc     a,(hl)
75f3  48        ld      c,b
75f4  82        add     a,d
75f5  17        rla     
75f6  49        ld      c,c
75f7  5e        ld      e,(hl)
75f8  07        rlca    
75f9  b3        or      e
75fa  e5        push    hl
75fb  3c        inc     a
75fc  00        nop     
75fd  00        nop     
75fe  76        halt    
75ff  33        inc     sp
7600  98        sbc     a,b
7601  4b        ld      c,e
7602  7b        ld      a,e
7603  b6        or      (hl)
7604  d0        ret     nc

7605  2e00      ld      l,#00
7607  06c7      ld      b,#c7
7609  ded3      sbc     a,#d3
760b  14        inc     d
760c  e696      and     #96
760e  e9        jp      (hl)
760f  1623      ld      d,#23
7611  c65b      add     a,#5b
7613  be        cp      (hl)
7614  54        ld      d,h
7615  2e00      ld      l,#00
7617  20e4      jr      nz,#75fd        ; (-28)
7619  b3        or      e
761a  104e      djnz    #766a           ; (78)
761c  d66a      sub     #6a
761e  db72      in      a,(#72)
7620  3f        ccf     
7621  61        ld      h,c
7622  0c        inc     c
7623  56        ld      d,(hl)
7624  cb78      bit     7,b
7626  4f        ld      c,a
7627  8b        adc     a,e
7628  0b        dec     bc
7629  a3        and     e
762a  d0        ret     nc

762b  b5        or      l
762c  f3        di      
762d  a0        and     b
762e  54        ld      d,h
762f  a4        and     h
7630  85        add     a,l
7631  be        cp      (hl)
7632  3b        dec     sp
7633  c5        push    bc
7634  93        sub     e
7635  b2        or      d
7636  2f        cpl     
7637  17        rla     
7638  14        inc     d
7639  d0        ret     nc

763a  90        sub     b
763b  5a        ld      e,d
763c  5b        ld      e,e
763d  70        ld      (hl),b
763e  3b        dec     sp
763f  13        inc     de
7640  3b        dec     sp
7641  13        inc     de
7642  90        sub     b
7643  14        inc     d
7644  f3        di      
7645  df        rst     #18
7646  b3        or      e
7647  e0        ret     po

7648  069a      ld      b,#9a
764a  90        sub     b
764b  73        ld      (hl),e
764c  c7        rst     #0
764d  6a        ld      l,d
764e  9b        sbc     a,e
764f  d690      sub     #90
7651  be        cp      (hl)
7652  ca6aea    jp      z,#ea6a
7655  48        ld      c,b
7656  9d        sbc     a,l
7657  61        ld      h,c
7658  2e00      ld      l,#00
765a  0c        inc     c
765b  e5        push    hl
765c  a4        and     h
765d  43        ld      b,e
765e  c5        push    bc
765f  47        ld      b,a
7660  49        ld      c,c
7661  50        ld      d,b
7662  13        inc     de
7663  02        ld      (bc),a
7664  a1        and     c
7665  91        sub     c
7666  7a        ld      a,d
7667  b0        or      b
7668  17        rla     
7669  2a63e6    ld      hl,(#e663)
766c  5f        ld      e,a
766d  f3        di      
766e  5f        ld      e,a
766f  52        ld      d,d
7670  72        ld      (hl),d
7671  f0        ret     p

7672  a4        and     h
7673  53        ld      d,e
7674  2e00      ld      l,#00
7676  115fbe    ld      de,#be5f
7679  5b        ld      e,e
767a  b1        or      c
767b  4b        ld      c,e
767c  7b        ld      a,e
767d  069a      ld      b,#9a
767f  90        sub     b
7680  73        ld      (hl),e
7681  ca6a2f    jp      z,#2f6a
7684  62        ld      h,d
7685  fb        ei      
7686  17        rla     
7687  53        ld      d,e
7688  be        cp      (hl)
7689  23        inc     hl
768a  d1        pop     de
768b  13        inc     de
768c  54        ld      d,h
768d  6b        ld      l,e
768e  bf        cp      a
768f  0e67      ld      c,#67
7691  168a      ld      d,#8a
7693  db72      in      a,(#72)
7695  064f      ld      b,#4f
7697  ff        rst     #38
7698  be        cp      (hl)
7699  2e00      ld      l,#00
769b  08        ex      af,af'
769c  5f        ld      e,a
769d  be        cp      (hl)
769e  b9        cp      c
769f  14        inc     d
76a0  46        ld      b,(hl)
76a1  c0        ret     nz

76a2  4b        ld      c,e
76a3  5e        ld      e,(hl)
76a4  d0        ret     nc

76a5  b5        or      l
76a6  6b        ld      l,e
76a7  a1        and     c
76a8  72        ld      (hl),d
76a9  61        ld      h,c
76aa  1f        rra     
76ab  c1        pop     bc
76ac  00        nop     
76ad  06c7      ld      b,#c7
76af  ded3      sbc     a,#d3
76b1  14        inc     d
76b2  e696      and     #96
76b4  53        ld      d,e
76b5  15        dec     d
76b6  f3        di      
76b7  8c        adc     a,h
76b8  5b        ld      e,e
76b9  be        cp      (hl)
76ba  54        ld      d,h
76bb  2e00      ld      l,#00
76bd  2049      jr      nz,#7708        ; (73)
76bf  45        ld      b,l
76c0  95        sub     l
76c1  8c        adc     a,h
76c2  f0        ret     p

76c3  bd        cp      l
76c4  91        sub     c
76c5  7a        ld      a,d
76c6  df        rst     #18
76c7  1636      ld      d,#36
76c9  49        ld      c,c
76ca  4b        ld      c,e
76cb  15        dec     d
76cc  0d        dec     c
76cd  8d        adc     a,l
76ce  c7        rst     #0
76cf  1611      ld      d,#11
76d1  bc        cp      h
76d2  96        sub     (hl)
76d3  64        ld      h,h
76d4  db72      in      a,(#72)
76d6  14        inc     d
76d7  b7        or      a
76d8  42        ld      b,d
76d9  55        ld      d,l
76da  49        ld      c,c
76db  72        ld      (hl),d
76dc  4b        ld      c,e
76dd  c68e      add     a,#8e
76df  48        ld      c,b
76e0  39        add     hl,sp
76e1  17        rla     
76e2  0d        dec     c
76e3  8d        adc     a,l
76e4  99        sbc     a,c
76e5  14        inc     d
76e6  5f        ld      e,a
76e7  4a        ld      c,d
76e8  82        add     a,d
76e9  17        rla     
76ea  55        ld      d,l
76eb  5e        ld      e,(hl)
76ec  2d        dec     l
76ed  49        ld      c,c
76ee  62        ld      h,d
76ef  a0        and     b
76f0  87        add     a,a
76f1  47        ld      b,a
76f2  d5        push    de
76f3  b5        or      l
76f4  d297d5    jp      nc,#d597
76f7  b5        or      l
76f8  76        halt    
76f9  75        ld      (hl),l
76fa  89        adc     a,c
76fb  14        inc     d
76fc  d0        ret     nc

76fd  47        ld      b,a
76fe  2e2b      ld      l,#2b
7700  3c        inc     a
7701  00        nop     
7702  00        nop     
7703  77        ld      (hl),a
7704  00        nop     
7705  14        inc     d
7706  96        sub     (hl)
7707  77        ld      (hl),a
7708  86        add     a,(hl)
7709  14        inc     d
770a  15        dec     d
770b  cb5b      bit     3,e
770d  5e        ld      e,(hl)
770e  1b        dec     de
770f  a1        and     c
7710  6b        ld      l,e
7711  bf        cp      a
7712  76        halt    
7713  a7        and     a
7714  09        add     hl,bc
7715  15        dec     d
7716  03        inc     bc
7717  d25fbe    jp      nc,#be5f
771a  53        ld      d,e
771b  17        rla     
771c  21b15b    ld      hl,#5bb1
771f  a5        and     l
7720  35        dec     (hl)
7721  6f        ld      l,a
7722  af        xor     a
7723  14        inc     d
7724  04        inc     b
7725  68        ld      l,b
7726  51        ld      d,c
7727  5e        ld      e,(hl)
7728  f0        ret     p

7729  a4        and     h
772a  91        sub     c
772b  7a        ld      a,d
772c  d615      sub     #15
772e  212100    ld      hl,#0021
7731  1e5f      ld      e,#5f
7733  be        cp      (hl)
7734  53        ld      d,e
7735  17        rla     
7736  21b15b    ld      hl,#5bb1
7739  a5        and     l
773a  35        dec     (hl)
773b  6f        ld      l,a
773c  e4148d    call    po,#8d14
773f  5f        ld      e,a
7740  d1        pop     de
7741  b5        or      l
7742  f0        ret     p

7743  a4        and     h
7744  14        inc     d
7745  eecf      xor     #cf
7747  62        ld      h,d
7748  43        ld      b,e
7749  48        ld      c,b
774a  ab        xor     e
774b  98        sbc     a,b
774c  069a      ld      b,#9a
774e  90        sub     b
774f  73        ld      (hl),e
7750  cb6a      bit     5,d
7752  9b        sbc     a,e
7753  9a        sbc     a,d
7754  ff        rst     #38
7755  59        ld      e,c
7756  4b        ld      c,e
7757  13        inc     de
7758  fb        ei      
7759  bb        cp      e
775a  3b        dec     sp
775b  13        inc     de
775c  ec16f2    call    pe,#f216
775f  9f        sbc     a,a
7760  13        inc     de
7761  bf        cp      a
7762  60        ld      h,b
7763  17        rla     
7764  ed48      in      c,(c)
7766  5a        ld      e,d
7767  17        rla     
7768  73        ld      (hl),e
7769  c673      add     a,#73
776b  47        ld      b,a
776c  a7        and     a
776d  7a        ld      a,d
776e  00        nop     
776f  14        inc     d
7770  c7        rst     #0
7771  de09      sbc     a,#09
7773  15        dec     d
7774  e696      and     #96
7776  9b        sbc     a,e
7777  15        dec     d
7778  5b        ld      e,e
7779  caa348    jp      z,#48a3
777c  63        ld      h,e
777d  be        cp      (hl)
777e  ab        xor     e
777f  98        sbc     a,b
7780  0c        inc     c
7781  ba        cp      d
7782  11a030    ld      de,#30a0
7785  15        dec     d
7786  29        add     hl,hl
7787  a1        and     c
7788  1671      ld      d,#71
778a  d1        pop     de
778b  9c        sbc     a,h
778c  f0        ret     p

778d  a4        and     h
778e  82        add     a,d
778f  17        rla     
7790  55        ld      d,l
7791  5e        ld      e,(hl)
7792  2d        dec     l
7793  49        ld      c,c
7794  62        ld      h,d
7795  a0        and     b
7796  87        add     a,a
7797  47        ld      b,a
7798  53        ld      d,e
7799  2e00      ld      l,#00
779b  1046      djnz    #77e3           ; (70)
779d  77        ld      (hl),a
779e  05        dec     b
779f  a0        and     b
77a0  0d        dec     c
77a1  bc        cp      h
77a2  09        add     hl,bc
77a3  9a        sbc     a,d
77a4  a9        xor     c
77a5  15        dec     d
77a6  d6ce      sub     #ce
77a8  ce9c      adc     a,#9c
77aa  5d        ld      e,l
77ab  9e        sbc     a,(hl)
77ac  c416b0    call    nz,#b016
77af  17        rla     
77b0  75        ld      (hl),l
77b1  8d        adc     a,l
77b2  d5        push    de
77b3  83        add     a,e
77b4  dac37b    jp      c,#7bc3
77b7  14        inc     d
77b8  63        ld      h,e
77b9  be        cp      (hl)
77ba  cf        rst     #8
77bb  98        sbc     a,b
77bc  00        nop     
77bd  105f      djnz    #781e           ; (95)
77bf  be        cp      (hl)
77c0  b3        or      e
77c1  14        inc     d
77c2  33        inc     sp
77c3  b1        or      c
77c4  fb        ei      
77c5  b9        cp      c
77c6  67        ld      h,a
77c7  c0        ret     nz

77c8  d5        push    de
77c9  15        dec     d
77ca  99        sbc     a,c
77cb  16c6      ld      d,#c6
77cd  ce86      adc     a,#86
77cf  5f        ld      e,a
77d0  3b        dec     sp
77d1  f48d7b    call    p,#7b8d
77d4  b9        cp      c
77d5  14        inc     d
77d6  fb        ei      
77d7  5c        ld      e,h
77d8  95        sub     l
77d9  5a        ld      e,d
77da  ea4894    jp      pe,#9448
77dd  5f        ld      e,a
77de  53        ld      d,e
77df  2e00      ld      l,#00
77e1  115fbe    ld      de,#be5f
77e4  66        ld      h,(hl)
77e5  17        rla     
77e6  0f        rrca    
77e7  a0        and     b
77e8  d5        push    de
77e9  15        dec     d
77ea  cf        rst     #8
77eb  17        rla     
77ec  7b        ld      a,e
77ed  b4        or      h
77ee  0c        inc     c
77ef  ba        cp      d
77f0  11a090    ld      de,#90a0
77f3  14        inc     d
77f4  0b        dec     bc
77f5  58        ld      e,b
77f6  cbb5      res     6,l
77f8  df        rst     #18
77f9  93        sub     e
77fa  13        inc     de
77fb  b4        or      h
77fc  35        dec     (hl)
77fd  a1        and     c
77fe  89        adc     a,c
77ff  17        rla     
7800  96        sub     (hl)
7801  14        inc     d
7802  45        ld      b,l
7803  bd        cp      l
7804  323c00    ld      (#003c),a
7807  00        nop     
7808  78        ld      a,b
7809  4b        ld      c,e
780a  2e00      ld      l,#00
780c  14        inc     d
780d  8e        adc     a,(hl)
780e  49        ld      c,c
780f  dd4691    ld      b,(ix-#6f)
7812  7a        ld      a,d
7813  82        add     a,d
7814  17        rla     
7815  55        ld      d,l
7816  5e        ld      e,(hl)
7817  3a629e    ld      a,(#9e62)
781a  61        ld      h,c
781b  b9        cp      c
781c  14        inc     d
781d  53        ld      d,e
781e  be        cp      (hl)
781f  77        ld      (hl),a
7820  5b        ld      e,e
7821  05        dec     b
7822  b9        cp      c
7823  19        add     hl,de
7824  bc        cp      h
7825  b5        or      l
7826  a0        and     b
7827  90        sub     b
7828  14        inc     d
7829  0b        dec     bc
782a  58        ld      e,b
782b  d8        ret     c

782c  b5        or      l
782d  43        ld      b,e
782e  62        ld      h,d
782f  fb        ei      
7830  14        inc     d
7831  b7        or      a
7832  98        sbc     a,b
7833  07        rlca    
7834  b3        or      e
7835  53        ld      d,e
7836  2e00      ld      l,#00
7838  07        rlca    
7839  c7        rst     #0
783a  ded3      sbc     a,#d3
783c  14        inc     d
783d  e696      and     #96
783f  af        xor     a
7840  14        inc     d
7841  57        ld      d,a
7842  17        rla     
7843  11b249    ld      de,#49b2
7846  c600      add     a,#00
7848  0b        dec     bc
7849  73        ld      (hl),e
784a  7b        ld      a,e
784b  4b        ld      c,e
784c  7b        ld      a,e
784d  7b        ld      a,e
784e  4d        ld      c,l
784f  0ea0      ld      c,#a0
7851  51        ld      d,c
7852  1823      jr      #7877           ; (35)
7854  c689      add     a,#89
7856  a6        and     (hl)
7857  23        inc     hl
7858  62        ld      h,d
7859  6b        ld      l,e
785a  bf        cp      a
785b  6b        ld      l,e
785c  5b        ld      e,e
785d  5b        ld      e,e
785e  be        cp      (hl)
785f  54        ld      d,h
7860  2e00      ld      l,#00
7862  09        add     hl,bc
7863  5b        ld      e,e
7864  be        cp      (hl)
7865  4b        ld      c,e
7866  99        sbc     a,c
7867  c7        rst     #0
7868  de0b      sbc     a,#0b
786a  ee19      xor     #19
786c  bc        cp      h
786d  4b        ld      c,e
786e  49        ld      c,c
786f  ee59      xor     #59
7871  db78      in      a,(#78)
7873  35        dec     (hl)
7874  a1        and     c
7875  21000a    ld      hl,#0a00
7878  56        ld      d,(hl)
7879  77        ld      (hl),a
787a  90        sub     b
787b  73        ld      (hl),e
787c  cb83      res     0,e
787e  ff        rst     #38
787f  15        dec     d
7880  f3        di      
7881  b9        cp      c
7882  85        add     a,l
7883  8d        adc     a,l
7884  0f        rrca    
7885  bc        cp      h
7886  43        ld      b,e
7887  db9f      in      a,(#9f)
7889  a6        and     (hl)
788a  96        sub     (hl)
788b  be        cp      (hl)
788c  45        ld      b,l
788d  2e00      ld      l,#00
788f  2c        inc     l
7890  c7        rst     #0
7891  de9b      sbc     a,#9b
7893  15        dec     d
7894  5b        ld      e,e
7895  ca4dbd    jp      z,#bd4d
7898  83        add     a,e
7899  61        ld      h,c
789a  46        ld      b,(hl)
789b  45        ld      b,l
789c  10b2      djnz    #7850           ; (-78)
789e  c8        ret     z

789f  83        add     a,e
78a0  ff        rst     #38
78a1  b2        or      d
78a2  82        add     a,d
78a3  17        rla     
78a4  55        ld      d,l
78a5  5e        ld      e,(hl)
78a6  ef        rst     #28
78a7  bf        cp      a
78a8  7f        ld      a,a
78a9  48        ld      c,b
78aa  56        ld      d,(hl)
78ab  13        inc     de
78ac  db72      in      a,(#72)
78ae  16d0      ld      d,#d0
78b0  23        inc     hl
78b1  62        ld      h,d
78b2  55        ld      d,l
78b3  bd        cp      l
78b4  f5        push    af
78b5  bd        cp      l
78b6  3b        dec     sp
78b7  13        inc     de
78b8  3b        dec     sp
78b9  13        inc     de
78ba  66        ld      h,(hl)
78bb  17        rla     
78bc  00        nop     
78bd  b3        or      e
78be  d36d      out     (#6d),a
78c0  b8        cp      b
78c1  166b      ld      d,#6b
78c3  1674      ld      d,#74
78c5  98        sbc     a,b
78c6  4d        ld      c,l
78c7  48        ld      c,b
78c8  04        inc     b
78c9  ee73      xor     #73
78cb  c64b      add     a,#4b
78cd  7b        ld      a,e
78ce  069a      ld      b,#9a
78d0  b0        or      b
78d1  17        rla     
78d2  ff        rst     #38
78d3  a5        and     l
78d4  53        ld      d,e
78d5  49        ld      c,c
78d6  d7        rst     #10
78d7  9a        sbc     a,d
78d8  4b        ld      c,e
78d9  13        inc     de
78da  0b        dec     bc
78db  bc        cp      h
78dc  c7        rst     #0
78dd  b5        or      l
78de  4c        ld      c,h
78df  d9        exx     
78e0  67        ld      h,a
78e1  61        ld      h,c
78e2  fb        ei      
78e3  8e        adc     a,(hl)
78e4  45        ld      b,l
78e5  13        inc     de
78e6  be        cp      (hl)
78e7  9f        sbc     a,a
78e8  2e00      ld      l,#00
78ea  1075      djnz    #7961           ; (117)
78ec  7b        ld      a,e
78ed  d0        ret     nc

78ee  b5        or      l
78ef  f3        di      
78f0  a0        and     b
78f1  70        ld      (hl),b
78f2  75        ld      (hl),l
78f3  c36e3b    jp      #3b6e
78f6  f4754d    call    p,#4d75
78f9  ff        rst     #38
78fa  78        ld      a,b
78fb  33        inc     sp
78fc  bb        cp      e
78fd  c7        rst     #0
78fe  de9b      sbc     a,#9b
7900  15        dec     d
7901  5b        ld      e,e
7902  caeb99    jp      z,#99eb
7905  14        inc     d
7906  4e        ld      c,(hl)
7907  15        dec     d
7908  58        ld      e,b
7909  93        sub     e
790a  3c        inc     a
790b  00        nop     
790c  00        nop     
790d  79        ld      a,c
790e  2660      ld      h,#60
7910  2e00      ld      l,#00
7912  12        ld      (de),a
7913  c7        rst     #0
7914  de4f      sbc     a,#4f
7916  15        dec     d
7917  f3        di      
7918  8c        adc     a,h
7919  9e        sbc     a,(hl)
791a  7a        ld      a,d
791b  c39ce3    jp      #e39c
791e  1603      ld      d,#03
7920  bc        cp      h
7921  33        inc     sp
7922  98        sbc     a,b
7923  79        ld      a,c
7924  4f        ld      c,a
7925  9b        sbc     a,e
7926  85        add     a,l
7927  cf        rst     #8
7928  62        ld      h,d
7929  7b        ld      a,e
792a  b4        or      h
792b  00        nop     
792c  4f        ld      c,a
792d  4b        ld      c,e
792e  5e        ld      e,(hl)
792f  9b        sbc     a,e
7930  96        sub     (hl)
7931  34        inc     (hl)
7932  a1        and     c
7933  b9        cp      c
7934  14        inc     d
7935  1f        rra     
7936  5d        ld      e,l
7937  2000      jr      nz,#7939        ; (0)
7939  0f        rrca    
793a  5f        ld      e,a
793b  be        cp      (hl)
793c  57        ld      d,a
793d  17        rla     
793e  1f        rra     
793f  b3        or      e
7940  b3        or      e
7941  9a        sbc     a,d
7942  55        ld      d,l
7943  72        ld      (hl),d
7944  99        sbc     a,c
7945  16c6      ld      d,#c6
7947  ced9      adc     a,#d9
7949  62        ld      h,d
794a  2f        cpl     
794b  c61b      add     a,#1b
794d  58        ld      e,b
794e  34        inc     (hl)
794f  a1        and     c
7950  b3        or      e
7951  14        inc     d
7952  33        inc     sp
7953  b1        or      c
7954  fb        ei      
7955  b9        cp      c
7956  67        ld      h,a
7957  c0        ret     nz

7958  2e00      ld      l,#00
795a  13        inc     de
795b  5f        ld      e,a
795c  be        cp      (hl)
795d  5b        ld      e,e
795e  b1        or      c
795f  4b        ld      c,e
7960  7b        ld      a,e
7961  069a      ld      b,#9a
7963  90        sub     b
7964  73        ld      (hl),e
7965  ca6a2f    jp      z,#2f6a
7968  62        ld      h,d
7969  d615      sub     #15
796b  f3        di      
796c  17        rla     
796d  cd9a89    call    #899a
7970  17        rla     
7971  23        inc     hl
7972  15        dec     d
7973  1d        dec     e
7974  bc        cp      h
7975  3a15b2    ld      a,(#b215)
7978  53        ld      d,e
7979  12        ld      (de),a
797a  bc        cp      h
797b  3262ed    ld      (#ed62),a
797e  48        ld      c,b
797f  51        ld      d,c
7980  1855      jr      #79d7           ; (85)
7982  2e00      ld      l,#00
7984  17        rla     
7985  73        ld      (hl),e
7986  7b        ld      a,e
7987  4b        ld      c,e
7988  7b        ld      a,e
7989  09        add     hl,bc
798a  9a        sbc     a,d
798b  e3        ex      (sp),hl
798c  169a      ld      d,#9a
798e  bd        cp      l
798f  fb        ei      
7990  14        inc     d
7991  6f        ld      l,a
7992  b2        or      d
7993  4b        ld      c,e
7994  13        inc     de
7995  9b        sbc     a,e
7996  64        ld      h,h
7997  1b        dec     de
7998  a1        and     c
7999  f9        ld      sp,hl
799a  a6        and     (hl)
799b  a7        and     a
799c  53        ld      d,e
799d  73        ld      (hl),e
799e  5d        ld      e,l
799f  c7        rst     #0
79a0  defb      sbc     a,#fb
79a2  17        rla     
79a3  f3        di      
79a4  8c        adc     a,h
79a5  8d        adc     a,l
79a6  8c        adc     a,h
79a7  53        ld      d,e
79a8  61        ld      h,c
79a9  4b        ld      c,e
79aa  15        dec     d
79ab  f3        di      
79ac  8c        adc     a,h
79ad  9e        sbc     a,(hl)
79ae  7a        ld      a,d
79af  fb        ei      
79b0  9d        sbc     a,l
79b1  96        sub     (hl)
79b2  a5        and     l
79b3  2e00      ld      l,#00
79b5  0d        dec     c
79b6  9f        sbc     a,a
79b7  77        ld      (hl),a
79b8  73        ld      (hl),e
79b9  15        dec     d
79ba  3f        ccf     
79bb  92        sub     d
79bc  59        ld      e,c
79bd  13        inc     de
79be  2ea1      ld      l,#a1
79c0  1b        dec     de
79c1  58        ld      e,b
79c2  1b        dec     de
79c3  a1        and     c
79c4  14        inc     d
79c5  53        ld      d,e
79c6  56        ld      d,(hl)
79c7  5e        ld      e,(hl)
79c8  c7        rst     #0
79c9  9c        sbc     a,h
79ca  a6        and     (hl)
79cb  d8        ret     c

79cc  d0        ret     nc

79cd  47        ld      b,a
79ce  a9        xor     c
79cf  15        dec     d
79d0  57        ld      d,a
79d1  3f        ccf     
79d2  00        nop     
79d3  41        ld      b,c
79d4  c7        rst     #0
79d5  de8e      sbc     a,#8e
79d7  af        xor     a
79d8  72        ld      (hl),d
79d9  48        ld      c,b
79da  d5        push    de
79db  15        dec     d
79dc  77        ld      (hl),a
79dd  15        dec     d
79de  43        ld      b,e
79df  c0        ret     nz

79e0  ab        xor     e
79e1  98        sbc     a,b
79e2  8f        adc     a,a
79e3  5a        ld      e,d
79e4  3b        dec     sp
79e5  f4c7de    call    p,#dec7
79e8  73        ld      (hl),e
79e9  21754d    ld      hl,#4d75
79ec  15        dec     d
79ed  bc        cp      h
79ee  54        ld      d,h
79ef  bd        cp      l
79f0  19        add     hl,de
79f1  bc        cp      h
79f2  d2b090    jp      nc,#90b0
79f5  a5        and     l
79f6  d66a      sub     #6a
79f8  95        sub     l
79f9  73        ld      (hl),e
79fa  b2        or      d
79fb  17        rla     
79fc  fb        ei      
79fd  edb0      ldir    
79ff  17        rla     
7a00  f5        push    af
7a01  8b        adc     a,e
7a02  dbb5      in      a,(#b5)
7a04  1b        dec     de
7a05  a1        and     c
7a06  1053      djnz    #7a5b           ; (83)
7a08  53        ld      d,e
7a09  15        dec     d
7a0a  33        inc     sp
7a0b  98        sbc     a,b
7a0c  3f        ccf     
7a0d  b9        cp      c
7a0e  99        sbc     a,c
7a0f  3c        inc     a
7a10  00        nop     
7a11  00        nop     
7a12  7a        ld      a,d
7a13  48        ld      c,b
7a14  5e        ld      e,(hl)
7a15  75        ld      (hl),l
7a16  b1        or      c
7a17  04        inc     b
7a18  71        ld      (hl),c
7a19  8e        adc     a,(hl)
7a1a  49        ld      c,c
7a1b  33        inc     sp
7a1c  62        ld      h,d
7a1d  6f        ld      l,a
7a1e  62        ld      h,d
7a1f  4b        ld      c,e
7a20  13        inc     de
7a21  57        ld      d,a
7a22  17        rla     
7a23  5b        ld      e,e
7a24  61        ld      h,c
7a25  6b        ld      l,e
7a26  bf        cp      a
7a27  65        ld      h,l
7a28  b1        or      c
7a29  46        ld      b,(hl)
7a2a  48        ld      c,b
7a2b  3b        dec     sp
7a2c  13        inc     de
7a2d  56        ld      d,(hl)
7a2e  13        inc     de
7a2f  f4724b    call    p,#4b72
7a32  5e        ld      e,(hl)
7a33  c3b5cf    jp      #cfb5
7a36  17        rla     
7a37  43        ld      b,e
7a38  98        sbc     a,b
7a39  ab        xor     e
7a3a  98        sbc     a,b
7a3b  85        add     a,l
7a3c  91        sub     c
7a3d  90        sub     b
7a3e  73        ld      (hl),e
7a3f  4b        ld      c,e
7a40  5e        ld      e,(hl)
7a41  96        sub     (hl)
7a42  96        sub     (hl)
7a43  db72      in      a,(#72)
7a45  9c        sbc     a,h
7a46  91        sub     c
7a47  db63      in      a,(#63)
7a49  bc        cp      h
7a4a  14        inc     d
7a4b  91        sub     c
7a4c  7a        ld      a,d
7a4d  61        ld      h,c
7a4e  17        rla     
7a4f  1b        dec     de
7a50  92        sub     d
7a51  3b        dec     sp
7a52  55        ld      d,l
7a53  8b        adc     a,e
7a54  9a        sbc     a,d
7a55  56        ld      d,(hl)
7a56  d1        pop     de
7a57  fb        ei      
7a58  70        ld      (hl),b
7a59  c7        rst     #0
7a5a  de2e      sbc     a,#2e
7a5c  00        nop     
7a5d  0a        ld      a,(bc)
7a5e  c7        rst     #0
7a5f  de8e      sbc     a,#8e
7a61  af        xor     a
7a62  72        ld      (hl),d
7a63  48        ld      c,b
7a64  9b        sbc     a,e
7a65  15        dec     d
7a66  d4b583    call    nc,#83b5
7a69  c5        push    bc
7a6a  36a1      ld      (hl),#a1
7a6c  b8        cp      b
7a6d  16e9      ld      d,#e9
7a6f  16b4      ld      d,#b4
7a71  d0        ret     nc

7a72  2e00      ld      l,#00
7a74  17        rla     
7a75  5f        ld      e,a
7a76  be        cp      (hl)
7a77  e616      and     #16
7a79  9e        sbc     a,(hl)
7a7a  48        ld      c,b
7a7b  9b        sbc     a,e
7a7c  15        dec     d
7a7d  c7        rst     #0
7a7e  b5        or      l
7a7f  97        sub     a
7a80  d643      sub     #43
7a82  a7        and     a
7a83  0b        dec     bc
7a84  a0        and     b
7a85  13        inc     de
7a86  8d        adc     a,l
7a87  ff        rst     #38
7a88  14        inc     d
7a89  d361      out     (#61),a
7a8b  01b30b    ld      bc,#0bb3
7a8e  c0        ret     nz

7a8f  8e        adc     a,(hl)
7a90  48        ld      c,b
7a91  d314      out     (#14),a
7a93  d9        exx     
7a94  99        sbc     a,c
7a95  04        inc     b
7a96  bc        cp      h
7a97  52        ld      d,d
7a98  5e        ld      e,(hl)
7a99  46        ld      b,(hl)
7a9a  c5        push    bc
7a9b  f3        di      
7a9c  5f        ld      e,a
7a9d  3b        dec     sp
7a9e  13        inc     de
7a9f  5c        ld      e,h
7aa0  15        dec     d
7aa1  3f        ccf     
7aa2  60        ld      h,b
7aa3  00        nop     
7aa4  1a        ld      a,(de)
7aa5  c7        rst     #0
7aa6  de8e      sbc     a,#8e
7aa8  af        xor     a
7aa9  72        ld      (hl),d
7aaa  48        ld      c,b
7aab  d5        push    de
7aac  15        dec     d
7aad  77        ld      (hl),a
7aae  15        dec     d
7aaf  43        ld      b,e
7ab0  c0        ret     nz

7ab1  ab        xor     e
7ab2  98        sbc     a,b
7ab3  8f        adc     a,a
7ab4  5a        ld      e,d
7ab5  3b        dec     sp
7ab6  f49f77    call    p,#779f
7ab9  7b        ld      a,e
7aba  17        rla     
7abb  50        ld      d,b
7abc  86        add     a,(hl)
7abd  d66a      sub     #6a
7abf  db72      in      a,(#72)
7ac1  84        add     a,h
7ac2  8c        adc     a,h
7ac3  3e62      ld      a,#62
7ac5  51        ld      d,c
7ac6  db94      in      a,(#94)
7ac8  64        ld      h,h
7ac9  e661      and     #61
7acb  db46      in      a,(#46)
7acd  ab        xor     e
7ace  98        sbc     a,b
7acf  82        add     a,d
7ad0  17        rla     
7ad1  44        ld      b,h
7ad2  5e        ld      e,(hl)
7ad3  8e        adc     a,(hl)
7ad4  49        ld      c,c
7ad5  33        inc     sp
7ad6  62        ld      h,d
7ad7  6f        ld      l,a
7ad8  62        ld      h,d
7ad9  00        nop     
7ada  25        dec     h
7adb  4b        ld      c,e
7adc  49        ld      c,c
7add  c7        rst     #0
7ade  de92      sbc     a,#92
7ae0  14        inc     d
7ae1  f9        ld      sp,hl
7ae2  a6        and     (hl)
7ae3  da4682    jp      c,#8246
7ae6  17        rla     
7ae7  55        ld      d,l
7ae8  5e        ld      e,(hl)
7ae9  56        ld      d,(hl)
7aea  bd        cp      l
7aeb  3ec4      ld      a,#c4
7aed  d615      sub     #15
7aef  e1        pop     hl
7af0  14        inc     d
7af1  35        dec     (hl)
7af2  92        sub     d
7af3  89        adc     a,c
7af4  17        rla     
7af5  43        ld      b,e
7af6  165b      ld      d,#5b
7af8  66        ld      h,(hl)
7af9  8e        adc     a,(hl)
7afa  48        ld      c,b
7afb  56        ld      d,(hl)
7afc  15        dec     d
7afd  35        dec     (hl)
7afe  79        ld      a,c
7aff  85        add     a,l
7b00  14        inc     d
7b01  05        dec     b
7b02  b3        or      e
7b03  bb        cp      e
7b04  b5        or      l
7b05  82        add     a,d
7b06  17        rla     
7b07  45        ld      b,l
7b08  5e        ld      e,(hl)
7b09  4f        ld      c,a
7b0a  72        ld      (hl),d
7b0b  74        ld      (hl),h
7b0c  4d        ld      c,l
7b0d  fa172f    jp      m,#2f17
7b10  62        ld      h,d
7b11  d615      sub     #15
7b13  dd3c      inc     a
7b15  00        nop     
7b16  00        nop     
7b17  7b        ld      a,e
7b18  3b        dec     sp
7b19  164d      ld      d,#4d
7b1b  98        sbc     a,b
7b1c  90        sub     b
7b1d  14        inc     d
7b1e  14        inc     d
7b1f  58        ld      e,b
7b20  8f        adc     a,a
7b21  62        ld      h,d
7b22  ddb2      or      d
7b24  89        adc     a,c
7b25  17        rla     
7b26  66        ld      h,(hl)
7b27  17        rla     
7b28  0f        rrca    
7b29  a0        and     b
7b2a  2e00      ld      l,#00
7b2c  10c7      djnz    #7af5           ; (-57)
7b2e  ded3      sbc     a,#d3
7b30  14        inc     d
7b31  8e        adc     a,(hl)
7b32  96        sub     (hl)
7b33  5e        ld      e,(hl)
7b34  79        ld      a,c
7b35  82        add     a,d
7b36  17        rla     
7b37  55        ld      d,l
7b38  5e        ld      e,(hl)
7b39  56        ld      d,(hl)
7b3a  bd        cp      l
7b3b  3ec4      ld      a,#c4
7b3d  bf        cp      a
7b3e  14        inc     d
7b3f  1b        dec     de
7b40  bc        cp      h
7b41  1b        dec     de
7b42  a1        and     c
7b43  1053      djnz    #7b98           ; (83)
7b45  069a      ld      b,#9a
7b47  d314      out     (#14),a
7b49  83        add     a,e
7b4a  b3        or      e
7b4b  d615      sub     #15
7b4d  2e00      ld      l,#00
7b4f  09        add     hl,bc
7b50  c7        rst     #0
7b51  de84      sbc     a,#84
7b53  af        xor     a
7b54  0ea1      ld      c,#a1
7b56  db8b      in      a,(#8b)
7b58  4b        ld      c,e
7b59  7b        ld      a,e
7b5a  4c        ld      c,h
7b5b  48        ld      c,b
7b5c  86        add     a,(hl)
7b5d  5f        ld      e,a
7b5e  48        ld      c,b
7b5f  db46      in      a,(#46)
7b61  c5        push    bc
7b62  2e00      ld      l,#00
7b64  48        ld      c,b
7b65  3b        dec     sp
7b66  13        inc     de
7b67  55        ld      d,l
7b68  13        inc     de
7b69  fec3      cp      #c3
7b6b  96        sub     (hl)
7b6c  61        ld      h,c
7b6d  b3        or      e
7b6e  e0        ret     po

7b6f  4f        ld      c,a
7b70  45        ld      b,l
7b71  6f        ld      l,a
7b72  c5        push    bc
7b73  45        ld      b,l
7b74  db67      in      a,(#67)
7b76  b1        or      c
7b77  0b        dec     bc
7b78  a7        and     a
7b79  d3c5      out     (#c5),a
7b7b  6a        ld      l,d
7b7c  4d        ld      c,l
7b7d  8e        adc     a,(hl)
7b7e  7a        ld      a,d
7b7f  51        ld      d,c
7b80  18e9      jr      #7b6b           ; (-23)
7b82  c1        pop     bc
7b83  3b        dec     sp
7b84  13        inc     de
7b85  3b        dec     sp
7b86  13        inc     de
7b87  fd1b      dec     de
7b89  56        ld      d,(hl)
7b8a  90        sub     b
7b8b  db72      in      a,(#72)
7b8d  3b        dec     sp
7b8e  13        inc     de
7b8f  17        rla     
7b90  16df      ld      d,#df
7b92  61        ld      h,c
7b93  91        sub     c
7b94  af        xor     a
7b95  96        sub     (hl)
7b96  64        ld      h,h
7b97  db72      in      a,(#72)
7b99  7f        ld      a,a
7b9a  bf        cp      a
7b9b  c64b      add     a,#4b
7b9d  4a        ld      c,d
7b9e  13        inc     de
7b9f  59        ld      e,c
7ba0  5e        ld      e,(hl)
7ba1  ce47      adc     a,#47
7ba3  33        inc     sp
7ba4  bb        cp      e
7ba5  fb        ei      
7ba6  1b        dec     de
7ba7  4d        ld      c,l
7ba8  bd        cp      l
7ba9  56        ld      d,(hl)
7baa  5e        ld      e,(hl)
7bab  f5        push    af
7bac  72        ld      (hl),d
7bad  56        ld      d,(hl)
7bae  5e        ld      e,(hl)
7baf  63        ld      h,e
7bb0  b1        or      c
7bb1  34        inc     (hl)
7bb2  ba        cp      d
7bb3  4b        ld      c,e
7bb4  62        ld      h,d
7bb5  8e        adc     a,(hl)
7bb6  48        ld      c,b
7bb7  ef        rst     #28
7bb8  1616      ld      d,#16
7bba  bc        cp      h
7bbb  ef        rst     #28
7bbc  72        ld      (hl),d
7bbd  d0        ret     nc

7bbe  15        dec     d
7bbf  82        add     a,d
7bc0  17        rla     
7bc1  45        ld      b,l
7bc2  5e        ld      e,(hl)
7bc3  f5        push    af
7bc4  72        ld      (hl),d
7bc5  06bc      ld      b,#bc
7bc7  3260d0    ld      (#d060),a
7bca  15        dec     d
7bcb  82        add     a,d
7bcc  17        rla     
7bcd  4f        ld      c,a
7bce  5e        ld      e,(hl)
7bcf  6f        ld      l,a
7bd0  4a        ld      c,d
7bd1  e3        ex      (sp),hl
7bd2  069f      ld      b,#9f
7bd4  15        dec     d
7bd5  84        add     a,h
7bd6  15        dec     d
7bd7  bd        cp      l
7bd8  46        ld      b,(hl)
7bd9  51        ld      d,c
7bda  1823      jr      #7bff           ; (35)
7bdc  c6ef      add     a,#ef
7bde  bf        cp      a
7bdf  67        ld      h,a
7be0  49        ld      c,c
7be1  5b        ld      e,e
7be2  b1        or      c
7be3  8e        adc     a,(hl)
7be4  48        ld      c,b
7be5  d0        ret     nc

7be6  c9        ret     

7be7  5a        ld      e,d
7be8  7b        ld      a,e
7be9  4b        ld      c,e
7bea  62        ld      h,d
7beb  9e        sbc     a,(hl)
7bec  7a        ld      a,d
7bed  d69c      sub     #9c
7bef  db72      in      a,(#72)
7bf1  c9        ret     

7bf2  6d        ld      l,l
7bf3  ff        rst     #38
7bf4  9f        sbc     a,a
7bf5  00        nop     
7bf6  0a        ld      a,(bc)
7bf7  5f        ld      e,a
7bf8  be        cp      (hl)
7bf9  66        ld      h,(hl)
7bfa  17        rla     
7bfb  0f        rrca    
7bfc  a0        and     b
7bfd  bc        cp      h
7bfe  14        inc     d
7bff  01794a    ld      bc,#4a79
7c02  5e        ld      e,(hl)
7c03  4b        ld      c,e
7c04  49        ld      c,c
7c05  76        halt    
7c06  b1        or      c
7c07  c5        push    bc
7c08  b0        or      b
7c09  e6bd      and     #bd
7c0b  21000e    ld      hl,#0e00
7c0e  55        ld      d,l
7c0f  45        ld      b,l
7c10  80        add     a,b
7c11  bf        cp      a
7c12  44        ld      b,h
7c13  5e        ld      e,(hl)
7c14  06b2      ld      b,#b2
7c16  9b        sbc     a,e
7c17  6c        ld      l,h
7c18  d5        push    de
7c19  3c        inc     a
7c1a  00        nop     
7c1b  00        nop     
7c1c  7c        ld      a,h
7c1d  09        add     hl,bc
7c1e  9a        sbc     a,d
7c1f  62        ld      h,d
7c20  17        rla     
7c21  9d        sbc     a,l
7c22  48        ld      c,b
7c23  82        add     a,d
7c24  17        rla     
7c25  44        ld      b,h
7c26  5e        ld      e,(hl)
7c27  0ea1      ld      c,#a1
7c29  ee9f      xor     #9f
7c2b  65        ld      h,l
7c2c  62        ld      h,d
7c2d  e3        ex      (sp),hl
7c2e  1654      ld      d,#54
7c30  2e00      ld      l,#00
7c32  12        ld      (de),a
7c33  5f        ld      e,a
7c34  be        cp      (hl)
7c35  cb17      rl      a
7c37  9b        sbc     a,e
7c38  b7        or      a
7c39  4b        ld      c,e
7c3a  7b        ld      a,e
7c3b  09        add     hl,bc
7c3c  9a        sbc     a,d
7c3d  2f        cpl     
7c3e  17        rla     
7c3f  03        inc     bc
7c40  ba        cp      d
7c41  ce98      adc     a,#98
7c43  ff        rst     #38
7c44  14        inc     d
7c45  85        add     a,l
7c46  8c        adc     a,h
7c47  7f        ld      a,a
7c48  49        ld      c,c
7c49  1e8f      ld      e,#8f
7c4b  c0        ret     nz

7c4c  167b      ld      d,#7b
7c4e  14        inc     d
7c4f  6e        ld      l,(hl)
7c50  ca76ca    jp      z,#ca76
7c53  e3        ex      (sp),hl
7c54  1609      ld      d,#09
7c56  8d        adc     a,l
7c57  57        ld      d,a
7c58  2e00      ld      l,#00
7c5a  0c        inc     c
7c5b  5f        ld      e,a
7c5c  be        cp      (hl)
7c5d  cb17      rl      a
7c5f  9b        sbc     a,e
7c60  b7        or      a
7c61  f9        ld      sp,hl
7c62  5b        ld      e,e
7c63  0b        dec     bc
7c64  a7        and     a
7c65  56        ld      d,(hl)
7c66  d1        pop     de
7c67  03        inc     bc
7c68  71        ld      (hl),c
7c69  ff        rst     #38
7c6a  14        inc     d
7c6b  85        add     a,l
7c6c  8c        adc     a,h
7c6d  7f        ld      a,a
7c6e  49        ld      c,c
7c6f  e4145a    call    po,#5a14
7c72  49        ld      c,c
7c73  2e00      ld      l,#00
7c75  0d        dec     c
7c76  5f        ld      e,a
7c77  be        cp      (hl)
7c78  5b        ld      e,e
7c79  b1        or      c
7c7a  2f        cpl     
7c7b  49        ld      c,c
7c7c  99        sbc     a,c
7c7d  16d5      ld      d,#d5
7c7f  cee7      adc     a,#e7
7c81  9f        sbc     a,a
7c82  5c        ld      e,h
7c83  15        dec     d
7c84  5a        ld      e,d
7c85  62        ld      h,d
7c86  ab        xor     e
7c87  14        inc     d
7c88  3f        ccf     
7c89  c0        ret     nz

7c8a  07        rlca    
7c8b  b2        or      d
7c8c  cab52f    jp      z,#2fb5
7c8f  62        ld      h,d
7c90  2e00      ld      l,#00
7c92  15        dec     d
7c93  c7        rst     #0
7c94  de9b      sbc     a,#9b
7c96  15        dec     d
7c97  5b        ld      e,e
7c98  ca4dbd    jp      z,#bd4d
7c9b  83        add     a,e
7c9c  61        ld      h,c
7c9d  5f        ld      e,a
7c9e  be        cp      (hl)
7c9f  cb17      rl      a
7ca1  9b        sbc     a,e
7ca2  b7        or      a
7ca3  8e        adc     a,(hl)
7ca4  48        ld      c,b
7ca5  af        xor     a
7ca6  15        dec     d
7ca7  7f        ld      a,a
7ca8  b2        or      d
7ca9  0b        dec     bc
7caa  58        ld      e,b
7cab  06bc      ld      b,#bc
7cad  43        ld      b,e
7cae  61        ld      h,c
7caf  1653      ld      d,#53
7cb1  53        ld      d,e
7cb2  61        ld      h,c
7cb3  89        adc     a,c
7cb4  17        rla     
7cb5  82        add     a,d
7cb6  17        rla     
7cb7  49        ld      c,c
7cb8  5e        ld      e,(hl)
7cb9  07        rlca    
7cba  b3        or      e
7cbb  57        ld      d,a
7cbc  98        sbc     a,b
7cbd  00        nop     
7cbe  2f        cpl     
7cbf  5f        ld      e,a
7cc0  be        cp      (hl)
7cc1  b3        or      e
7cc2  14        inc     d
7cc3  33        inc     sp
7cc4  b1        or      c
7cc5  fb        ei      
7cc6  b9        cp      c
7cc7  67        ld      h,a
7cc8  c0        ret     nz

7cc9  e1        pop     hl
7cca  14        inc     d
7ccb  35        dec     (hl)
7ccc  92        sub     d
7ccd  89        adc     a,c
7cce  17        rla     
7ccf  43        ld      b,e
7cd0  165b      ld      d,#5b
7cd2  66        ld      h,(hl)
7cd3  8e        adc     a,(hl)
7cd4  48        ld      c,b
7cd5  96        sub     (hl)
7cd6  14        inc     d
7cd7  45        ld      b,l
7cd8  bd        cp      l
7cd9  cb87      res     0,a
7cdb  5f        ld      e,a
7cdc  be        cp      (hl)
7cdd  57        ld      d,a
7cde  17        rla     
7cdf  1f        rra     
7ce0  b3        or      e
7ce1  b3        or      e
7ce2  9a        sbc     a,d
7ce3  8e        adc     a,(hl)
7ce4  48        ld      c,b
7ce5  d0        ret     nc

7ce6  15        dec     d
7ce7  90        sub     b
7ce8  14        inc     d
7ce9  95        sub     l
7cea  14        inc     d
7ceb  87        add     a,a
7cec  bf        cp      a
7ced  43        ld      b,e
7cee  98        sbc     a,b
7cef  ab        xor     e
7cf0  98        sbc     a,b
7cf1  8f        adc     a,a
7cf2  67        ld      h,a
7cf3  83        add     a,e
7cf4  b3        or      e
7cf5  06ee      ld      b,#ee
7cf7  18b2      jr      #7cab           ; (-78)
7cf9  4b        ld      c,e
7cfa  62        ld      h,d
7cfb  5f        ld      e,a
7cfc  be        cp      (hl)
7cfd  57        ld      d,a
7cfe  17        rla     
7cff  1f        rra     
7d00  b3        or      e
7d01  b3        or      e
7d02  9a        sbc     a,d
7d03  f3        di      
7d04  49        ld      c,c
7d05  dbe0      in      a,(#e0)
7d07  82        add     a,d
7d08  17        rla     
7d09  44        ld      b,h
7d0a  5e        ld      e,(hl)
7d0b  2e7b      ld      l,#7b
7d0d  8f        adc     a,a
7d0e  17        rla     
7d0f  ddb2      or      d
7d11  ab        xor     e
7d12  14        inc     d
7d13  9b        sbc     a,e
7d14  54        ld      d,h
7d15  c9        ret     

7d16  9a        sbc     a,d
7d17  7b        ld      a,e
7d18  14        inc     d
7d19  fb        ei      
7d1a  b9        cp      c
7d1b  67        ld      h,a
7d1c  c0        ret     nz

7d1d  163c      ld      d,#3c
7d1f  00        nop     
7d20  00        nop     
7d21  7d        ld      a,l
7d22  2e00      ld      l,#00
7d24  12        ld      (de),a
7d25  5f        ld      e,a
7d26  be        cp      (hl)
7d27  e616      and     #16
7d29  9e        sbc     a,(hl)
7d2a  48        ld      c,b
7d2b  62        ld      h,d
7d2c  17        rla     
7d2d  3ec6      ld      a,#c6
7d2f  cbb5      res     6,l
7d31  c9        ret     

7d32  9a        sbc     a,d
7d33  5f        ld      e,a
7d34  15        dec     d
7d35  11b24b    ld      de,#4bb2
7d38  c6b9      add     a,#b9
7d3a  6e        ld      l,(hl)
7d3b  02        ld      (bc),a
7d3c  d359      out     (#59),a
7d3e  15        dec     d
7d3f  83        add     a,e
7d40  af        xor     a
7d41  4f        ld      c,a
7d42  15        dec     d
7d43  d5        push    de
7d44  cee1      adc     a,#e1
7d46  5f        ld      e,a
7d47  4d        ld      c,l
7d48  98        sbc     a,b
7d49  2e00      ld      l,#00
7d4b  165f      ld      d,#5f
7d4d  be        cp      (hl)
7d4e  e616      and     #16
7d50  9e        sbc     a,(hl)
7d51  48        ld      c,b
7d52  84        add     a,h
7d53  15        dec     d
7d54  85        add     a,l
7d55  a1        and     c
7d56  3a1509    ld      a,(#0915)
7d59  a6        and     (hl)
7d5a  58        ld      e,b
7d5b  b8        cp      b
7d5c  53        ld      d,e
7d5d  61        ld      h,c
7d5e  03        inc     bc
7d5f  ee31      xor     #31
7d61  8d        adc     a,l
7d62  f3        di      
7d63  b9        cp      c
7d64  0e67      ld      c,#67
7d66  90        sub     b
7d67  8c        adc     a,h
7d68  d66a      sub     #6a
7d6a  db72      in      a,(#72)
7d6c  064f      ld      b,#4f
7d6e  7f        ld      a,a
7d6f  bf        cp      a
7d70  b8        cp      b
7d71  1682      ld      d,#82
7d73  17        rla     
7d74  3b        dec     sp
7d75  5e        ld      e,(hl)
7d76  e3        ex      (sp),hl
7d77  1654      ld      d,#54
7d79  2e00      ld      l,#00
7d7b  11c7de    ld      de,#dec7
7d7e  4f        ld      c,a
7d7f  24        inc     h
7d80  c8        ret     z

7d81  1645      ld      d,#45
7d83  62        ld      h,d
7d84  16d0      ld      d,#d0
7d86  2f        cpl     
7d87  62        ld      h,d
7d88  1658      ld      d,#58
7d8a  db72      in      a,(#72)
7d8c  fb        ei      
7d8d  a5        and     l
7d8e  b1        or      c
7d8f  9a        sbc     a,d
7d90  4b        ld      c,e
7d91  13        inc     de
7d92  65        ld      h,l
7d93  bc        cp      h
7d94  5a        ld      e,d
7d95  17        rla     
7d96  18b2      jr      #7d4a           ; (-78)
7d98  43        ld      b,e
7d99  61        ld      h,c
7d9a  ab        xor     e
7d9b  98        sbc     a,b
7d9c  d1        pop     de
7d9d  c5        push    bc
7d9e  00        nop     
7d9f  15        dec     d
7da0  5f        ld      e,a
7da1  be        cp      (hl)
7da2  5b        ld      e,e
7da3  b1        or      c
7da4  4b        ld      c,e
7da5  7b        ld      a,e
7da6  069a      ld      b,#9a
7da8  90        sub     b
7da9  73        ld      (hl),e
7daa  ca6a2f    jp      z,#2f6a
7dad  62        ld      h,d
7dae  89        adc     a,c
7daf  17        rla     
7db0  de14      sbc     a,#14
7db2  64        ld      h,h
7db3  7a        ld      a,d
7db4  3b        dec     sp
7db5  f457c6    call    p,#c657
7db8  b2        or      d
7db9  17        rla     
7dba  c416c7    call    nz,#c716
7dbd  1616      ld      d,#16
7dbf  bc        cp      h
7dc0  ce9c      adc     a,#9c
7dc2  98        sbc     a,b
7dc3  5f        ld      e,a
7dc4  56        ld      d,(hl)
7dc5  5e        ld      e,(hl)
7dc6  db72      in      a,(#72)
7dc8  96        sub     (hl)
7dc9  a5        and     l
7dca  2e00      ld      l,#00
7dcc  3813      jr      c,#7de1         ; (19)
7dce  9f        sbc     a,a
7dcf  e3        ex      (sp),hl
7dd0  59        ld      e,c
7dd1  f3        di      
7dd2  b4        or      h
7dd3  c7        rst     #0
7dd4  de57      sbc     a,#57
7dd6  17        rla     
7dd7  5b        ld      e,e
7dd8  61        ld      h,c
7dd9  6b        ld      l,e
7dda  bf        cp      a
7ddb  58        ld      e,b
7ddc  72        ld      (hl),d
7ddd  49        ld      c,c
7dde  5e        ld      e,(hl)
7ddf  0ea1      ld      c,#a1
7de1  83        add     a,e
7de2  61        ld      h,c
7de3  c7        rst     #0
7de4  de97      sbc     a,#97
7de6  b3        or      e
7de7  03        inc     bc
7de8  8c        adc     a,h
7de9  4e        ld      c,(hl)
7dea  86        add     a,(hl)
7deb  e68b      and     #8b
7ded  3b        dec     sp
7dee  f44f77    call    p,#774f
7df1  7a        ld      a,d
7df2  79        ld      a,c
7df3  04        inc     b
7df4  bc        cp      h
7df5  3b        dec     sp
7df6  5e        ld      e,(hl)
7df7  84        add     a,h
7df8  14        inc     d
7df9  db8b      in      a,(#8b)
7dfb  6b        ld      l,e
7dfc  bf        cp      a
7dfd  ee72      xor     #72
7dff  1b        dec     de
7e00  a3        and     e
7e01  1b        dec     de
7e02  a1        and     c
7e03  36a1      ld      (hl),#a1
7e05  04        inc     b
7e06  ee73      xor     #73
7e08  c6a8      add     a,#a8
7e0a  77        ld      (hl),a
7e0b  50        ld      d,b
7e0c  5e        ld      e,(hl)
7e0d  cf        rst     #8
7e0e  62        ld      h,d
7e0f  94        sub     h
7e10  af        xor     a
7e11  8e        adc     a,(hl)
7e12  5f        ld      e,a
7e13  fb        ei      
7e14  8e        adc     a,(hl)
7e15  80        add     a,b
7e16  5b        ld      e,e
7e17  56        ld      d,(hl)
7e18  5e        ld      e,(hl)
7e19  95        sub     l
7e1a  73        ld      (hl),e
7e1b  af        xor     a
7e1c  14        inc     d
7e1d  04        inc     b
7e1e  68        ld      l,b
7e1f  db63      in      a,(#63)
7e21  46        ld      b,(hl)
7e22  91        sub     c
7e23  3c        inc     a
7e24  00        nop     
7e25  00        nop     
7e26  7e        ld      a,(hl)
7e27  13        inc     de
7e28  db9c      in      a,(#9c)
7e2a  1b        dec     de
7e2b  a1        and     c
7e2c  10d0      djnz    #7dfe           ; (-48)
7e2e  0f        rrca    
7e2f  bc        cp      h
7e30  56        ld      d,(hl)
7e31  5e        ld      e,(hl)
7e32  d69c      sub     #9c
7e34  7b        ld      a,e
7e35  b4        or      h
7e36  6b        ld      l,e
7e37  bf        cp      a
7e38  6b        ld      l,e
7e39  b1        or      c
7e3a  13        inc     de
7e3b  98        sbc     a,b
7e3c  cbb2      res     6,d
7e3e  dbbd      in      a,(#bd)
7e40  c7        rst     #0
7e41  de3f      sbc     a,#3f
7e43  00        nop     
7e44  2c        inc     l
7e45  c7        rst     #0
7e46  dede      sbc     a,#de
7e48  14        inc     d
7e49  75        ld      (hl),l
7e4a  c5        push    bc
7e4b  51        ld      d,c
7e4c  db66      in      a,(#66)
7e4e  47        ld      b,a
7e4f  51        ld      d,c
7e50  18a8      jr      #7dfa           ; (-88)
7e52  c2465e    jp      nz,#5e46
7e55  0f        rrca    
7e56  a0        and     b
7e57  d615      sub     #15
7e59  89        adc     a,c
7e5a  14        inc     d
7e5b  d0        ret     nc

7e5c  47        ld      b,a
7e5d  bb        cp      e
7e5e  0646      ld      b,#46
7e60  77        ld      (hl),a
7e61  05        dec     b
7e62  a0        and     b
7e63  0d        dec     c
7e64  bc        cp      h
7e65  09        add     hl,bc
7e66  9a        sbc     a,d
7e67  a9        xor     c
7e68  15        dec     d
7e69  cece      adc     a,#ce
7e6b  11a0bb    ld      de,#bba0
7e6e  15        dec     d
7e6f  d314      out     (#14),a
7e71  8d        adc     a,l
7e72  96        sub     (hl)
7e73  326082    ld      (#8260),a
7e76  17        rla     
7e77  4b        ld      c,e
7e78  7b        ld      a,e
7e79  f7        rst     #30
7e7a  c5        push    bc
7e7b  46        ld      b,(hl)
7e7c  13        inc     de
7e7d  db9c      in      a,(#9c)
7e7f  1b        dec     de
7e80  a1        and     c
7e81  10d0      djnz    #7e53           ; (-48)
7e83  0f        rrca    
7e84  bc        cp      h
7e85  56        ld      d,(hl)
7e86  5e        ld      e,(hl)
7e87  d69c      sub     #9c
7e89  7b        ld      a,e
7e8a  b4        or      h
7e8b  6b        ld      l,e
7e8c  b1        or      c
7e8d  13        inc     de
7e8e  98        sbc     a,b
7e8f  cbb2      res     6,d
7e91  90        sub     b
7e92  be        cp      (hl)
7e93  db6a      in      a,(#6a)
7e95  1b        dec     de
7e96  a1        and     c
7e97  3b        dec     sp
7e98  13        inc     de
7e99  43        ld      b,e
7e9a  13        inc     de
7e9b  0b        dec     bc
7e9c  6c        ld      l,h
7e9d  4e        ld      c,(hl)
7e9e  3f        ccf     
7e9f  00        nop     
7ea0  1c        inc     e
7ea1  55        ld      d,l
7ea2  77        ld      (hl),a
7ea3  2f        cpl     
7ea4  60        ld      h,b
7ea5  89        adc     a,c
7ea6  17        rla     
7ea7  af        xor     a
7ea8  14        inc     d
7ea9  c7        rst     #0
7eaa  1611      ld      d,#11
7eac  bc        cp      h
7ead  91        sub     c
7eae  64        ld      h,h
7eaf  d0        ret     nc

7eb0  b0        or      b
7eb1  9b        sbc     a,e
7eb2  6c        ld      l,h
7eb3  f1        pop     af
7eb4  b8        cp      b
7eb5  bf        cp      a
7eb6  85        add     a,l
7eb7  4a        ld      c,d
7eb8  13        inc     de
7eb9  6b        ld      l,e
7eba  a1        and     c
7ebb  1053      djnz    #7f10           ; (83)
7ebd  bb        cp      e
7ebe  15        dec     d
7ebf  6b        ld      l,e
7ec0  b1        or      c
7ec1  13        inc     de
7ec2  98        sbc     a,b
7ec3  cbb2      res     6,d
7ec5  dbbd      in      a,(#bd)
7ec7  c7        rst     #0
7ec8  de3b      sbc     a,#3b
7eca  13        inc     de
7ecb  fb        ei      
7ecc  17        rla     
7ecd  69        ld      l,c
7ece  be        cp      (hl)
7ecf  73        ld      (hl),e
7ed0  c6ab      add     a,#ab
7ed2  a0        and     b
7ed3  b7        or      a
7ed4  98        sbc     a,b
7ed5  5f        ld      e,a
7ed6  17        rla     
7ed7  97        sub     a
7ed8  9f        sbc     a,a
7ed9  3f        ccf     
7eda  00        nop     
7edb  4b        ld      c,e
7edc  46        ld      b,(hl)
7edd  48        ld      c,b
7ede  33        inc     sp
7edf  17        rla     
7ee0  2e6d      ld      l,#6d
7ee2  3b        dec     sp
7ee3  f4f64f    call    p,#4ff6
7ee6  09        add     hl,bc
7ee7  15        dec     d
7ee8  e696      and     #96
7eea  b6        or      (hl)
7eeb  14        inc     d
7eec  67        ld      h,a
7eed  48        ld      c,b
7eee  67        ld      h,a
7eef  16c8      ld      d,#c8
7ef1  15        dec     d
7ef2  61        ld      h,c
7ef3  17        rla     
7ef4  3692      ld      (hl),#92
7ef6  90        sub     b
7ef7  73        ld      (hl),e
7ef8  c9        ret     

7ef9  6a        ld      l,d
7efa  b5        or      l
7efb  9e        sbc     a,(hl)
7efc  04        inc     b
7efd  18ff      jr      #7efe           ; (-1)
7eff  f9        ld      sp,hl
7f00  ff        rst     #38
7f01  f9        ld      sp,hl
7f02  ff        rst     #38
7f03  f9        ld      sp,hl
7f04  ff        rst     #38
7f05  f9        ld      sp,hl
7f06  3b        dec     sp
7f07  f43b13    call    p,#133b
7f0a  3b        dec     sp
7f0b  13        inc     de
7f0c  3b        dec     sp
7f0d  13        inc     de
7f0e  3b        dec     sp
7f0f  13        inc     de
7f10  3b        dec     sp
7f11  13        inc     de
7f12  3b        dec     sp
7f13  13        inc     de
7f14  5d        ld      e,l
7f15  13        inc     de
7f16  2d        dec     l
7f17  ed52      sbc     hl,de
7f19  13        inc     de
7f1a  38a0      jr      c,#7ebc         ; (-96)
7f1c  e9        jp      (hl)
7f1d  12        ld      (de),a
7f1e  5d        ld      e,l
7f1f  13        inc     de
7f20  2d        dec     l
7f21  ed3b      db      #ed, #3b        ; Undocumented 8 T-State NOP
7f23  13        inc     de
7f24  3b        dec     sp
7f25  13        inc     de
7f26  3b        dec     sp
7f27  0a        ld      a,(bc)
7f28  3c        inc     a
7f29  ff        rst     #38
7f2a  00        nop     
7f2b  7f        ld      a,a
7f2c  13        inc     de
7f2d  3b        dec     sp
7f2e  13        inc     de
7f2f  3b        dec     sp
7f30  13        inc     de
7f31  3b        dec     sp
7f32  13        inc     de
7f33  3b        dec     sp
7f34  13        inc     de
7f35  5b        ld      e,e
7f36  13        inc     de
7f37  1b        dec     de
7f38  a1        and     c
7f39  2f        cpl     
7f3a  49        ld      c,c
7f3b  3015      jr      nc,#7f52        ; (21)
7f3d  2e6f      ld      l,#6f
7f3f  66        ld      h,(hl)
7f40  66        ld      h,(hl)
7f41  d0        ret     nc

7f42  15        dec     d
7f43  7b        ld      a,e
7f44  14        inc     d
7f45  c9        ret     

7f46  54        ld      d,h
7f47  f3        di      
7f48  c3c39e    jp      #9ec3
7f4b  ab        xor     e
7f4c  a0        and     b
7f4d  b7        or      a
7f4e  98        sbc     a,b
7f4f  5f        ld      e,a
7f50  17        rla     
7f51  97        sub     a
7f52  9f        sbc     a,a
7f53  3b        dec     sp
7f54  f44755    call    p,#5547
7f57  23        inc     hl
7f58  6d        ld      l,l
7f59  ab        xor     e
7f5a  98        sbc     a,b
7f5b  8e        adc     a,(hl)
7f5c  48        ld      c,b
7f5d  3b        dec     sp
7f5e  13        inc     de
7f5f  3b        dec     sp
7f60  13        inc     de
7f61  15        dec     d
7f62  6c        ld      l,h
7f63  90        sub     b
7f64  a5        and     l
7f65  33        inc     sp
7f66  70        ld      (hl),b
7f67  c7        rst     #0
7f68  de2f      sbc     a,#2f
7f6a  15        dec     d
7f6b  316248    ld      sp,#4862
7f6e  5e        ld      e,(hl)
7f6f  ff        rst     #38
7f70  b2        or      d
7f71  82        add     a,d
7f72  17        rla     
7f73  55        ld      d,l
7f74  5e        ld      e,(hl)
7f75  bd        cp      l
7f76  93        sub     e
7f77  45        ld      b,l
7f78  2e00      ld      l,#00
7f7a  27        daa     
7f7b  93        sub     e
7f7c  9f        sbc     a,a
7f7d  b3        or      e
7f7e  e0        ret     po

7f7f  09        add     hl,bc
7f80  9a        sbc     a,d
7f81  fa172f    jp      m,#2f17
7f84  62        ld      h,d
7f85  03        inc     bc
7f86  15        dec     d
7f87  0b        dec     bc
7f88  58        ld      e,b
7f89  ef        rst     #28
7f8a  160f      ld      d,#0f
7f8c  bc        cp      h
7f8d  51        ld      d,c
7f8e  dbd0      in      a,(#d0)
7f90  b0        or      b
7f91  9b        sbc     a,e
7f92  6c        ld      l,h
7f93  f1        pop     af
7f94  b8        cp      b
7f95  98        sbc     a,b
7f96  85        add     a,l
7f97  ff        rst     #38
7f98  f9        ld      sp,hl
7f99  f21338    jp      p,#3813
7f9c  a0        and     b
7f9d  33        inc     sp
7f9e  07        rlca    
7f9f  3b        dec     sp
7fa0  13        inc     de
7fa1  3b        dec     sp
7fa2  13        inc     de
7fa3  3b        dec     sp
7fa4  13        inc     de
7fa5  3815      jr      c,#7fbc         ; (21)
7fa7  43        ld      b,e
7fa8  62        ld      h,d
7fa9  63        ld      h,e
7faa  be        cp      (hl)
7fab  ab        xor     e
7fac  98        sbc     a,b
7fad  95        sub     l
7fae  5a        ld      e,d
7faf  ea4894    jp      pe,#9448
7fb2  5f        ld      e,a
7fb3  cbb5      res     6,l
7fb5  83        add     a,e
7fb6  96        sub     (hl)
7fb7  ff        rst     #38
7fb8  14        inc     d
7fb9  97        sub     a
7fba  9a        sbc     a,d
7fbb  de14      sbc     a,#14
7fbd  26a1      ld      h,#a1
7fbf  b8        cp      b
7fc0  16c4      ld      d,#c4
7fc2  1691      ld      d,#91
7fc4  48        ld      c,b
7fc5  55        ld      d,l
7fc6  5e        ld      e,(hl)
7fc7  bd        cp      l
7fc8  93        sub     e
7fc9  45        ld      b,l
7fca  2e00      ld      l,#00
7fcc  04        inc     b
7fcd  63        ld      h,e
7fce  b1        or      c
7fcf  fb        ei      
7fd0  5c        ld      e,h
7fd1  15        dec     d
7fd2  53        ld      d,e
7fd3  b6        or      (hl)
7fd4  b7        or      a
7fd5  54        ld      d,h
7fd6  45        ld      b,l
7fd7  00        nop     
7fd8  04        inc     b
7fd9  1f        rra     
7fda  54        ld      d,h
7fdb  a5        and     l
7fdc  54        ld      d,h
7fdd  5b        ld      e,e
7fde  c5        push    bc
7fdf  3c        inc     a
7fe0  62        ld      h,d
7fe1  4f        ld      c,a
7fe2  52        ld      d,d
7fe3  00        nop     
7fe4  1836      jr      #801c           ; (54)
7fe6  9f        sbc     a,a
7fe7  99        sbc     a,c
7fe8  16bb      ld      d,#bb
7fea  064e      ld      b,#4e
7fec  77        ld      (hl),a
7fed  e6a0      and     #a0
7fef  7b        ld      a,e
7ff0  16e1      ld      d,#e1
7ff2  14        inc     d
7ff3  db93      in      a,(#93)
7ff5  ef        rst     #28
7ff6  b9        cp      c
7ff7  4b        ld      c,e
7ff8  13        inc     de
7ff9  99        sbc     a,c
7ffa  1649      ld      d,#49
7ffc  16b7      ld      d,#b7
7ffe  98        sbc     a,b
7fff  95        sub     l
8000  af        xor     a
8001  2f        cpl     
8002  60        ld      h,b
8003  89        adc     a,c
8004  17        rla     
8005  2016      jr      nz,#801d        ; (22)
8007  6b        ld      l,e
8008  a1        and     c
8009  23        inc     hl
800a  d1        pop     de
800b  13        inc     de
800c  54        ld      d,h
800d  1b        dec     de
800e  d0        ret     nc

800f  d5        push    de
8010  15        dec     d
8011  99        sbc     a,c
8012  16c2      ld      d,#c2
8014  b3        or      e
8015  210039    ld      hl,#3900
8018  00        nop     
8019  39        add     hl,sp
801a  00        nop     
801b  39        add     hl,sp
801c  00        nop     
801d  39        add     hl,sp
801e  00        nop     
801f  39        add     hl,sp
8020  00        nop     
8021  39        add     hl,sp
8022  00        nop     
8023  39        add     hl,sp
8024  00        nop     
8025  39        add     hl,sp
8026  00        nop     
8027  39        add     hl,sp
8028  00        nop     
8029  39        add     hl,sp
802a  00        nop     
802b  47        ld      b,a
802c  78        ld      a,b
802d  00        nop     
802e  43        ld      b,e
802f  ff        rst     #38
8030  ff        rst     #38

Disassembled 12177 instructions.
